   1               		.file	"DeviceStandardReq.c"
   2               	__SP_H__ = 0x3e
   3               	__SP_L__ = 0x3d
   4               	__SREG__ = 0x3f
   5               	__tmp_reg__ = 0
   6               	__zero_reg__ = 1
   7               		.text
   8               	.Ltext0:
   9               		.cfi_sections	.debug_frame
  10               		.section	.text.USB_Device_ProcessControlRequest,"ax",@progbits
  11               	.global	USB_Device_ProcessControlRequest
  13               	USB_Device_ProcessControlRequest:
  14               	.LFB81:
  15               		.file 1 "../../LUFA-111009/LUFA/Drivers/USB/Core/DeviceStandardReq.c"
   1:../../LUFA-111009/LUFA/Drivers/USB/Core/DeviceStandardReq.c **** /*
   2:../../LUFA-111009/LUFA/Drivers/USB/Core/DeviceStandardReq.c ****              LUFA Library
   3:../../LUFA-111009/LUFA/Drivers/USB/Core/DeviceStandardReq.c ****      Copyright (C) Dean Camera, 2011.
   4:../../LUFA-111009/LUFA/Drivers/USB/Core/DeviceStandardReq.c **** 
   5:../../LUFA-111009/LUFA/Drivers/USB/Core/DeviceStandardReq.c ****   dean [at] fourwalledcubicle [dot] com
   6:../../LUFA-111009/LUFA/Drivers/USB/Core/DeviceStandardReq.c ****            www.lufa-lib.org
   7:../../LUFA-111009/LUFA/Drivers/USB/Core/DeviceStandardReq.c **** */
   8:../../LUFA-111009/LUFA/Drivers/USB/Core/DeviceStandardReq.c **** 
   9:../../LUFA-111009/LUFA/Drivers/USB/Core/DeviceStandardReq.c **** /*
  10:../../LUFA-111009/LUFA/Drivers/USB/Core/DeviceStandardReq.c ****   Copyright 2011  Dean Camera (dean [at] fourwalledcubicle [dot] com)
  11:../../LUFA-111009/LUFA/Drivers/USB/Core/DeviceStandardReq.c **** 
  12:../../LUFA-111009/LUFA/Drivers/USB/Core/DeviceStandardReq.c ****   Permission to use, copy, modify, distribute, and sell this
  13:../../LUFA-111009/LUFA/Drivers/USB/Core/DeviceStandardReq.c ****   software and its documentation for any purpose is hereby granted
  14:../../LUFA-111009/LUFA/Drivers/USB/Core/DeviceStandardReq.c ****   without fee, provided that the above copyright notice appear in
  15:../../LUFA-111009/LUFA/Drivers/USB/Core/DeviceStandardReq.c ****   all copies and that both that the copyright notice and this
  16:../../LUFA-111009/LUFA/Drivers/USB/Core/DeviceStandardReq.c ****   permission notice and warranty disclaimer appear in supporting
  17:../../LUFA-111009/LUFA/Drivers/USB/Core/DeviceStandardReq.c ****   documentation, and that the name of the author not be used in
  18:../../LUFA-111009/LUFA/Drivers/USB/Core/DeviceStandardReq.c ****   advertising or publicity pertaining to distribution of the
  19:../../LUFA-111009/LUFA/Drivers/USB/Core/DeviceStandardReq.c ****   software without specific, written prior permission.
  20:../../LUFA-111009/LUFA/Drivers/USB/Core/DeviceStandardReq.c **** 
  21:../../LUFA-111009/LUFA/Drivers/USB/Core/DeviceStandardReq.c ****   The author disclaim all warranties with regard to this
  22:../../LUFA-111009/LUFA/Drivers/USB/Core/DeviceStandardReq.c ****   software, including all implied warranties of merchantability
  23:../../LUFA-111009/LUFA/Drivers/USB/Core/DeviceStandardReq.c ****   and fitness.  In no event shall the author be liable for any
  24:../../LUFA-111009/LUFA/Drivers/USB/Core/DeviceStandardReq.c ****   special, indirect or consequential damages or any damages
  25:../../LUFA-111009/LUFA/Drivers/USB/Core/DeviceStandardReq.c ****   whatsoever resulting from loss of use, data or profits, whether
  26:../../LUFA-111009/LUFA/Drivers/USB/Core/DeviceStandardReq.c ****   in an action of contract, negligence or other tortious action,
  27:../../LUFA-111009/LUFA/Drivers/USB/Core/DeviceStandardReq.c ****   arising out of or in connection with the use or performance of
  28:../../LUFA-111009/LUFA/Drivers/USB/Core/DeviceStandardReq.c ****   this software.
  29:../../LUFA-111009/LUFA/Drivers/USB/Core/DeviceStandardReq.c **** */
  30:../../LUFA-111009/LUFA/Drivers/USB/Core/DeviceStandardReq.c **** 
  31:../../LUFA-111009/LUFA/Drivers/USB/Core/DeviceStandardReq.c **** #define  __INCLUDE_FROM_USB_DRIVER
  32:../../LUFA-111009/LUFA/Drivers/USB/Core/DeviceStandardReq.c **** #include "USBMode.h"
  33:../../LUFA-111009/LUFA/Drivers/USB/Core/DeviceStandardReq.c **** 
  34:../../LUFA-111009/LUFA/Drivers/USB/Core/DeviceStandardReq.c **** #if defined(USB_CAN_BE_DEVICE)
  35:../../LUFA-111009/LUFA/Drivers/USB/Core/DeviceStandardReq.c **** 
  36:../../LUFA-111009/LUFA/Drivers/USB/Core/DeviceStandardReq.c **** #define  __INCLUDE_FROM_DEVICESTDREQ_C
  37:../../LUFA-111009/LUFA/Drivers/USB/Core/DeviceStandardReq.c **** #include "DeviceStandardReq.h"
  38:../../LUFA-111009/LUFA/Drivers/USB/Core/DeviceStandardReq.c **** 
  39:../../LUFA-111009/LUFA/Drivers/USB/Core/DeviceStandardReq.c **** uint8_t USB_Device_ConfigurationNumber;
  40:../../LUFA-111009/LUFA/Drivers/USB/Core/DeviceStandardReq.c **** 
  41:../../LUFA-111009/LUFA/Drivers/USB/Core/DeviceStandardReq.c **** #if !defined(NO_DEVICE_SELF_POWER)
  42:../../LUFA-111009/LUFA/Drivers/USB/Core/DeviceStandardReq.c **** bool    USB_Device_CurrentlySelfPowered;
  43:../../LUFA-111009/LUFA/Drivers/USB/Core/DeviceStandardReq.c **** #endif
  44:../../LUFA-111009/LUFA/Drivers/USB/Core/DeviceStandardReq.c **** 
  45:../../LUFA-111009/LUFA/Drivers/USB/Core/DeviceStandardReq.c **** #if !defined(NO_DEVICE_REMOTE_WAKEUP)
  46:../../LUFA-111009/LUFA/Drivers/USB/Core/DeviceStandardReq.c **** bool    USB_Device_RemoteWakeupEnabled;
  47:../../LUFA-111009/LUFA/Drivers/USB/Core/DeviceStandardReq.c **** #endif
  48:../../LUFA-111009/LUFA/Drivers/USB/Core/DeviceStandardReq.c **** 
  49:../../LUFA-111009/LUFA/Drivers/USB/Core/DeviceStandardReq.c **** void USB_Device_ProcessControlRequest(void)
  50:../../LUFA-111009/LUFA/Drivers/USB/Core/DeviceStandardReq.c **** {
  16               		.loc 1 50 1 view -0
  17               		.cfi_startproc
  18 0000 0F93      		push r16
  19               	.LCFI0:
  20               		.cfi_def_cfa_offset 3
  21               		.cfi_offset 16, -2
  22 0002 1F93      		push r17
  23               	.LCFI1:
  24               		.cfi_def_cfa_offset 4
  25               		.cfi_offset 17, -3
  26 0004 CF93      		push r28
  27               	.LCFI2:
  28               		.cfi_def_cfa_offset 5
  29               		.cfi_offset 28, -4
  30 0006 DF93      		push r29
  31               	.LCFI3:
  32               		.cfi_def_cfa_offset 6
  33               		.cfi_offset 29, -5
  34 0008 00D0      		rcall .
  35               	.LCFI4:
  36               		.cfi_def_cfa_offset 8
  37 000a CDB7      		in r28,__SP_L__
  38 000c DEB7      		in r29,__SP_H__
  39               	.LCFI5:
  40               		.cfi_def_cfa_register 28
  41               	/* prologue: function */
  42               	/* frame size = 2 */
  43               	/* stack size = 6 */
  44               	.L__stack_usage = 6
  51:../../LUFA-111009/LUFA/Drivers/USB/Core/DeviceStandardReq.c **** 	#if defined(ARCH_BIG_ENDIAN)
  52:../../LUFA-111009/LUFA/Drivers/USB/Core/DeviceStandardReq.c **** 	USB_ControlRequest.bmRequestType = Endpoint_Read_8();
  53:../../LUFA-111009/LUFA/Drivers/USB/Core/DeviceStandardReq.c **** 	USB_ControlRequest.bRequest      = Endpoint_Read_8();
  54:../../LUFA-111009/LUFA/Drivers/USB/Core/DeviceStandardReq.c **** 	USB_ControlRequest.wValue        = Endpoint_Read_16_LE();
  55:../../LUFA-111009/LUFA/Drivers/USB/Core/DeviceStandardReq.c **** 	USB_ControlRequest.wIndex        = Endpoint_Read_16_LE();
  56:../../LUFA-111009/LUFA/Drivers/USB/Core/DeviceStandardReq.c **** 	USB_ControlRequest.wLength       = Endpoint_Read_16_LE();
  57:../../LUFA-111009/LUFA/Drivers/USB/Core/DeviceStandardReq.c **** 	#else
  58:../../LUFA-111009/LUFA/Drivers/USB/Core/DeviceStandardReq.c **** 	uint8_t* RequestHeader = (uint8_t*)&USB_ControlRequest;
  45               		.loc 1 58 2 view .LVU1
  46               	.LVL0:
  59:../../LUFA-111009/LUFA/Drivers/USB/Core/DeviceStandardReq.c **** 
  60:../../LUFA-111009/LUFA/Drivers/USB/Core/DeviceStandardReq.c **** 	for (uint8_t RequestHeaderByte = 0; RequestHeaderByte < sizeof(USB_Request_Header_t); RequestHeade
  47               		.loc 1 60 2 view .LVU2
  48               	.LBB148:
  49               		.loc 1 60 7 view .LVU3
  50               		.loc 1 60 38 view .LVU4
  51               	.LBE148:
  58:../../LUFA-111009/LUFA/Drivers/USB/Core/DeviceStandardReq.c **** 
  52               		.loc 1 58 11 is_stmt 0 view .LVU5
  53 000e 80E0      		ldi r24,lo8(USB_ControlRequest)
  54 0010 90E0      		ldi r25,hi8(USB_ControlRequest)
  55               	.LVL1:
  56               	.L2:
  57               	.LBB151:
  61:../../LUFA-111009/LUFA/Drivers/USB/Core/DeviceStandardReq.c **** 	  *(RequestHeader++) = Endpoint_Read_8();
  58               		.loc 1 61 4 is_stmt 1 discriminator 3 view .LVU6
  59 0012 FC01      		movw r30,r24
  60               		.loc 1 61 19 is_stmt 0 discriminator 3 view .LVU7
  61 0014 0196      		adiw r24,1
  62               	.LVL2:
  63               	.LBB149:
  64               	.LBI149:
  65               		.file 2 "../../LUFA-111009/LUFA/Drivers/USB/Core/AVR8/../AVR8/Endpoint_AVR8.h"
   1:../../LUFA-111009/LUFA/Drivers/USB/Core/AVR8/../AVR8/Endpoint_AVR8.h **** /*
   2:../../LUFA-111009/LUFA/Drivers/USB/Core/AVR8/../AVR8/Endpoint_AVR8.h ****              LUFA Library
   3:../../LUFA-111009/LUFA/Drivers/USB/Core/AVR8/../AVR8/Endpoint_AVR8.h ****      Copyright (C) Dean Camera, 2011.
   4:../../LUFA-111009/LUFA/Drivers/USB/Core/AVR8/../AVR8/Endpoint_AVR8.h **** 
   5:../../LUFA-111009/LUFA/Drivers/USB/Core/AVR8/../AVR8/Endpoint_AVR8.h ****   dean [at] fourwalledcubicle [dot] com
   6:../../LUFA-111009/LUFA/Drivers/USB/Core/AVR8/../AVR8/Endpoint_AVR8.h ****            www.lufa-lib.org
   7:../../LUFA-111009/LUFA/Drivers/USB/Core/AVR8/../AVR8/Endpoint_AVR8.h **** */
   8:../../LUFA-111009/LUFA/Drivers/USB/Core/AVR8/../AVR8/Endpoint_AVR8.h **** 
   9:../../LUFA-111009/LUFA/Drivers/USB/Core/AVR8/../AVR8/Endpoint_AVR8.h **** /*
  10:../../LUFA-111009/LUFA/Drivers/USB/Core/AVR8/../AVR8/Endpoint_AVR8.h ****   Copyright 2011  Dean Camera (dean [at] fourwalledcubicle [dot] com)
  11:../../LUFA-111009/LUFA/Drivers/USB/Core/AVR8/../AVR8/Endpoint_AVR8.h **** 
  12:../../LUFA-111009/LUFA/Drivers/USB/Core/AVR8/../AVR8/Endpoint_AVR8.h ****   Permission to use, copy, modify, distribute, and sell this
  13:../../LUFA-111009/LUFA/Drivers/USB/Core/AVR8/../AVR8/Endpoint_AVR8.h ****   software and its documentation for any purpose is hereby granted
  14:../../LUFA-111009/LUFA/Drivers/USB/Core/AVR8/../AVR8/Endpoint_AVR8.h ****   without fee, provided that the above copyright notice appear in
  15:../../LUFA-111009/LUFA/Drivers/USB/Core/AVR8/../AVR8/Endpoint_AVR8.h ****   all copies and that both that the copyright notice and this
  16:../../LUFA-111009/LUFA/Drivers/USB/Core/AVR8/../AVR8/Endpoint_AVR8.h ****   permission notice and warranty disclaimer appear in supporting
  17:../../LUFA-111009/LUFA/Drivers/USB/Core/AVR8/../AVR8/Endpoint_AVR8.h ****   documentation, and that the name of the author not be used in
  18:../../LUFA-111009/LUFA/Drivers/USB/Core/AVR8/../AVR8/Endpoint_AVR8.h ****   advertising or publicity pertaining to distribution of the
  19:../../LUFA-111009/LUFA/Drivers/USB/Core/AVR8/../AVR8/Endpoint_AVR8.h ****   software without specific, written prior permission.
  20:../../LUFA-111009/LUFA/Drivers/USB/Core/AVR8/../AVR8/Endpoint_AVR8.h **** 
  21:../../LUFA-111009/LUFA/Drivers/USB/Core/AVR8/../AVR8/Endpoint_AVR8.h ****   The author disclaim all warranties with regard to this
  22:../../LUFA-111009/LUFA/Drivers/USB/Core/AVR8/../AVR8/Endpoint_AVR8.h ****   software, including all implied warranties of merchantability
  23:../../LUFA-111009/LUFA/Drivers/USB/Core/AVR8/../AVR8/Endpoint_AVR8.h ****   and fitness.  In no event shall the author be liable for any
  24:../../LUFA-111009/LUFA/Drivers/USB/Core/AVR8/../AVR8/Endpoint_AVR8.h ****   special, indirect or consequential damages or any damages
  25:../../LUFA-111009/LUFA/Drivers/USB/Core/AVR8/../AVR8/Endpoint_AVR8.h ****   whatsoever resulting from loss of use, data or profits, whether
  26:../../LUFA-111009/LUFA/Drivers/USB/Core/AVR8/../AVR8/Endpoint_AVR8.h ****   in an action of contract, negligence or other tortious action,
  27:../../LUFA-111009/LUFA/Drivers/USB/Core/AVR8/../AVR8/Endpoint_AVR8.h ****   arising out of or in connection with the use or performance of
  28:../../LUFA-111009/LUFA/Drivers/USB/Core/AVR8/../AVR8/Endpoint_AVR8.h ****   this software.
  29:../../LUFA-111009/LUFA/Drivers/USB/Core/AVR8/../AVR8/Endpoint_AVR8.h **** */
  30:../../LUFA-111009/LUFA/Drivers/USB/Core/AVR8/../AVR8/Endpoint_AVR8.h **** 
  31:../../LUFA-111009/LUFA/Drivers/USB/Core/AVR8/../AVR8/Endpoint_AVR8.h **** /** \file
  32:../../LUFA-111009/LUFA/Drivers/USB/Core/AVR8/../AVR8/Endpoint_AVR8.h ****  *  \brief USB Endpoint definitions for the AVR8 microcontrollers.
  33:../../LUFA-111009/LUFA/Drivers/USB/Core/AVR8/../AVR8/Endpoint_AVR8.h ****  *  \copydetails Group_EndpointManagement_AVR8
  34:../../LUFA-111009/LUFA/Drivers/USB/Core/AVR8/../AVR8/Endpoint_AVR8.h ****  *
  35:../../LUFA-111009/LUFA/Drivers/USB/Core/AVR8/../AVR8/Endpoint_AVR8.h ****  *  \note This file should not be included directly. It is automatically included as needed by the 
  36:../../LUFA-111009/LUFA/Drivers/USB/Core/AVR8/../AVR8/Endpoint_AVR8.h ****  *        dispatch header located in LUFA/Drivers/USB/USB.h.
  37:../../LUFA-111009/LUFA/Drivers/USB/Core/AVR8/../AVR8/Endpoint_AVR8.h ****  */
  38:../../LUFA-111009/LUFA/Drivers/USB/Core/AVR8/../AVR8/Endpoint_AVR8.h **** 
  39:../../LUFA-111009/LUFA/Drivers/USB/Core/AVR8/../AVR8/Endpoint_AVR8.h **** /** \ingroup Group_EndpointRW
  40:../../LUFA-111009/LUFA/Drivers/USB/Core/AVR8/../AVR8/Endpoint_AVR8.h ****  *  \defgroup Group_EndpointRW_AVR8 Endpoint Data Reading and Writing (AVR8)
  41:../../LUFA-111009/LUFA/Drivers/USB/Core/AVR8/../AVR8/Endpoint_AVR8.h ****  *  \brief Endpoint data read/write definitions for the Atmel AVR8 architecture.
  42:../../LUFA-111009/LUFA/Drivers/USB/Core/AVR8/../AVR8/Endpoint_AVR8.h ****  *
  43:../../LUFA-111009/LUFA/Drivers/USB/Core/AVR8/../AVR8/Endpoint_AVR8.h ****  *  Functions, macros, variables, enums and types related to data reading and writing from and to e
  44:../../LUFA-111009/LUFA/Drivers/USB/Core/AVR8/../AVR8/Endpoint_AVR8.h ****  */
  45:../../LUFA-111009/LUFA/Drivers/USB/Core/AVR8/../AVR8/Endpoint_AVR8.h **** 
  46:../../LUFA-111009/LUFA/Drivers/USB/Core/AVR8/../AVR8/Endpoint_AVR8.h **** /** \ingroup Group_EndpointPrimitiveRW
  47:../../LUFA-111009/LUFA/Drivers/USB/Core/AVR8/../AVR8/Endpoint_AVR8.h ****  *  \defgroup Group_EndpointPrimitiveRW_AVR8 Read/Write of Primitive Data Types (AVR8)
  48:../../LUFA-111009/LUFA/Drivers/USB/Core/AVR8/../AVR8/Endpoint_AVR8.h ****  *  \brief Endpoint primitive read/write definitions for the Atmel AVR8 architecture.
  49:../../LUFA-111009/LUFA/Drivers/USB/Core/AVR8/../AVR8/Endpoint_AVR8.h ****  *
  50:../../LUFA-111009/LUFA/Drivers/USB/Core/AVR8/../AVR8/Endpoint_AVR8.h ****  *  Functions, macros, variables, enums and types related to data reading and writing of primitive 
  51:../../LUFA-111009/LUFA/Drivers/USB/Core/AVR8/../AVR8/Endpoint_AVR8.h ****  *  from and to endpoints.
  52:../../LUFA-111009/LUFA/Drivers/USB/Core/AVR8/../AVR8/Endpoint_AVR8.h ****  */
  53:../../LUFA-111009/LUFA/Drivers/USB/Core/AVR8/../AVR8/Endpoint_AVR8.h **** 
  54:../../LUFA-111009/LUFA/Drivers/USB/Core/AVR8/../AVR8/Endpoint_AVR8.h **** /** \ingroup Group_EndpointPacketManagement
  55:../../LUFA-111009/LUFA/Drivers/USB/Core/AVR8/../AVR8/Endpoint_AVR8.h ****  *  \defgroup Group_EndpointPacketManagement_AVR8 Endpoint Packet Management (AVR8)
  56:../../LUFA-111009/LUFA/Drivers/USB/Core/AVR8/../AVR8/Endpoint_AVR8.h ****  *  \brief Endpoint packet management definitions for the Atmel AVR8 architecture.
  57:../../LUFA-111009/LUFA/Drivers/USB/Core/AVR8/../AVR8/Endpoint_AVR8.h ****  *
  58:../../LUFA-111009/LUFA/Drivers/USB/Core/AVR8/../AVR8/Endpoint_AVR8.h ****  *  Functions, macros, variables, enums and types related to packet management of endpoints.
  59:../../LUFA-111009/LUFA/Drivers/USB/Core/AVR8/../AVR8/Endpoint_AVR8.h ****  */
  60:../../LUFA-111009/LUFA/Drivers/USB/Core/AVR8/../AVR8/Endpoint_AVR8.h **** 
  61:../../LUFA-111009/LUFA/Drivers/USB/Core/AVR8/../AVR8/Endpoint_AVR8.h **** /** \ingroup Group_EndpointManagement
  62:../../LUFA-111009/LUFA/Drivers/USB/Core/AVR8/../AVR8/Endpoint_AVR8.h ****  *  \defgroup Group_EndpointManagement_AVR8 Endpoint Management (AVR8)
  63:../../LUFA-111009/LUFA/Drivers/USB/Core/AVR8/../AVR8/Endpoint_AVR8.h ****  *  \brief Endpoint management definitions for the Atmel AVR8 architecture.
  64:../../LUFA-111009/LUFA/Drivers/USB/Core/AVR8/../AVR8/Endpoint_AVR8.h ****  *
  65:../../LUFA-111009/LUFA/Drivers/USB/Core/AVR8/../AVR8/Endpoint_AVR8.h ****  *  Functions, macros and enums related to endpoint management when in USB Device mode. This
  66:../../LUFA-111009/LUFA/Drivers/USB/Core/AVR8/../AVR8/Endpoint_AVR8.h ****  *  module contains the endpoint management macros, as well as endpoint interrupt and data
  67:../../LUFA-111009/LUFA/Drivers/USB/Core/AVR8/../AVR8/Endpoint_AVR8.h ****  *  send/receive functions for various data types.
  68:../../LUFA-111009/LUFA/Drivers/USB/Core/AVR8/../AVR8/Endpoint_AVR8.h ****  *
  69:../../LUFA-111009/LUFA/Drivers/USB/Core/AVR8/../AVR8/Endpoint_AVR8.h ****  *  @{
  70:../../LUFA-111009/LUFA/Drivers/USB/Core/AVR8/../AVR8/Endpoint_AVR8.h ****  */
  71:../../LUFA-111009/LUFA/Drivers/USB/Core/AVR8/../AVR8/Endpoint_AVR8.h **** 
  72:../../LUFA-111009/LUFA/Drivers/USB/Core/AVR8/../AVR8/Endpoint_AVR8.h **** #ifndef __ENDPOINT_AVR8_H__
  73:../../LUFA-111009/LUFA/Drivers/USB/Core/AVR8/../AVR8/Endpoint_AVR8.h **** #define __ENDPOINT_AVR8_H__
  74:../../LUFA-111009/LUFA/Drivers/USB/Core/AVR8/../AVR8/Endpoint_AVR8.h **** 
  75:../../LUFA-111009/LUFA/Drivers/USB/Core/AVR8/../AVR8/Endpoint_AVR8.h **** 	/* Includes: */
  76:../../LUFA-111009/LUFA/Drivers/USB/Core/AVR8/../AVR8/Endpoint_AVR8.h **** 		#include "../../../../Common/Common.h"
  77:../../LUFA-111009/LUFA/Drivers/USB/Core/AVR8/../AVR8/Endpoint_AVR8.h **** 		#include "../USBTask.h"
  78:../../LUFA-111009/LUFA/Drivers/USB/Core/AVR8/../AVR8/Endpoint_AVR8.h **** 		#include "../USBInterrupt.h"
  79:../../LUFA-111009/LUFA/Drivers/USB/Core/AVR8/../AVR8/Endpoint_AVR8.h **** 
  80:../../LUFA-111009/LUFA/Drivers/USB/Core/AVR8/../AVR8/Endpoint_AVR8.h **** 	/* Enable C linkage for C++ Compilers: */
  81:../../LUFA-111009/LUFA/Drivers/USB/Core/AVR8/../AVR8/Endpoint_AVR8.h **** 		#if defined(__cplusplus)
  82:../../LUFA-111009/LUFA/Drivers/USB/Core/AVR8/../AVR8/Endpoint_AVR8.h **** 			extern "C" {
  83:../../LUFA-111009/LUFA/Drivers/USB/Core/AVR8/../AVR8/Endpoint_AVR8.h **** 		#endif
  84:../../LUFA-111009/LUFA/Drivers/USB/Core/AVR8/../AVR8/Endpoint_AVR8.h **** 
  85:../../LUFA-111009/LUFA/Drivers/USB/Core/AVR8/../AVR8/Endpoint_AVR8.h **** 	/* Preprocessor Checks: */
  86:../../LUFA-111009/LUFA/Drivers/USB/Core/AVR8/../AVR8/Endpoint_AVR8.h **** 		#if !defined(__INCLUDE_FROM_USB_DRIVER)
  87:../../LUFA-111009/LUFA/Drivers/USB/Core/AVR8/../AVR8/Endpoint_AVR8.h **** 			#error Do not include this file directly. Include LUFA/Drivers/USB/USB.h instead.
  88:../../LUFA-111009/LUFA/Drivers/USB/Core/AVR8/../AVR8/Endpoint_AVR8.h **** 		#endif
  89:../../LUFA-111009/LUFA/Drivers/USB/Core/AVR8/../AVR8/Endpoint_AVR8.h **** 
  90:../../LUFA-111009/LUFA/Drivers/USB/Core/AVR8/../AVR8/Endpoint_AVR8.h **** 	/* Private Interface - For use in library only: */
  91:../../LUFA-111009/LUFA/Drivers/USB/Core/AVR8/../AVR8/Endpoint_AVR8.h **** 	#if !defined(__DOXYGEN__)
  92:../../LUFA-111009/LUFA/Drivers/USB/Core/AVR8/../AVR8/Endpoint_AVR8.h **** 		/* Macros: */
  93:../../LUFA-111009/LUFA/Drivers/USB/Core/AVR8/../AVR8/Endpoint_AVR8.h **** 			#define _ENDPOINT_GET_MAXSIZE(EPIndex)         _ENDPOINT_GET_MAXSIZE2(ENDPOINT_DETAILS_EP ## EPI
  94:../../LUFA-111009/LUFA/Drivers/USB/Core/AVR8/../AVR8/Endpoint_AVR8.h **** 			#define _ENDPOINT_GET_MAXSIZE2(EPDetails)      _ENDPOINT_GET_MAXSIZE3(EPDetails)
  95:../../LUFA-111009/LUFA/Drivers/USB/Core/AVR8/../AVR8/Endpoint_AVR8.h **** 			#define _ENDPOINT_GET_MAXSIZE3(MaxSize, Banks) (MaxSize)
  96:../../LUFA-111009/LUFA/Drivers/USB/Core/AVR8/../AVR8/Endpoint_AVR8.h **** 
  97:../../LUFA-111009/LUFA/Drivers/USB/Core/AVR8/../AVR8/Endpoint_AVR8.h **** 			#define _ENDPOINT_GET_BANKS(EPIndex)           _ENDPOINT_GET_BANKS2(ENDPOINT_DETAILS_EP ## EPInd
  98:../../LUFA-111009/LUFA/Drivers/USB/Core/AVR8/../AVR8/Endpoint_AVR8.h **** 			#define _ENDPOINT_GET_BANKS2(EPDetails)        _ENDPOINT_GET_BANKS3(EPDetails)
  99:../../LUFA-111009/LUFA/Drivers/USB/Core/AVR8/../AVR8/Endpoint_AVR8.h **** 			#define _ENDPOINT_GET_BANKS3(MaxSize, Banks)   (Banks)
 100:../../LUFA-111009/LUFA/Drivers/USB/Core/AVR8/../AVR8/Endpoint_AVR8.h **** 
 101:../../LUFA-111009/LUFA/Drivers/USB/Core/AVR8/../AVR8/Endpoint_AVR8.h **** 			#if defined(USB_SERIES_4_AVR) || defined(USB_SERIES_6_AVR) || defined(USB_SERIES_7_AVR)
 102:../../LUFA-111009/LUFA/Drivers/USB/Core/AVR8/../AVR8/Endpoint_AVR8.h **** 				#define ENDPOINT_DETAILS_MAXEP             7
 103:../../LUFA-111009/LUFA/Drivers/USB/Core/AVR8/../AVR8/Endpoint_AVR8.h **** 
 104:../../LUFA-111009/LUFA/Drivers/USB/Core/AVR8/../AVR8/Endpoint_AVR8.h **** 				#define ENDPOINT_DETAILS_EP0               64,  1
 105:../../LUFA-111009/LUFA/Drivers/USB/Core/AVR8/../AVR8/Endpoint_AVR8.h **** 				#define ENDPOINT_DETAILS_EP1               256, 2
 106:../../LUFA-111009/LUFA/Drivers/USB/Core/AVR8/../AVR8/Endpoint_AVR8.h **** 				#define ENDPOINT_DETAILS_EP2               64,  2
 107:../../LUFA-111009/LUFA/Drivers/USB/Core/AVR8/../AVR8/Endpoint_AVR8.h **** 				#define ENDPOINT_DETAILS_EP3               64,  2
 108:../../LUFA-111009/LUFA/Drivers/USB/Core/AVR8/../AVR8/Endpoint_AVR8.h **** 				#define ENDPOINT_DETAILS_EP4               64,  2
 109:../../LUFA-111009/LUFA/Drivers/USB/Core/AVR8/../AVR8/Endpoint_AVR8.h **** 				#define ENDPOINT_DETAILS_EP5               64,  2
 110:../../LUFA-111009/LUFA/Drivers/USB/Core/AVR8/../AVR8/Endpoint_AVR8.h **** 				#define ENDPOINT_DETAILS_EP6               64,  2
 111:../../LUFA-111009/LUFA/Drivers/USB/Core/AVR8/../AVR8/Endpoint_AVR8.h **** 			#else
 112:../../LUFA-111009/LUFA/Drivers/USB/Core/AVR8/../AVR8/Endpoint_AVR8.h **** 				#define ENDPOINT_DETAILS_MAXEP             5
 113:../../LUFA-111009/LUFA/Drivers/USB/Core/AVR8/../AVR8/Endpoint_AVR8.h **** 
 114:../../LUFA-111009/LUFA/Drivers/USB/Core/AVR8/../AVR8/Endpoint_AVR8.h **** 				#define ENDPOINT_DETAILS_EP0               64,  1
 115:../../LUFA-111009/LUFA/Drivers/USB/Core/AVR8/../AVR8/Endpoint_AVR8.h **** 				#define ENDPOINT_DETAILS_EP1               64,  1
 116:../../LUFA-111009/LUFA/Drivers/USB/Core/AVR8/../AVR8/Endpoint_AVR8.h **** 				#define ENDPOINT_DETAILS_EP2               64,  1
 117:../../LUFA-111009/LUFA/Drivers/USB/Core/AVR8/../AVR8/Endpoint_AVR8.h **** 				#define ENDPOINT_DETAILS_EP3               64,  2
 118:../../LUFA-111009/LUFA/Drivers/USB/Core/AVR8/../AVR8/Endpoint_AVR8.h **** 				#define ENDPOINT_DETAILS_EP4               64,  2
 119:../../LUFA-111009/LUFA/Drivers/USB/Core/AVR8/../AVR8/Endpoint_AVR8.h **** 			#endif
 120:../../LUFA-111009/LUFA/Drivers/USB/Core/AVR8/../AVR8/Endpoint_AVR8.h **** 
 121:../../LUFA-111009/LUFA/Drivers/USB/Core/AVR8/../AVR8/Endpoint_AVR8.h **** 		/* Inline Functions: */
 122:../../LUFA-111009/LUFA/Drivers/USB/Core/AVR8/../AVR8/Endpoint_AVR8.h **** 			static inline uint8_t Endpoint_BytesToEPSizeMask(const uint16_t Bytes) ATTR_WARN_UNUSED_RESULT A
 123:../../LUFA-111009/LUFA/Drivers/USB/Core/AVR8/../AVR8/Endpoint_AVR8.h **** 			                                                                       ATTR_ALWAYS_INLINE;
 124:../../LUFA-111009/LUFA/Drivers/USB/Core/AVR8/../AVR8/Endpoint_AVR8.h **** 			static inline uint8_t Endpoint_BytesToEPSizeMask(const uint16_t Bytes)
 125:../../LUFA-111009/LUFA/Drivers/USB/Core/AVR8/../AVR8/Endpoint_AVR8.h **** 			{
 126:../../LUFA-111009/LUFA/Drivers/USB/Core/AVR8/../AVR8/Endpoint_AVR8.h **** 				uint8_t  MaskVal    = 0;
 127:../../LUFA-111009/LUFA/Drivers/USB/Core/AVR8/../AVR8/Endpoint_AVR8.h **** 				uint16_t CheckBytes = 8;
 128:../../LUFA-111009/LUFA/Drivers/USB/Core/AVR8/../AVR8/Endpoint_AVR8.h **** 
 129:../../LUFA-111009/LUFA/Drivers/USB/Core/AVR8/../AVR8/Endpoint_AVR8.h **** 				while (CheckBytes < Bytes)
 130:../../LUFA-111009/LUFA/Drivers/USB/Core/AVR8/../AVR8/Endpoint_AVR8.h **** 				{
 131:../../LUFA-111009/LUFA/Drivers/USB/Core/AVR8/../AVR8/Endpoint_AVR8.h **** 					MaskVal++;
 132:../../LUFA-111009/LUFA/Drivers/USB/Core/AVR8/../AVR8/Endpoint_AVR8.h **** 					CheckBytes <<= 1;
 133:../../LUFA-111009/LUFA/Drivers/USB/Core/AVR8/../AVR8/Endpoint_AVR8.h **** 				}
 134:../../LUFA-111009/LUFA/Drivers/USB/Core/AVR8/../AVR8/Endpoint_AVR8.h **** 
 135:../../LUFA-111009/LUFA/Drivers/USB/Core/AVR8/../AVR8/Endpoint_AVR8.h **** 				return (MaskVal << EPSIZE0);
 136:../../LUFA-111009/LUFA/Drivers/USB/Core/AVR8/../AVR8/Endpoint_AVR8.h **** 			}
 137:../../LUFA-111009/LUFA/Drivers/USB/Core/AVR8/../AVR8/Endpoint_AVR8.h **** 
 138:../../LUFA-111009/LUFA/Drivers/USB/Core/AVR8/../AVR8/Endpoint_AVR8.h **** 		/* Function Prototypes: */
 139:../../LUFA-111009/LUFA/Drivers/USB/Core/AVR8/../AVR8/Endpoint_AVR8.h **** 			void Endpoint_ClearEndpoints(void);
 140:../../LUFA-111009/LUFA/Drivers/USB/Core/AVR8/../AVR8/Endpoint_AVR8.h **** 			bool Endpoint_ConfigureEndpoint_Prv(const uint8_t Number,
 141:../../LUFA-111009/LUFA/Drivers/USB/Core/AVR8/../AVR8/Endpoint_AVR8.h **** 			                                    const uint8_t UECFG0XData,
 142:../../LUFA-111009/LUFA/Drivers/USB/Core/AVR8/../AVR8/Endpoint_AVR8.h **** 			                                    const uint8_t UECFG1XData);
 143:../../LUFA-111009/LUFA/Drivers/USB/Core/AVR8/../AVR8/Endpoint_AVR8.h **** 
 144:../../LUFA-111009/LUFA/Drivers/USB/Core/AVR8/../AVR8/Endpoint_AVR8.h **** 	#endif
 145:../../LUFA-111009/LUFA/Drivers/USB/Core/AVR8/../AVR8/Endpoint_AVR8.h **** 
 146:../../LUFA-111009/LUFA/Drivers/USB/Core/AVR8/../AVR8/Endpoint_AVR8.h **** 	/* Public Interface - May be used in end-application: */
 147:../../LUFA-111009/LUFA/Drivers/USB/Core/AVR8/../AVR8/Endpoint_AVR8.h **** 		/* Macros: */			
 148:../../LUFA-111009/LUFA/Drivers/USB/Core/AVR8/../AVR8/Endpoint_AVR8.h **** 			/** \name Endpoint Bank Mode Masks */
 149:../../LUFA-111009/LUFA/Drivers/USB/Core/AVR8/../AVR8/Endpoint_AVR8.h **** 			//@{
 150:../../LUFA-111009/LUFA/Drivers/USB/Core/AVR8/../AVR8/Endpoint_AVR8.h **** 			/** Mask for the bank mode selection for the \ref Endpoint_ConfigureEndpoint() macro. This indic
 151:../../LUFA-111009/LUFA/Drivers/USB/Core/AVR8/../AVR8/Endpoint_AVR8.h **** 			 *  that the endpoint should have one single bank, which requires less USB FIFO memory but resul
 152:../../LUFA-111009/LUFA/Drivers/USB/Core/AVR8/../AVR8/Endpoint_AVR8.h **** 			 *  in slower transfers as only one USB device (the AVR or the host) can access the endpoint's
 153:../../LUFA-111009/LUFA/Drivers/USB/Core/AVR8/../AVR8/Endpoint_AVR8.h **** 			 *  bank at the one time.
 154:../../LUFA-111009/LUFA/Drivers/USB/Core/AVR8/../AVR8/Endpoint_AVR8.h **** 			 */
 155:../../LUFA-111009/LUFA/Drivers/USB/Core/AVR8/../AVR8/Endpoint_AVR8.h **** 			#define ENDPOINT_BANK_SINGLE                    (0 << EPBK0)
 156:../../LUFA-111009/LUFA/Drivers/USB/Core/AVR8/../AVR8/Endpoint_AVR8.h **** 
 157:../../LUFA-111009/LUFA/Drivers/USB/Core/AVR8/../AVR8/Endpoint_AVR8.h **** 			/** Mask for the bank mode selection for the \ref Endpoint_ConfigureEndpoint() macro. This indic
 158:../../LUFA-111009/LUFA/Drivers/USB/Core/AVR8/../AVR8/Endpoint_AVR8.h **** 			 *  that the endpoint should have two banks, which requires more USB FIFO memory but results
 159:../../LUFA-111009/LUFA/Drivers/USB/Core/AVR8/../AVR8/Endpoint_AVR8.h **** 			 *  in faster transfers as one USB device (the AVR or the host) can access one bank while the ot
 160:../../LUFA-111009/LUFA/Drivers/USB/Core/AVR8/../AVR8/Endpoint_AVR8.h **** 			 *  accesses the second bank.
 161:../../LUFA-111009/LUFA/Drivers/USB/Core/AVR8/../AVR8/Endpoint_AVR8.h **** 			 */
 162:../../LUFA-111009/LUFA/Drivers/USB/Core/AVR8/../AVR8/Endpoint_AVR8.h **** 			#define ENDPOINT_BANK_DOUBLE                    (1 << EPBK0)
 163:../../LUFA-111009/LUFA/Drivers/USB/Core/AVR8/../AVR8/Endpoint_AVR8.h **** 			//@}
 164:../../LUFA-111009/LUFA/Drivers/USB/Core/AVR8/../AVR8/Endpoint_AVR8.h **** 
 165:../../LUFA-111009/LUFA/Drivers/USB/Core/AVR8/../AVR8/Endpoint_AVR8.h **** 			#if (!defined(FIXED_CONTROL_ENDPOINT_SIZE) || defined(__DOXYGEN__))
 166:../../LUFA-111009/LUFA/Drivers/USB/Core/AVR8/../AVR8/Endpoint_AVR8.h **** 				/** Default size of the default control endpoint's bank, until altered by the control endpoint 
 167:../../LUFA-111009/LUFA/Drivers/USB/Core/AVR8/../AVR8/Endpoint_AVR8.h **** 				 *  value in the device descriptor. Not available if the \c FIXED_CONTROL_ENDPOINT_SIZE token i
 168:../../LUFA-111009/LUFA/Drivers/USB/Core/AVR8/../AVR8/Endpoint_AVR8.h **** 				 */
 169:../../LUFA-111009/LUFA/Drivers/USB/Core/AVR8/../AVR8/Endpoint_AVR8.h **** 				#define ENDPOINT_CONTROLEP_DEFAULT_SIZE     8
 170:../../LUFA-111009/LUFA/Drivers/USB/Core/AVR8/../AVR8/Endpoint_AVR8.h **** 			#endif
 171:../../LUFA-111009/LUFA/Drivers/USB/Core/AVR8/../AVR8/Endpoint_AVR8.h **** 
 172:../../LUFA-111009/LUFA/Drivers/USB/Core/AVR8/../AVR8/Endpoint_AVR8.h **** 			/** Retrieves the maximum bank size in bytes of a given endpoint.
 173:../../LUFA-111009/LUFA/Drivers/USB/Core/AVR8/../AVR8/Endpoint_AVR8.h **** 			 *
 174:../../LUFA-111009/LUFA/Drivers/USB/Core/AVR8/../AVR8/Endpoint_AVR8.h **** 			 *  \note This macro will only work correctly on endpoint indexes that are compile-time constant
 175:../../LUFA-111009/LUFA/Drivers/USB/Core/AVR8/../AVR8/Endpoint_AVR8.h **** 			 *        defined by the preprocessor.
 176:../../LUFA-111009/LUFA/Drivers/USB/Core/AVR8/../AVR8/Endpoint_AVR8.h **** 			 *
 177:../../LUFA-111009/LUFA/Drivers/USB/Core/AVR8/../AVR8/Endpoint_AVR8.h **** 			 *  \param[in] EPIndex  Endpoint number, a value between 0 and (\ref ENDPOINT_TOTAL_ENDPOINTS - 
 178:../../LUFA-111009/LUFA/Drivers/USB/Core/AVR8/../AVR8/Endpoint_AVR8.h **** 			 */
 179:../../LUFA-111009/LUFA/Drivers/USB/Core/AVR8/../AVR8/Endpoint_AVR8.h **** 			#define ENDPOINT_MAX_SIZE(EPIndex)              _ENDPOINT_GET_MAXSIZE(EPIndex)
 180:../../LUFA-111009/LUFA/Drivers/USB/Core/AVR8/../AVR8/Endpoint_AVR8.h **** 
 181:../../LUFA-111009/LUFA/Drivers/USB/Core/AVR8/../AVR8/Endpoint_AVR8.h **** 			/** Retrieves the total number of banks supported by the given endpoint.
 182:../../LUFA-111009/LUFA/Drivers/USB/Core/AVR8/../AVR8/Endpoint_AVR8.h **** 			 *
 183:../../LUFA-111009/LUFA/Drivers/USB/Core/AVR8/../AVR8/Endpoint_AVR8.h **** 			 *  \note This macro will only work correctly on endpoint indexes that are compile-time constant
 184:../../LUFA-111009/LUFA/Drivers/USB/Core/AVR8/../AVR8/Endpoint_AVR8.h **** 			 *        defined by the preprocessor.
 185:../../LUFA-111009/LUFA/Drivers/USB/Core/AVR8/../AVR8/Endpoint_AVR8.h **** 			 *
 186:../../LUFA-111009/LUFA/Drivers/USB/Core/AVR8/../AVR8/Endpoint_AVR8.h **** 			 *  \param[in] EPIndex  Endpoint number, a value between 0 and (\ref ENDPOINT_TOTAL_ENDPOINTS - 
 187:../../LUFA-111009/LUFA/Drivers/USB/Core/AVR8/../AVR8/Endpoint_AVR8.h **** 			 */
 188:../../LUFA-111009/LUFA/Drivers/USB/Core/AVR8/../AVR8/Endpoint_AVR8.h **** 			#define ENDPOINT_BANKS_SUPPORTED(EPIndex)       _ENDPOINT_GET_BANKS(EPIndex)
 189:../../LUFA-111009/LUFA/Drivers/USB/Core/AVR8/../AVR8/Endpoint_AVR8.h **** 
 190:../../LUFA-111009/LUFA/Drivers/USB/Core/AVR8/../AVR8/Endpoint_AVR8.h **** 			#if !defined(CONTROL_ONLY_DEVICE) || defined(__DOXYGEN__)
 191:../../LUFA-111009/LUFA/Drivers/USB/Core/AVR8/../AVR8/Endpoint_AVR8.h **** 				/** Total number of endpoints (including the default control endpoint at address 0) which may
 192:../../LUFA-111009/LUFA/Drivers/USB/Core/AVR8/../AVR8/Endpoint_AVR8.h **** 				 *  be used in the device. Different USB AVR models support different amounts of endpoints,
 193:../../LUFA-111009/LUFA/Drivers/USB/Core/AVR8/../AVR8/Endpoint_AVR8.h **** 				 *  this value reflects the maximum number of endpoints for the currently selected AVR model.
 194:../../LUFA-111009/LUFA/Drivers/USB/Core/AVR8/../AVR8/Endpoint_AVR8.h **** 				 */
 195:../../LUFA-111009/LUFA/Drivers/USB/Core/AVR8/../AVR8/Endpoint_AVR8.h **** 				#define ENDPOINT_TOTAL_ENDPOINTS            ENDPOINT_DETAILS_MAXEP
 196:../../LUFA-111009/LUFA/Drivers/USB/Core/AVR8/../AVR8/Endpoint_AVR8.h **** 			#else
 197:../../LUFA-111009/LUFA/Drivers/USB/Core/AVR8/../AVR8/Endpoint_AVR8.h **** 				#define ENDPOINT_TOTAL_ENDPOINTS            1
 198:../../LUFA-111009/LUFA/Drivers/USB/Core/AVR8/../AVR8/Endpoint_AVR8.h **** 			#endif
 199:../../LUFA-111009/LUFA/Drivers/USB/Core/AVR8/../AVR8/Endpoint_AVR8.h **** 
 200:../../LUFA-111009/LUFA/Drivers/USB/Core/AVR8/../AVR8/Endpoint_AVR8.h **** 		/* Enums: */
 201:../../LUFA-111009/LUFA/Drivers/USB/Core/AVR8/../AVR8/Endpoint_AVR8.h **** 			/** Enum for the possible error return codes of the \ref Endpoint_WaitUntilReady() function.
 202:../../LUFA-111009/LUFA/Drivers/USB/Core/AVR8/../AVR8/Endpoint_AVR8.h **** 			 *
 203:../../LUFA-111009/LUFA/Drivers/USB/Core/AVR8/../AVR8/Endpoint_AVR8.h **** 			 *  \ingroup Group_EndpointRW_AVR8
 204:../../LUFA-111009/LUFA/Drivers/USB/Core/AVR8/../AVR8/Endpoint_AVR8.h **** 			 */
 205:../../LUFA-111009/LUFA/Drivers/USB/Core/AVR8/../AVR8/Endpoint_AVR8.h **** 			enum Endpoint_WaitUntilReady_ErrorCodes_t
 206:../../LUFA-111009/LUFA/Drivers/USB/Core/AVR8/../AVR8/Endpoint_AVR8.h **** 			{
 207:../../LUFA-111009/LUFA/Drivers/USB/Core/AVR8/../AVR8/Endpoint_AVR8.h **** 				ENDPOINT_READYWAIT_NoError                 = 0, /**< Endpoint is ready for next packet, no erro
 208:../../LUFA-111009/LUFA/Drivers/USB/Core/AVR8/../AVR8/Endpoint_AVR8.h **** 				ENDPOINT_READYWAIT_EndpointStalled         = 1, /**< The endpoint was stalled during the stream
 209:../../LUFA-111009/LUFA/Drivers/USB/Core/AVR8/../AVR8/Endpoint_AVR8.h **** 				                                                 *   transfer by the host or device.
 210:../../LUFA-111009/LUFA/Drivers/USB/Core/AVR8/../AVR8/Endpoint_AVR8.h **** 				                                                 */
 211:../../LUFA-111009/LUFA/Drivers/USB/Core/AVR8/../AVR8/Endpoint_AVR8.h **** 				ENDPOINT_READYWAIT_DeviceDisconnected      = 2,	/**< Device was disconnected from the host whil
 212:../../LUFA-111009/LUFA/Drivers/USB/Core/AVR8/../AVR8/Endpoint_AVR8.h **** 				                                                 *   waiting for the endpoint to become ready.
 213:../../LUFA-111009/LUFA/Drivers/USB/Core/AVR8/../AVR8/Endpoint_AVR8.h **** 				                                                 */
 214:../../LUFA-111009/LUFA/Drivers/USB/Core/AVR8/../AVR8/Endpoint_AVR8.h **** 				ENDPOINT_READYWAIT_BusSuspended            = 3, /**< The USB bus has been suspended by the host
 215:../../LUFA-111009/LUFA/Drivers/USB/Core/AVR8/../AVR8/Endpoint_AVR8.h **** 				                                                 *   no USB endpoint traffic can occur until th
 216:../../LUFA-111009/LUFA/Drivers/USB/Core/AVR8/../AVR8/Endpoint_AVR8.h **** 				                                                 *   has resumed.
 217:../../LUFA-111009/LUFA/Drivers/USB/Core/AVR8/../AVR8/Endpoint_AVR8.h **** 				                                                 */
 218:../../LUFA-111009/LUFA/Drivers/USB/Core/AVR8/../AVR8/Endpoint_AVR8.h **** 				ENDPOINT_READYWAIT_Timeout                 = 4, /**< The host failed to accept or send the next
 219:../../LUFA-111009/LUFA/Drivers/USB/Core/AVR8/../AVR8/Endpoint_AVR8.h **** 				                                                 *   within the software timeout period set by 
 220:../../LUFA-111009/LUFA/Drivers/USB/Core/AVR8/../AVR8/Endpoint_AVR8.h **** 				                                                 *   \ref USB_STREAM_TIMEOUT_MS macro.
 221:../../LUFA-111009/LUFA/Drivers/USB/Core/AVR8/../AVR8/Endpoint_AVR8.h **** 				                                                 */
 222:../../LUFA-111009/LUFA/Drivers/USB/Core/AVR8/../AVR8/Endpoint_AVR8.h **** 			};
 223:../../LUFA-111009/LUFA/Drivers/USB/Core/AVR8/../AVR8/Endpoint_AVR8.h **** 
 224:../../LUFA-111009/LUFA/Drivers/USB/Core/AVR8/../AVR8/Endpoint_AVR8.h **** 		/* Inline Functions: */
 225:../../LUFA-111009/LUFA/Drivers/USB/Core/AVR8/../AVR8/Endpoint_AVR8.h **** 			/** Configures the specified endpoint number with the given endpoint type, direction, bank size
 226:../../LUFA-111009/LUFA/Drivers/USB/Core/AVR8/../AVR8/Endpoint_AVR8.h **** 			 *  and banking mode. Once configured, the endpoint may be read from or written to, depending
 227:../../LUFA-111009/LUFA/Drivers/USB/Core/AVR8/../AVR8/Endpoint_AVR8.h **** 			 *  on its direction.
 228:../../LUFA-111009/LUFA/Drivers/USB/Core/AVR8/../AVR8/Endpoint_AVR8.h **** 			 *
 229:../../LUFA-111009/LUFA/Drivers/USB/Core/AVR8/../AVR8/Endpoint_AVR8.h **** 			 *  \param[in] Number     Endpoint number to configure. This must be more than 0 and less than
 230:../../LUFA-111009/LUFA/Drivers/USB/Core/AVR8/../AVR8/Endpoint_AVR8.h **** 			 *                        \ref ENDPOINT_TOTAL_ENDPOINTS.
 231:../../LUFA-111009/LUFA/Drivers/USB/Core/AVR8/../AVR8/Endpoint_AVR8.h **** 			 *
 232:../../LUFA-111009/LUFA/Drivers/USB/Core/AVR8/../AVR8/Endpoint_AVR8.h **** 			 *  \param[in] Type       Type of endpoint to configure, a \c EP_TYPE_* mask. Not all endpoint t
 233:../../LUFA-111009/LUFA/Drivers/USB/Core/AVR8/../AVR8/Endpoint_AVR8.h **** 			 *                        are available on Low Speed USB devices - refer to the USB 2.0 specific
 234:../../LUFA-111009/LUFA/Drivers/USB/Core/AVR8/../AVR8/Endpoint_AVR8.h **** 			 *
 235:../../LUFA-111009/LUFA/Drivers/USB/Core/AVR8/../AVR8/Endpoint_AVR8.h **** 			 *  \param[in] Direction  Endpoint data direction, either \ref ENDPOINT_DIR_OUT or \ref ENDPOINT
 236:../../LUFA-111009/LUFA/Drivers/USB/Core/AVR8/../AVR8/Endpoint_AVR8.h **** 			 *                        All endpoints (except Control type) are unidirectional - data may only
 237:../../LUFA-111009/LUFA/Drivers/USB/Core/AVR8/../AVR8/Endpoint_AVR8.h **** 			 *                        from or written to the endpoint bank based on its direction, not both.
 238:../../LUFA-111009/LUFA/Drivers/USB/Core/AVR8/../AVR8/Endpoint_AVR8.h **** 			 *
 239:../../LUFA-111009/LUFA/Drivers/USB/Core/AVR8/../AVR8/Endpoint_AVR8.h **** 			 *  \param[in] Size       Size of the endpoint's bank, where packets are stored before they are 
 240:../../LUFA-111009/LUFA/Drivers/USB/Core/AVR8/../AVR8/Endpoint_AVR8.h **** 			 *                        to the USB host, or after they have been received from the USB host (d
 241:../../LUFA-111009/LUFA/Drivers/USB/Core/AVR8/../AVR8/Endpoint_AVR8.h **** 			 *                        the endpoint's data direction). The bank size must indicate the maximu
 242:../../LUFA-111009/LUFA/Drivers/USB/Core/AVR8/../AVR8/Endpoint_AVR8.h **** 			 *                        that the endpoint can handle.
 243:../../LUFA-111009/LUFA/Drivers/USB/Core/AVR8/../AVR8/Endpoint_AVR8.h **** 			 *
 244:../../LUFA-111009/LUFA/Drivers/USB/Core/AVR8/../AVR8/Endpoint_AVR8.h **** 			 *  \param[in] Banks      Number of banks to use for the endpoint being configured, an \c ENDPOI
 245:../../LUFA-111009/LUFA/Drivers/USB/Core/AVR8/../AVR8/Endpoint_AVR8.h **** 			 *                        More banks uses more USB DPRAM, but offers better performance. Isochro
 246:../../LUFA-111009/LUFA/Drivers/USB/Core/AVR8/../AVR8/Endpoint_AVR8.h **** 			 *                        endpoints <b>must</b> have at least two banks.
 247:../../LUFA-111009/LUFA/Drivers/USB/Core/AVR8/../AVR8/Endpoint_AVR8.h **** 			 *
 248:../../LUFA-111009/LUFA/Drivers/USB/Core/AVR8/../AVR8/Endpoint_AVR8.h **** 			 *  \note When the \c ORDERED_EP_CONFIG compile time option is used, Endpoints <b>must</b> be co
 249:../../LUFA-111009/LUFA/Drivers/USB/Core/AVR8/../AVR8/Endpoint_AVR8.h **** 			 *        ascending order, or bank corruption will occur.
 250:../../LUFA-111009/LUFA/Drivers/USB/Core/AVR8/../AVR8/Endpoint_AVR8.h **** 			 *        \n\n
 251:../../LUFA-111009/LUFA/Drivers/USB/Core/AVR8/../AVR8/Endpoint_AVR8.h **** 			 *
 252:../../LUFA-111009/LUFA/Drivers/USB/Core/AVR8/../AVR8/Endpoint_AVR8.h **** 			 *  \note Different endpoints may have different maximum packet sizes based on the endpoint's in
 253:../../LUFA-111009/LUFA/Drivers/USB/Core/AVR8/../AVR8/Endpoint_AVR8.h **** 			 *        the chosen microcontroller model's datasheet to determine the maximum bank size for ea
 254:../../LUFA-111009/LUFA/Drivers/USB/Core/AVR8/../AVR8/Endpoint_AVR8.h **** 			 *        \n\n
 255:../../LUFA-111009/LUFA/Drivers/USB/Core/AVR8/../AVR8/Endpoint_AVR8.h **** 			 *
 256:../../LUFA-111009/LUFA/Drivers/USB/Core/AVR8/../AVR8/Endpoint_AVR8.h **** 			 *  \note The default control endpoint should not be manually configured by the user application
 257:../../LUFA-111009/LUFA/Drivers/USB/Core/AVR8/../AVR8/Endpoint_AVR8.h **** 			 *        it is automatically configured by the library internally.
 258:../../LUFA-111009/LUFA/Drivers/USB/Core/AVR8/../AVR8/Endpoint_AVR8.h **** 			 *        \n\n
 259:../../LUFA-111009/LUFA/Drivers/USB/Core/AVR8/../AVR8/Endpoint_AVR8.h **** 			 *
 260:../../LUFA-111009/LUFA/Drivers/USB/Core/AVR8/../AVR8/Endpoint_AVR8.h **** 			 *  \note This routine will automatically select the specified endpoint upon success. Upon failu
 261:../../LUFA-111009/LUFA/Drivers/USB/Core/AVR8/../AVR8/Endpoint_AVR8.h **** 			 *        which failed to reconfigure correctly will be selected.
 262:../../LUFA-111009/LUFA/Drivers/USB/Core/AVR8/../AVR8/Endpoint_AVR8.h **** 			 *
 263:../../LUFA-111009/LUFA/Drivers/USB/Core/AVR8/../AVR8/Endpoint_AVR8.h **** 			 *  \return Boolean \c true if the configuration succeeded, \c false otherwise.
 264:../../LUFA-111009/LUFA/Drivers/USB/Core/AVR8/../AVR8/Endpoint_AVR8.h **** 			 */
 265:../../LUFA-111009/LUFA/Drivers/USB/Core/AVR8/../AVR8/Endpoint_AVR8.h **** 			static inline bool Endpoint_ConfigureEndpoint(const uint8_t Number,
 266:../../LUFA-111009/LUFA/Drivers/USB/Core/AVR8/../AVR8/Endpoint_AVR8.h **** 			                                              const uint8_t Type,
 267:../../LUFA-111009/LUFA/Drivers/USB/Core/AVR8/../AVR8/Endpoint_AVR8.h **** 			                                              const uint8_t Direction,
 268:../../LUFA-111009/LUFA/Drivers/USB/Core/AVR8/../AVR8/Endpoint_AVR8.h **** 			                                              const uint16_t Size,
 269:../../LUFA-111009/LUFA/Drivers/USB/Core/AVR8/../AVR8/Endpoint_AVR8.h **** 			                                              const uint8_t Banks) ATTR_ALWAYS_INLINE;
 270:../../LUFA-111009/LUFA/Drivers/USB/Core/AVR8/../AVR8/Endpoint_AVR8.h **** 			static inline bool Endpoint_ConfigureEndpoint(const uint8_t Number,
 271:../../LUFA-111009/LUFA/Drivers/USB/Core/AVR8/../AVR8/Endpoint_AVR8.h **** 			                                              const uint8_t Type,
 272:../../LUFA-111009/LUFA/Drivers/USB/Core/AVR8/../AVR8/Endpoint_AVR8.h **** 			                                              const uint8_t Direction,
 273:../../LUFA-111009/LUFA/Drivers/USB/Core/AVR8/../AVR8/Endpoint_AVR8.h **** 			                                              const uint16_t Size,
 274:../../LUFA-111009/LUFA/Drivers/USB/Core/AVR8/../AVR8/Endpoint_AVR8.h **** 			                                              const uint8_t Banks)
 275:../../LUFA-111009/LUFA/Drivers/USB/Core/AVR8/../AVR8/Endpoint_AVR8.h **** 			{
 276:../../LUFA-111009/LUFA/Drivers/USB/Core/AVR8/../AVR8/Endpoint_AVR8.h **** 				return Endpoint_ConfigureEndpoint_Prv(Number, ((Type << EPTYPE0) | (Direction ? (1 << EPDIR) : 
 277:../../LUFA-111009/LUFA/Drivers/USB/Core/AVR8/../AVR8/Endpoint_AVR8.h **** 				                                      ((1 << ALLOC) | Banks | Endpoint_BytesToEPSizeMask(Size))
 278:../../LUFA-111009/LUFA/Drivers/USB/Core/AVR8/../AVR8/Endpoint_AVR8.h **** 			}
 279:../../LUFA-111009/LUFA/Drivers/USB/Core/AVR8/../AVR8/Endpoint_AVR8.h **** 
 280:../../LUFA-111009/LUFA/Drivers/USB/Core/AVR8/../AVR8/Endpoint_AVR8.h **** 			/** Indicates the number of bytes currently stored in the current endpoint's selected bank.
 281:../../LUFA-111009/LUFA/Drivers/USB/Core/AVR8/../AVR8/Endpoint_AVR8.h **** 			 *
 282:../../LUFA-111009/LUFA/Drivers/USB/Core/AVR8/../AVR8/Endpoint_AVR8.h **** 			 *  \note The return width of this function may differ, depending on the maximum endpoint bank s
 283:../../LUFA-111009/LUFA/Drivers/USB/Core/AVR8/../AVR8/Endpoint_AVR8.h **** 			 *        of the selected AVR model.
 284:../../LUFA-111009/LUFA/Drivers/USB/Core/AVR8/../AVR8/Endpoint_AVR8.h **** 			 *
 285:../../LUFA-111009/LUFA/Drivers/USB/Core/AVR8/../AVR8/Endpoint_AVR8.h **** 			 *  \ingroup Group_EndpointRW_AVR8
 286:../../LUFA-111009/LUFA/Drivers/USB/Core/AVR8/../AVR8/Endpoint_AVR8.h **** 			 *
 287:../../LUFA-111009/LUFA/Drivers/USB/Core/AVR8/../AVR8/Endpoint_AVR8.h **** 			 *  \return Total number of bytes in the currently selected Endpoint's FIFO buffer.
 288:../../LUFA-111009/LUFA/Drivers/USB/Core/AVR8/../AVR8/Endpoint_AVR8.h **** 			 */
 289:../../LUFA-111009/LUFA/Drivers/USB/Core/AVR8/../AVR8/Endpoint_AVR8.h **** 			static inline uint16_t Endpoint_BytesInEndpoint(void) ATTR_WARN_UNUSED_RESULT ATTR_ALWAYS_INLINE
 290:../../LUFA-111009/LUFA/Drivers/USB/Core/AVR8/../AVR8/Endpoint_AVR8.h **** 			static inline uint16_t Endpoint_BytesInEndpoint(void)
 291:../../LUFA-111009/LUFA/Drivers/USB/Core/AVR8/../AVR8/Endpoint_AVR8.h **** 			{
 292:../../LUFA-111009/LUFA/Drivers/USB/Core/AVR8/../AVR8/Endpoint_AVR8.h **** 				#if defined(USB_SERIES_6_AVR) || defined(USB_SERIES_7_AVR)
 293:../../LUFA-111009/LUFA/Drivers/USB/Core/AVR8/../AVR8/Endpoint_AVR8.h **** 					return UEBCX;
 294:../../LUFA-111009/LUFA/Drivers/USB/Core/AVR8/../AVR8/Endpoint_AVR8.h **** 				#elif defined(USB_SERIES_4_AVR)
 295:../../LUFA-111009/LUFA/Drivers/USB/Core/AVR8/../AVR8/Endpoint_AVR8.h **** 					return (((uint16_t)UEBCHX << 8) | UEBCLX);
 296:../../LUFA-111009/LUFA/Drivers/USB/Core/AVR8/../AVR8/Endpoint_AVR8.h **** 				#elif defined(USB_SERIES_2_AVR)
 297:../../LUFA-111009/LUFA/Drivers/USB/Core/AVR8/../AVR8/Endpoint_AVR8.h **** 					return UEBCLX;
 298:../../LUFA-111009/LUFA/Drivers/USB/Core/AVR8/../AVR8/Endpoint_AVR8.h **** 				#endif
 299:../../LUFA-111009/LUFA/Drivers/USB/Core/AVR8/../AVR8/Endpoint_AVR8.h **** 			}
 300:../../LUFA-111009/LUFA/Drivers/USB/Core/AVR8/../AVR8/Endpoint_AVR8.h **** 
 301:../../LUFA-111009/LUFA/Drivers/USB/Core/AVR8/../AVR8/Endpoint_AVR8.h **** 			/** Get the endpoint address of the currently selected endpoint. This is typically used to save
 302:../../LUFA-111009/LUFA/Drivers/USB/Core/AVR8/../AVR8/Endpoint_AVR8.h **** 			 *  the currently selected endpoint number so that it can be restored after another endpoint has
 303:../../LUFA-111009/LUFA/Drivers/USB/Core/AVR8/../AVR8/Endpoint_AVR8.h **** 			 *  been manipulated.
 304:../../LUFA-111009/LUFA/Drivers/USB/Core/AVR8/../AVR8/Endpoint_AVR8.h **** 			 *
 305:../../LUFA-111009/LUFA/Drivers/USB/Core/AVR8/../AVR8/Endpoint_AVR8.h **** 			 *  \return Index of the currently selected endpoint.
 306:../../LUFA-111009/LUFA/Drivers/USB/Core/AVR8/../AVR8/Endpoint_AVR8.h **** 			 */
 307:../../LUFA-111009/LUFA/Drivers/USB/Core/AVR8/../AVR8/Endpoint_AVR8.h **** 			static inline uint8_t Endpoint_GetCurrentEndpoint(void) ATTR_WARN_UNUSED_RESULT ATTR_ALWAYS_INLI
 308:../../LUFA-111009/LUFA/Drivers/USB/Core/AVR8/../AVR8/Endpoint_AVR8.h **** 			static inline uint8_t Endpoint_GetCurrentEndpoint(void)
 309:../../LUFA-111009/LUFA/Drivers/USB/Core/AVR8/../AVR8/Endpoint_AVR8.h **** 			{
 310:../../LUFA-111009/LUFA/Drivers/USB/Core/AVR8/../AVR8/Endpoint_AVR8.h **** 				#if !defined(CONTROL_ONLY_DEVICE)
 311:../../LUFA-111009/LUFA/Drivers/USB/Core/AVR8/../AVR8/Endpoint_AVR8.h **** 					return (UENUM & ENDPOINT_EPNUM_MASK);
 312:../../LUFA-111009/LUFA/Drivers/USB/Core/AVR8/../AVR8/Endpoint_AVR8.h **** 				#else
 313:../../LUFA-111009/LUFA/Drivers/USB/Core/AVR8/../AVR8/Endpoint_AVR8.h **** 					return ENDPOINT_CONTROLEP;
 314:../../LUFA-111009/LUFA/Drivers/USB/Core/AVR8/../AVR8/Endpoint_AVR8.h **** 				#endif
 315:../../LUFA-111009/LUFA/Drivers/USB/Core/AVR8/../AVR8/Endpoint_AVR8.h **** 			}
 316:../../LUFA-111009/LUFA/Drivers/USB/Core/AVR8/../AVR8/Endpoint_AVR8.h **** 
 317:../../LUFA-111009/LUFA/Drivers/USB/Core/AVR8/../AVR8/Endpoint_AVR8.h **** 			/** Selects the given endpoint number. If the address from the device descriptors is used, the
 318:../../LUFA-111009/LUFA/Drivers/USB/Core/AVR8/../AVR8/Endpoint_AVR8.h **** 			 *  value should be masked with the \ref ENDPOINT_EPNUM_MASK constant to extract only the endpoi
 319:../../LUFA-111009/LUFA/Drivers/USB/Core/AVR8/../AVR8/Endpoint_AVR8.h **** 			 *  number (and discarding the endpoint direction bit).
 320:../../LUFA-111009/LUFA/Drivers/USB/Core/AVR8/../AVR8/Endpoint_AVR8.h **** 			 *
 321:../../LUFA-111009/LUFA/Drivers/USB/Core/AVR8/../AVR8/Endpoint_AVR8.h **** 			 *  Any endpoint operations which do not require the endpoint number to be indicated will operat
 322:../../LUFA-111009/LUFA/Drivers/USB/Core/AVR8/../AVR8/Endpoint_AVR8.h **** 			 *  the currently selected endpoint.
 323:../../LUFA-111009/LUFA/Drivers/USB/Core/AVR8/../AVR8/Endpoint_AVR8.h **** 			 *
 324:../../LUFA-111009/LUFA/Drivers/USB/Core/AVR8/../AVR8/Endpoint_AVR8.h **** 			 *  \param[in] EndpointNumber Endpoint number to select.
 325:../../LUFA-111009/LUFA/Drivers/USB/Core/AVR8/../AVR8/Endpoint_AVR8.h **** 			 */
 326:../../LUFA-111009/LUFA/Drivers/USB/Core/AVR8/../AVR8/Endpoint_AVR8.h **** 			static inline void Endpoint_SelectEndpoint(const uint8_t EndpointNumber) ATTR_ALWAYS_INLINE;
 327:../../LUFA-111009/LUFA/Drivers/USB/Core/AVR8/../AVR8/Endpoint_AVR8.h **** 			static inline void Endpoint_SelectEndpoint(const uint8_t EndpointNumber)
 328:../../LUFA-111009/LUFA/Drivers/USB/Core/AVR8/../AVR8/Endpoint_AVR8.h **** 			{
 329:../../LUFA-111009/LUFA/Drivers/USB/Core/AVR8/../AVR8/Endpoint_AVR8.h **** 				#if !defined(CONTROL_ONLY_DEVICE)
 330:../../LUFA-111009/LUFA/Drivers/USB/Core/AVR8/../AVR8/Endpoint_AVR8.h **** 					UENUM = EndpointNumber;
 331:../../LUFA-111009/LUFA/Drivers/USB/Core/AVR8/../AVR8/Endpoint_AVR8.h **** 				#endif
 332:../../LUFA-111009/LUFA/Drivers/USB/Core/AVR8/../AVR8/Endpoint_AVR8.h **** 			}
 333:../../LUFA-111009/LUFA/Drivers/USB/Core/AVR8/../AVR8/Endpoint_AVR8.h **** 
 334:../../LUFA-111009/LUFA/Drivers/USB/Core/AVR8/../AVR8/Endpoint_AVR8.h **** 			/** Resets the endpoint bank FIFO. This clears all the endpoint banks and resets the USB control
 335:../../LUFA-111009/LUFA/Drivers/USB/Core/AVR8/../AVR8/Endpoint_AVR8.h **** 			 *  data In and Out pointers to the bank's contents.
 336:../../LUFA-111009/LUFA/Drivers/USB/Core/AVR8/../AVR8/Endpoint_AVR8.h **** 			 *
 337:../../LUFA-111009/LUFA/Drivers/USB/Core/AVR8/../AVR8/Endpoint_AVR8.h **** 			 *  \param[in] EndpointNumber Endpoint number whose FIFO buffers are to be reset.
 338:../../LUFA-111009/LUFA/Drivers/USB/Core/AVR8/../AVR8/Endpoint_AVR8.h **** 			 */
 339:../../LUFA-111009/LUFA/Drivers/USB/Core/AVR8/../AVR8/Endpoint_AVR8.h **** 			static inline void Endpoint_ResetEndpoint(const uint8_t EndpointNumber) ATTR_ALWAYS_INLINE;
 340:../../LUFA-111009/LUFA/Drivers/USB/Core/AVR8/../AVR8/Endpoint_AVR8.h **** 			static inline void Endpoint_ResetEndpoint(const uint8_t EndpointNumber)
 341:../../LUFA-111009/LUFA/Drivers/USB/Core/AVR8/../AVR8/Endpoint_AVR8.h **** 			{
 342:../../LUFA-111009/LUFA/Drivers/USB/Core/AVR8/../AVR8/Endpoint_AVR8.h **** 				UERST = (1 << EndpointNumber);
 343:../../LUFA-111009/LUFA/Drivers/USB/Core/AVR8/../AVR8/Endpoint_AVR8.h **** 				UERST = 0;
 344:../../LUFA-111009/LUFA/Drivers/USB/Core/AVR8/../AVR8/Endpoint_AVR8.h **** 			}
 345:../../LUFA-111009/LUFA/Drivers/USB/Core/AVR8/../AVR8/Endpoint_AVR8.h **** 
 346:../../LUFA-111009/LUFA/Drivers/USB/Core/AVR8/../AVR8/Endpoint_AVR8.h **** 			/** Enables the currently selected endpoint so that data can be sent and received through it to
 347:../../LUFA-111009/LUFA/Drivers/USB/Core/AVR8/../AVR8/Endpoint_AVR8.h **** 			 *  and from a host.
 348:../../LUFA-111009/LUFA/Drivers/USB/Core/AVR8/../AVR8/Endpoint_AVR8.h **** 			 *
 349:../../LUFA-111009/LUFA/Drivers/USB/Core/AVR8/../AVR8/Endpoint_AVR8.h **** 			 *  \note Endpoints must first be configured properly via \ref Endpoint_ConfigureEndpoint().
 350:../../LUFA-111009/LUFA/Drivers/USB/Core/AVR8/../AVR8/Endpoint_AVR8.h **** 			 */
 351:../../LUFA-111009/LUFA/Drivers/USB/Core/AVR8/../AVR8/Endpoint_AVR8.h **** 			static inline void Endpoint_EnableEndpoint(void) ATTR_ALWAYS_INLINE;
 352:../../LUFA-111009/LUFA/Drivers/USB/Core/AVR8/../AVR8/Endpoint_AVR8.h **** 			static inline void Endpoint_EnableEndpoint(void)
 353:../../LUFA-111009/LUFA/Drivers/USB/Core/AVR8/../AVR8/Endpoint_AVR8.h **** 			{
 354:../../LUFA-111009/LUFA/Drivers/USB/Core/AVR8/../AVR8/Endpoint_AVR8.h **** 				UECONX |= (1 << EPEN);
 355:../../LUFA-111009/LUFA/Drivers/USB/Core/AVR8/../AVR8/Endpoint_AVR8.h **** 			}
 356:../../LUFA-111009/LUFA/Drivers/USB/Core/AVR8/../AVR8/Endpoint_AVR8.h **** 
 357:../../LUFA-111009/LUFA/Drivers/USB/Core/AVR8/../AVR8/Endpoint_AVR8.h **** 			/** Disables the currently selected endpoint so that data cannot be sent and received through it
 358:../../LUFA-111009/LUFA/Drivers/USB/Core/AVR8/../AVR8/Endpoint_AVR8.h **** 			 *  to and from a host.
 359:../../LUFA-111009/LUFA/Drivers/USB/Core/AVR8/../AVR8/Endpoint_AVR8.h **** 			 */
 360:../../LUFA-111009/LUFA/Drivers/USB/Core/AVR8/../AVR8/Endpoint_AVR8.h **** 			static inline void Endpoint_DisableEndpoint(void) ATTR_ALWAYS_INLINE;
 361:../../LUFA-111009/LUFA/Drivers/USB/Core/AVR8/../AVR8/Endpoint_AVR8.h **** 			static inline void Endpoint_DisableEndpoint(void)
 362:../../LUFA-111009/LUFA/Drivers/USB/Core/AVR8/../AVR8/Endpoint_AVR8.h **** 			{
 363:../../LUFA-111009/LUFA/Drivers/USB/Core/AVR8/../AVR8/Endpoint_AVR8.h **** 				UECONX &= ~(1 << EPEN);
 364:../../LUFA-111009/LUFA/Drivers/USB/Core/AVR8/../AVR8/Endpoint_AVR8.h **** 			}
 365:../../LUFA-111009/LUFA/Drivers/USB/Core/AVR8/../AVR8/Endpoint_AVR8.h **** 
 366:../../LUFA-111009/LUFA/Drivers/USB/Core/AVR8/../AVR8/Endpoint_AVR8.h **** 			/** Determines if the currently selected endpoint is enabled, but not necessarily configured.
 367:../../LUFA-111009/LUFA/Drivers/USB/Core/AVR8/../AVR8/Endpoint_AVR8.h **** 			 *
 368:../../LUFA-111009/LUFA/Drivers/USB/Core/AVR8/../AVR8/Endpoint_AVR8.h **** 			 * \return Boolean \c true if the currently selected endpoint is enabled, \c false otherwise.
 369:../../LUFA-111009/LUFA/Drivers/USB/Core/AVR8/../AVR8/Endpoint_AVR8.h **** 			 */
 370:../../LUFA-111009/LUFA/Drivers/USB/Core/AVR8/../AVR8/Endpoint_AVR8.h **** 			static inline bool Endpoint_IsEnabled(void) ATTR_WARN_UNUSED_RESULT ATTR_ALWAYS_INLINE;
 371:../../LUFA-111009/LUFA/Drivers/USB/Core/AVR8/../AVR8/Endpoint_AVR8.h **** 			static inline bool Endpoint_IsEnabled(void)
 372:../../LUFA-111009/LUFA/Drivers/USB/Core/AVR8/../AVR8/Endpoint_AVR8.h **** 			{
 373:../../LUFA-111009/LUFA/Drivers/USB/Core/AVR8/../AVR8/Endpoint_AVR8.h **** 				return ((UECONX & (1 << EPEN)) ? true : false);
 374:../../LUFA-111009/LUFA/Drivers/USB/Core/AVR8/../AVR8/Endpoint_AVR8.h **** 			}
 375:../../LUFA-111009/LUFA/Drivers/USB/Core/AVR8/../AVR8/Endpoint_AVR8.h **** 
 376:../../LUFA-111009/LUFA/Drivers/USB/Core/AVR8/../AVR8/Endpoint_AVR8.h **** 			/** Retrieves the number of busy banks in the currently selected endpoint, which have been queue
 377:../../LUFA-111009/LUFA/Drivers/USB/Core/AVR8/../AVR8/Endpoint_AVR8.h **** 			 *  transmission via the \ref Endpoint_ClearIN() command, or are awaiting acknowledgement via th
 378:../../LUFA-111009/LUFA/Drivers/USB/Core/AVR8/../AVR8/Endpoint_AVR8.h **** 			 *  \ref Endpoint_ClearOUT() command.
 379:../../LUFA-111009/LUFA/Drivers/USB/Core/AVR8/../AVR8/Endpoint_AVR8.h **** 			 *
 380:../../LUFA-111009/LUFA/Drivers/USB/Core/AVR8/../AVR8/Endpoint_AVR8.h **** 			 *  \ingroup Group_EndpointPacketManagement_AVR8
 381:../../LUFA-111009/LUFA/Drivers/USB/Core/AVR8/../AVR8/Endpoint_AVR8.h **** 			 *
 382:../../LUFA-111009/LUFA/Drivers/USB/Core/AVR8/../AVR8/Endpoint_AVR8.h **** 			 *  \return Total number of busy banks in the selected endpoint.
 383:../../LUFA-111009/LUFA/Drivers/USB/Core/AVR8/../AVR8/Endpoint_AVR8.h **** 			 */
 384:../../LUFA-111009/LUFA/Drivers/USB/Core/AVR8/../AVR8/Endpoint_AVR8.h **** 			static inline uint8_t Endpoint_GetBusyBanks(void) ATTR_ALWAYS_INLINE ATTR_WARN_UNUSED_RESULT;
 385:../../LUFA-111009/LUFA/Drivers/USB/Core/AVR8/../AVR8/Endpoint_AVR8.h **** 			static inline uint8_t Endpoint_GetBusyBanks(void)
 386:../../LUFA-111009/LUFA/Drivers/USB/Core/AVR8/../AVR8/Endpoint_AVR8.h **** 			{
 387:../../LUFA-111009/LUFA/Drivers/USB/Core/AVR8/../AVR8/Endpoint_AVR8.h **** 				return (UESTA0X & (0x03 << NBUSYBK0));
 388:../../LUFA-111009/LUFA/Drivers/USB/Core/AVR8/../AVR8/Endpoint_AVR8.h **** 			}
 389:../../LUFA-111009/LUFA/Drivers/USB/Core/AVR8/../AVR8/Endpoint_AVR8.h **** 
 390:../../LUFA-111009/LUFA/Drivers/USB/Core/AVR8/../AVR8/Endpoint_AVR8.h **** 			/** Aborts all pending IN transactions on the currently selected endpoint, once the bank
 391:../../LUFA-111009/LUFA/Drivers/USB/Core/AVR8/../AVR8/Endpoint_AVR8.h **** 			 *  has been queued for transmission to the host via \ref Endpoint_ClearIN(). This function
 392:../../LUFA-111009/LUFA/Drivers/USB/Core/AVR8/../AVR8/Endpoint_AVR8.h **** 			 *  will terminate all queued transactions, resetting the endpoint banks ready for a new
 393:../../LUFA-111009/LUFA/Drivers/USB/Core/AVR8/../AVR8/Endpoint_AVR8.h **** 			 *  packet.
 394:../../LUFA-111009/LUFA/Drivers/USB/Core/AVR8/../AVR8/Endpoint_AVR8.h **** 			 *
 395:../../LUFA-111009/LUFA/Drivers/USB/Core/AVR8/../AVR8/Endpoint_AVR8.h **** 			 *  \ingroup Group_EndpointPacketManagement_AVR8
 396:../../LUFA-111009/LUFA/Drivers/USB/Core/AVR8/../AVR8/Endpoint_AVR8.h **** 			 */
 397:../../LUFA-111009/LUFA/Drivers/USB/Core/AVR8/../AVR8/Endpoint_AVR8.h **** 			static inline void Endpoint_AbortPendingIN(void)
 398:../../LUFA-111009/LUFA/Drivers/USB/Core/AVR8/../AVR8/Endpoint_AVR8.h **** 			{
 399:../../LUFA-111009/LUFA/Drivers/USB/Core/AVR8/../AVR8/Endpoint_AVR8.h **** 				while (Endpoint_GetBusyBanks() != 0)
 400:../../LUFA-111009/LUFA/Drivers/USB/Core/AVR8/../AVR8/Endpoint_AVR8.h **** 				{
 401:../../LUFA-111009/LUFA/Drivers/USB/Core/AVR8/../AVR8/Endpoint_AVR8.h **** 					UEINTX |= (1 << RXOUTI);
 402:../../LUFA-111009/LUFA/Drivers/USB/Core/AVR8/../AVR8/Endpoint_AVR8.h **** 					while (UEINTX & (1 << RXOUTI));
 403:../../LUFA-111009/LUFA/Drivers/USB/Core/AVR8/../AVR8/Endpoint_AVR8.h **** 				}
 404:../../LUFA-111009/LUFA/Drivers/USB/Core/AVR8/../AVR8/Endpoint_AVR8.h **** 			}
 405:../../LUFA-111009/LUFA/Drivers/USB/Core/AVR8/../AVR8/Endpoint_AVR8.h **** 
 406:../../LUFA-111009/LUFA/Drivers/USB/Core/AVR8/../AVR8/Endpoint_AVR8.h **** 			/** Determines if the currently selected endpoint may be read from (if data is waiting in the en
 407:../../LUFA-111009/LUFA/Drivers/USB/Core/AVR8/../AVR8/Endpoint_AVR8.h **** 			 *  bank and the endpoint is an OUT direction, or if the bank is not yet full if the endpoint is
 408:../../LUFA-111009/LUFA/Drivers/USB/Core/AVR8/../AVR8/Endpoint_AVR8.h **** 			 *  direction). This function will return false if an error has occurred in the endpoint, if the
 409:../../LUFA-111009/LUFA/Drivers/USB/Core/AVR8/../AVR8/Endpoint_AVR8.h **** 			 *  is an OUT direction and no packet (or an empty packet) has been received, or if the endpoint
 410:../../LUFA-111009/LUFA/Drivers/USB/Core/AVR8/../AVR8/Endpoint_AVR8.h **** 			 *  direction and the endpoint bank is full.
 411:../../LUFA-111009/LUFA/Drivers/USB/Core/AVR8/../AVR8/Endpoint_AVR8.h **** 			 *
 412:../../LUFA-111009/LUFA/Drivers/USB/Core/AVR8/../AVR8/Endpoint_AVR8.h **** 			 *  \ingroup Group_EndpointPacketManagement_AVR8
 413:../../LUFA-111009/LUFA/Drivers/USB/Core/AVR8/../AVR8/Endpoint_AVR8.h **** 			 *
 414:../../LUFA-111009/LUFA/Drivers/USB/Core/AVR8/../AVR8/Endpoint_AVR8.h **** 			 *  \return Boolean \c true if the currently selected endpoint may be read from or written to, d
 415:../../LUFA-111009/LUFA/Drivers/USB/Core/AVR8/../AVR8/Endpoint_AVR8.h **** 			 *          on its direction.
 416:../../LUFA-111009/LUFA/Drivers/USB/Core/AVR8/../AVR8/Endpoint_AVR8.h **** 			 */
 417:../../LUFA-111009/LUFA/Drivers/USB/Core/AVR8/../AVR8/Endpoint_AVR8.h **** 			static inline bool Endpoint_IsReadWriteAllowed(void) ATTR_WARN_UNUSED_RESULT ATTR_ALWAYS_INLINE;
 418:../../LUFA-111009/LUFA/Drivers/USB/Core/AVR8/../AVR8/Endpoint_AVR8.h **** 			static inline bool Endpoint_IsReadWriteAllowed(void)
 419:../../LUFA-111009/LUFA/Drivers/USB/Core/AVR8/../AVR8/Endpoint_AVR8.h **** 			{
 420:../../LUFA-111009/LUFA/Drivers/USB/Core/AVR8/../AVR8/Endpoint_AVR8.h **** 				return ((UEINTX & (1 << RWAL)) ? true : false);
 421:../../LUFA-111009/LUFA/Drivers/USB/Core/AVR8/../AVR8/Endpoint_AVR8.h **** 			}
 422:../../LUFA-111009/LUFA/Drivers/USB/Core/AVR8/../AVR8/Endpoint_AVR8.h **** 
 423:../../LUFA-111009/LUFA/Drivers/USB/Core/AVR8/../AVR8/Endpoint_AVR8.h **** 			/** Determines if the currently selected endpoint is configured.
 424:../../LUFA-111009/LUFA/Drivers/USB/Core/AVR8/../AVR8/Endpoint_AVR8.h **** 			 *
 425:../../LUFA-111009/LUFA/Drivers/USB/Core/AVR8/../AVR8/Endpoint_AVR8.h **** 			 *  \return Boolean \c true if the currently selected endpoint has been configured, \c false oth
 426:../../LUFA-111009/LUFA/Drivers/USB/Core/AVR8/../AVR8/Endpoint_AVR8.h **** 			 */
 427:../../LUFA-111009/LUFA/Drivers/USB/Core/AVR8/../AVR8/Endpoint_AVR8.h **** 			static inline bool Endpoint_IsConfigured(void) ATTR_WARN_UNUSED_RESULT ATTR_ALWAYS_INLINE;
 428:../../LUFA-111009/LUFA/Drivers/USB/Core/AVR8/../AVR8/Endpoint_AVR8.h **** 			static inline bool Endpoint_IsConfigured(void)
 429:../../LUFA-111009/LUFA/Drivers/USB/Core/AVR8/../AVR8/Endpoint_AVR8.h **** 			{
 430:../../LUFA-111009/LUFA/Drivers/USB/Core/AVR8/../AVR8/Endpoint_AVR8.h **** 				return ((UESTA0X & (1 << CFGOK)) ? true : false);
 431:../../LUFA-111009/LUFA/Drivers/USB/Core/AVR8/../AVR8/Endpoint_AVR8.h **** 			}
 432:../../LUFA-111009/LUFA/Drivers/USB/Core/AVR8/../AVR8/Endpoint_AVR8.h **** 
 433:../../LUFA-111009/LUFA/Drivers/USB/Core/AVR8/../AVR8/Endpoint_AVR8.h **** 			/** Returns a mask indicating which INTERRUPT type endpoints have interrupted - i.e. their
 434:../../LUFA-111009/LUFA/Drivers/USB/Core/AVR8/../AVR8/Endpoint_AVR8.h **** 			 *  interrupt duration has elapsed. Which endpoints have interrupted can be determined by
 435:../../LUFA-111009/LUFA/Drivers/USB/Core/AVR8/../AVR8/Endpoint_AVR8.h **** 			 *  masking the return value against <tt>(1 << <i>{Endpoint Number}</i>)</tt>.
 436:../../LUFA-111009/LUFA/Drivers/USB/Core/AVR8/../AVR8/Endpoint_AVR8.h **** 			 *
 437:../../LUFA-111009/LUFA/Drivers/USB/Core/AVR8/../AVR8/Endpoint_AVR8.h **** 			 *  \return Mask whose bits indicate which endpoints have interrupted.
 438:../../LUFA-111009/LUFA/Drivers/USB/Core/AVR8/../AVR8/Endpoint_AVR8.h **** 			 */
 439:../../LUFA-111009/LUFA/Drivers/USB/Core/AVR8/../AVR8/Endpoint_AVR8.h **** 			static inline uint8_t Endpoint_GetEndpointInterrupts(void) ATTR_WARN_UNUSED_RESULT ATTR_ALWAYS_I
 440:../../LUFA-111009/LUFA/Drivers/USB/Core/AVR8/../AVR8/Endpoint_AVR8.h **** 			static inline uint8_t Endpoint_GetEndpointInterrupts(void)
 441:../../LUFA-111009/LUFA/Drivers/USB/Core/AVR8/../AVR8/Endpoint_AVR8.h **** 			{
 442:../../LUFA-111009/LUFA/Drivers/USB/Core/AVR8/../AVR8/Endpoint_AVR8.h **** 				return UEINT;
 443:../../LUFA-111009/LUFA/Drivers/USB/Core/AVR8/../AVR8/Endpoint_AVR8.h **** 			}
 444:../../LUFA-111009/LUFA/Drivers/USB/Core/AVR8/../AVR8/Endpoint_AVR8.h **** 
 445:../../LUFA-111009/LUFA/Drivers/USB/Core/AVR8/../AVR8/Endpoint_AVR8.h **** 			/** Determines if the specified endpoint number has interrupted (valid only for INTERRUPT type
 446:../../LUFA-111009/LUFA/Drivers/USB/Core/AVR8/../AVR8/Endpoint_AVR8.h **** 			 *  endpoints).
 447:../../LUFA-111009/LUFA/Drivers/USB/Core/AVR8/../AVR8/Endpoint_AVR8.h **** 			 *
 448:../../LUFA-111009/LUFA/Drivers/USB/Core/AVR8/../AVR8/Endpoint_AVR8.h **** 			 *  \param[in] EndpointNumber  Index of the endpoint whose interrupt flag should be tested.
 449:../../LUFA-111009/LUFA/Drivers/USB/Core/AVR8/../AVR8/Endpoint_AVR8.h **** 			 *
 450:../../LUFA-111009/LUFA/Drivers/USB/Core/AVR8/../AVR8/Endpoint_AVR8.h **** 			 *  \return Boolean \c true if the specified endpoint has interrupted, \c false otherwise.
 451:../../LUFA-111009/LUFA/Drivers/USB/Core/AVR8/../AVR8/Endpoint_AVR8.h **** 			 */
 452:../../LUFA-111009/LUFA/Drivers/USB/Core/AVR8/../AVR8/Endpoint_AVR8.h **** 			static inline bool Endpoint_HasEndpointInterrupted(const uint8_t EndpointNumber) ATTR_WARN_UNUSE
 453:../../LUFA-111009/LUFA/Drivers/USB/Core/AVR8/../AVR8/Endpoint_AVR8.h **** 			static inline bool Endpoint_HasEndpointInterrupted(const uint8_t EndpointNumber)
 454:../../LUFA-111009/LUFA/Drivers/USB/Core/AVR8/../AVR8/Endpoint_AVR8.h **** 			{
 455:../../LUFA-111009/LUFA/Drivers/USB/Core/AVR8/../AVR8/Endpoint_AVR8.h **** 				return ((Endpoint_GetEndpointInterrupts() & (1 << EndpointNumber)) ? true : false);
 456:../../LUFA-111009/LUFA/Drivers/USB/Core/AVR8/../AVR8/Endpoint_AVR8.h **** 			}
 457:../../LUFA-111009/LUFA/Drivers/USB/Core/AVR8/../AVR8/Endpoint_AVR8.h **** 
 458:../../LUFA-111009/LUFA/Drivers/USB/Core/AVR8/../AVR8/Endpoint_AVR8.h **** 			/** Determines if the selected IN endpoint is ready for a new packet to be sent to the host.
 459:../../LUFA-111009/LUFA/Drivers/USB/Core/AVR8/../AVR8/Endpoint_AVR8.h **** 			 *
 460:../../LUFA-111009/LUFA/Drivers/USB/Core/AVR8/../AVR8/Endpoint_AVR8.h **** 			 *  \ingroup Group_EndpointPacketManagement_AVR8
 461:../../LUFA-111009/LUFA/Drivers/USB/Core/AVR8/../AVR8/Endpoint_AVR8.h **** 			 *
 462:../../LUFA-111009/LUFA/Drivers/USB/Core/AVR8/../AVR8/Endpoint_AVR8.h **** 			 *  \return Boolean \c true if the current endpoint is ready for an IN packet, \c false otherwis
 463:../../LUFA-111009/LUFA/Drivers/USB/Core/AVR8/../AVR8/Endpoint_AVR8.h **** 			 */
 464:../../LUFA-111009/LUFA/Drivers/USB/Core/AVR8/../AVR8/Endpoint_AVR8.h **** 			static inline bool Endpoint_IsINReady(void) ATTR_WARN_UNUSED_RESULT ATTR_ALWAYS_INLINE;
 465:../../LUFA-111009/LUFA/Drivers/USB/Core/AVR8/../AVR8/Endpoint_AVR8.h **** 			static inline bool Endpoint_IsINReady(void)
 466:../../LUFA-111009/LUFA/Drivers/USB/Core/AVR8/../AVR8/Endpoint_AVR8.h **** 			{
 467:../../LUFA-111009/LUFA/Drivers/USB/Core/AVR8/../AVR8/Endpoint_AVR8.h **** 				return ((UEINTX & (1 << TXINI)) ? true : false);
 468:../../LUFA-111009/LUFA/Drivers/USB/Core/AVR8/../AVR8/Endpoint_AVR8.h **** 			}
 469:../../LUFA-111009/LUFA/Drivers/USB/Core/AVR8/../AVR8/Endpoint_AVR8.h **** 
 470:../../LUFA-111009/LUFA/Drivers/USB/Core/AVR8/../AVR8/Endpoint_AVR8.h **** 			/** Determines if the selected OUT endpoint has received new packet from the host.
 471:../../LUFA-111009/LUFA/Drivers/USB/Core/AVR8/../AVR8/Endpoint_AVR8.h **** 			 *
 472:../../LUFA-111009/LUFA/Drivers/USB/Core/AVR8/../AVR8/Endpoint_AVR8.h **** 			 *  \ingroup Group_EndpointPacketManagement_AVR8
 473:../../LUFA-111009/LUFA/Drivers/USB/Core/AVR8/../AVR8/Endpoint_AVR8.h **** 			 *
 474:../../LUFA-111009/LUFA/Drivers/USB/Core/AVR8/../AVR8/Endpoint_AVR8.h **** 			 *  \return Boolean \c true if current endpoint is has received an OUT packet, \c false otherwis
 475:../../LUFA-111009/LUFA/Drivers/USB/Core/AVR8/../AVR8/Endpoint_AVR8.h **** 			 */
 476:../../LUFA-111009/LUFA/Drivers/USB/Core/AVR8/../AVR8/Endpoint_AVR8.h **** 			static inline bool Endpoint_IsOUTReceived(void) ATTR_WARN_UNUSED_RESULT ATTR_ALWAYS_INLINE;
 477:../../LUFA-111009/LUFA/Drivers/USB/Core/AVR8/../AVR8/Endpoint_AVR8.h **** 			static inline bool Endpoint_IsOUTReceived(void)
 478:../../LUFA-111009/LUFA/Drivers/USB/Core/AVR8/../AVR8/Endpoint_AVR8.h **** 			{
 479:../../LUFA-111009/LUFA/Drivers/USB/Core/AVR8/../AVR8/Endpoint_AVR8.h **** 				return ((UEINTX & (1 << RXOUTI)) ? true : false);
 480:../../LUFA-111009/LUFA/Drivers/USB/Core/AVR8/../AVR8/Endpoint_AVR8.h **** 			}
 481:../../LUFA-111009/LUFA/Drivers/USB/Core/AVR8/../AVR8/Endpoint_AVR8.h **** 
 482:../../LUFA-111009/LUFA/Drivers/USB/Core/AVR8/../AVR8/Endpoint_AVR8.h **** 			/** Determines if the current CONTROL type endpoint has received a SETUP packet.
 483:../../LUFA-111009/LUFA/Drivers/USB/Core/AVR8/../AVR8/Endpoint_AVR8.h **** 			 *
 484:../../LUFA-111009/LUFA/Drivers/USB/Core/AVR8/../AVR8/Endpoint_AVR8.h **** 			 *  \ingroup Group_EndpointPacketManagement_AVR8
 485:../../LUFA-111009/LUFA/Drivers/USB/Core/AVR8/../AVR8/Endpoint_AVR8.h **** 			 *
 486:../../LUFA-111009/LUFA/Drivers/USB/Core/AVR8/../AVR8/Endpoint_AVR8.h **** 			 *  \return Boolean \c true if the selected endpoint has received a SETUP packet, \c false other
 487:../../LUFA-111009/LUFA/Drivers/USB/Core/AVR8/../AVR8/Endpoint_AVR8.h **** 			 */
 488:../../LUFA-111009/LUFA/Drivers/USB/Core/AVR8/../AVR8/Endpoint_AVR8.h **** 			static inline bool Endpoint_IsSETUPReceived(void) ATTR_WARN_UNUSED_RESULT ATTR_ALWAYS_INLINE;
 489:../../LUFA-111009/LUFA/Drivers/USB/Core/AVR8/../AVR8/Endpoint_AVR8.h **** 			static inline bool Endpoint_IsSETUPReceived(void)
 490:../../LUFA-111009/LUFA/Drivers/USB/Core/AVR8/../AVR8/Endpoint_AVR8.h **** 			{
 491:../../LUFA-111009/LUFA/Drivers/USB/Core/AVR8/../AVR8/Endpoint_AVR8.h **** 				return ((UEINTX & (1 << RXSTPI)) ? true : false);
 492:../../LUFA-111009/LUFA/Drivers/USB/Core/AVR8/../AVR8/Endpoint_AVR8.h **** 			}
 493:../../LUFA-111009/LUFA/Drivers/USB/Core/AVR8/../AVR8/Endpoint_AVR8.h **** 
 494:../../LUFA-111009/LUFA/Drivers/USB/Core/AVR8/../AVR8/Endpoint_AVR8.h **** 			/** Clears a received SETUP packet on the currently selected CONTROL type endpoint, freeing up t
 495:../../LUFA-111009/LUFA/Drivers/USB/Core/AVR8/../AVR8/Endpoint_AVR8.h **** 			 *  endpoint for the next packet.
 496:../../LUFA-111009/LUFA/Drivers/USB/Core/AVR8/../AVR8/Endpoint_AVR8.h **** 			 *
 497:../../LUFA-111009/LUFA/Drivers/USB/Core/AVR8/../AVR8/Endpoint_AVR8.h **** 			 *  \ingroup Group_EndpointPacketManagement_AVR8
 498:../../LUFA-111009/LUFA/Drivers/USB/Core/AVR8/../AVR8/Endpoint_AVR8.h **** 			 *
 499:../../LUFA-111009/LUFA/Drivers/USB/Core/AVR8/../AVR8/Endpoint_AVR8.h **** 			 *  \note This is not applicable for non CONTROL type endpoints.
 500:../../LUFA-111009/LUFA/Drivers/USB/Core/AVR8/../AVR8/Endpoint_AVR8.h **** 			 */
 501:../../LUFA-111009/LUFA/Drivers/USB/Core/AVR8/../AVR8/Endpoint_AVR8.h **** 			static inline void Endpoint_ClearSETUP(void) ATTR_ALWAYS_INLINE;
 502:../../LUFA-111009/LUFA/Drivers/USB/Core/AVR8/../AVR8/Endpoint_AVR8.h **** 			static inline void Endpoint_ClearSETUP(void)
 503:../../LUFA-111009/LUFA/Drivers/USB/Core/AVR8/../AVR8/Endpoint_AVR8.h **** 			{
 504:../../LUFA-111009/LUFA/Drivers/USB/Core/AVR8/../AVR8/Endpoint_AVR8.h **** 				UEINTX &= ~(1 << RXSTPI);
 505:../../LUFA-111009/LUFA/Drivers/USB/Core/AVR8/../AVR8/Endpoint_AVR8.h **** 			}
 506:../../LUFA-111009/LUFA/Drivers/USB/Core/AVR8/../AVR8/Endpoint_AVR8.h **** 
 507:../../LUFA-111009/LUFA/Drivers/USB/Core/AVR8/../AVR8/Endpoint_AVR8.h **** 			/** Sends an IN packet to the host on the currently selected endpoint, freeing up the endpoint f
 508:../../LUFA-111009/LUFA/Drivers/USB/Core/AVR8/../AVR8/Endpoint_AVR8.h **** 			 *  next packet and switching to the alternative endpoint bank if double banked.
 509:../../LUFA-111009/LUFA/Drivers/USB/Core/AVR8/../AVR8/Endpoint_AVR8.h **** 			 *
 510:../../LUFA-111009/LUFA/Drivers/USB/Core/AVR8/../AVR8/Endpoint_AVR8.h **** 			 *  \ingroup Group_EndpointPacketManagement_AVR8
 511:../../LUFA-111009/LUFA/Drivers/USB/Core/AVR8/../AVR8/Endpoint_AVR8.h **** 			 */
 512:../../LUFA-111009/LUFA/Drivers/USB/Core/AVR8/../AVR8/Endpoint_AVR8.h **** 			static inline void Endpoint_ClearIN(void) ATTR_ALWAYS_INLINE;
 513:../../LUFA-111009/LUFA/Drivers/USB/Core/AVR8/../AVR8/Endpoint_AVR8.h **** 			static inline void Endpoint_ClearIN(void)
 514:../../LUFA-111009/LUFA/Drivers/USB/Core/AVR8/../AVR8/Endpoint_AVR8.h **** 			{
 515:../../LUFA-111009/LUFA/Drivers/USB/Core/AVR8/../AVR8/Endpoint_AVR8.h **** 				#if !defined(CONTROL_ONLY_DEVICE)
 516:../../LUFA-111009/LUFA/Drivers/USB/Core/AVR8/../AVR8/Endpoint_AVR8.h **** 					UEINTX &= ~((1 << TXINI) | (1 << FIFOCON));
 517:../../LUFA-111009/LUFA/Drivers/USB/Core/AVR8/../AVR8/Endpoint_AVR8.h **** 				#else
 518:../../LUFA-111009/LUFA/Drivers/USB/Core/AVR8/../AVR8/Endpoint_AVR8.h **** 					UEINTX &= ~(1 << TXINI);
 519:../../LUFA-111009/LUFA/Drivers/USB/Core/AVR8/../AVR8/Endpoint_AVR8.h **** 				#endif
 520:../../LUFA-111009/LUFA/Drivers/USB/Core/AVR8/../AVR8/Endpoint_AVR8.h **** 			}
 521:../../LUFA-111009/LUFA/Drivers/USB/Core/AVR8/../AVR8/Endpoint_AVR8.h **** 
 522:../../LUFA-111009/LUFA/Drivers/USB/Core/AVR8/../AVR8/Endpoint_AVR8.h **** 			/** Acknowledges an OUT packet to the host on the currently selected endpoint, freeing up the en
 523:../../LUFA-111009/LUFA/Drivers/USB/Core/AVR8/../AVR8/Endpoint_AVR8.h **** 			 *  for the next packet and switching to the alternative endpoint bank if double banked.
 524:../../LUFA-111009/LUFA/Drivers/USB/Core/AVR8/../AVR8/Endpoint_AVR8.h **** 			 *
 525:../../LUFA-111009/LUFA/Drivers/USB/Core/AVR8/../AVR8/Endpoint_AVR8.h **** 			 *  \ingroup Group_EndpointPacketManagement_AVR8
 526:../../LUFA-111009/LUFA/Drivers/USB/Core/AVR8/../AVR8/Endpoint_AVR8.h **** 			 */
 527:../../LUFA-111009/LUFA/Drivers/USB/Core/AVR8/../AVR8/Endpoint_AVR8.h **** 			static inline void Endpoint_ClearOUT(void) ATTR_ALWAYS_INLINE;
 528:../../LUFA-111009/LUFA/Drivers/USB/Core/AVR8/../AVR8/Endpoint_AVR8.h **** 			static inline void Endpoint_ClearOUT(void)
 529:../../LUFA-111009/LUFA/Drivers/USB/Core/AVR8/../AVR8/Endpoint_AVR8.h **** 			{
 530:../../LUFA-111009/LUFA/Drivers/USB/Core/AVR8/../AVR8/Endpoint_AVR8.h **** 				#if !defined(CONTROL_ONLY_DEVICE)
 531:../../LUFA-111009/LUFA/Drivers/USB/Core/AVR8/../AVR8/Endpoint_AVR8.h **** 					UEINTX &= ~((1 << RXOUTI) | (1 << FIFOCON));
 532:../../LUFA-111009/LUFA/Drivers/USB/Core/AVR8/../AVR8/Endpoint_AVR8.h **** 				#else
 533:../../LUFA-111009/LUFA/Drivers/USB/Core/AVR8/../AVR8/Endpoint_AVR8.h **** 					UEINTX &= ~(1 << RXOUTI);
 534:../../LUFA-111009/LUFA/Drivers/USB/Core/AVR8/../AVR8/Endpoint_AVR8.h **** 				#endif
 535:../../LUFA-111009/LUFA/Drivers/USB/Core/AVR8/../AVR8/Endpoint_AVR8.h **** 			}
 536:../../LUFA-111009/LUFA/Drivers/USB/Core/AVR8/../AVR8/Endpoint_AVR8.h **** 
 537:../../LUFA-111009/LUFA/Drivers/USB/Core/AVR8/../AVR8/Endpoint_AVR8.h **** 			/** Stalls the current endpoint, indicating to the host that a logical problem occurred with the
 538:../../LUFA-111009/LUFA/Drivers/USB/Core/AVR8/../AVR8/Endpoint_AVR8.h **** 			 *  indicated endpoint and that the current transfer sequence should be aborted. This provides a
 539:../../LUFA-111009/LUFA/Drivers/USB/Core/AVR8/../AVR8/Endpoint_AVR8.h **** 			 *  way for devices to indicate invalid commands to the host so that the current transfer can be
 540:../../LUFA-111009/LUFA/Drivers/USB/Core/AVR8/../AVR8/Endpoint_AVR8.h **** 			 *  aborted and the host can begin its own recovery sequence.
 541:../../LUFA-111009/LUFA/Drivers/USB/Core/AVR8/../AVR8/Endpoint_AVR8.h **** 			 *
 542:../../LUFA-111009/LUFA/Drivers/USB/Core/AVR8/../AVR8/Endpoint_AVR8.h **** 			 *  The currently selected endpoint remains stalled until either the \ref Endpoint_ClearStall() 
 543:../../LUFA-111009/LUFA/Drivers/USB/Core/AVR8/../AVR8/Endpoint_AVR8.h **** 			 *  is called, or the host issues a CLEAR FEATURE request to the device for the currently select
 544:../../LUFA-111009/LUFA/Drivers/USB/Core/AVR8/../AVR8/Endpoint_AVR8.h **** 			 *  endpoint.
 545:../../LUFA-111009/LUFA/Drivers/USB/Core/AVR8/../AVR8/Endpoint_AVR8.h **** 			 *
 546:../../LUFA-111009/LUFA/Drivers/USB/Core/AVR8/../AVR8/Endpoint_AVR8.h **** 			 *  \ingroup Group_EndpointPacketManagement_AVR8
 547:../../LUFA-111009/LUFA/Drivers/USB/Core/AVR8/../AVR8/Endpoint_AVR8.h **** 			 */
 548:../../LUFA-111009/LUFA/Drivers/USB/Core/AVR8/../AVR8/Endpoint_AVR8.h **** 			static inline void Endpoint_StallTransaction(void) ATTR_ALWAYS_INLINE;
 549:../../LUFA-111009/LUFA/Drivers/USB/Core/AVR8/../AVR8/Endpoint_AVR8.h **** 			static inline void Endpoint_StallTransaction(void)
 550:../../LUFA-111009/LUFA/Drivers/USB/Core/AVR8/../AVR8/Endpoint_AVR8.h **** 			{
 551:../../LUFA-111009/LUFA/Drivers/USB/Core/AVR8/../AVR8/Endpoint_AVR8.h **** 				UECONX |= (1 << STALLRQ);
 552:../../LUFA-111009/LUFA/Drivers/USB/Core/AVR8/../AVR8/Endpoint_AVR8.h **** 			}
 553:../../LUFA-111009/LUFA/Drivers/USB/Core/AVR8/../AVR8/Endpoint_AVR8.h **** 
 554:../../LUFA-111009/LUFA/Drivers/USB/Core/AVR8/../AVR8/Endpoint_AVR8.h **** 			/** Clears the STALL condition on the currently selected endpoint.
 555:../../LUFA-111009/LUFA/Drivers/USB/Core/AVR8/../AVR8/Endpoint_AVR8.h **** 			 *
 556:../../LUFA-111009/LUFA/Drivers/USB/Core/AVR8/../AVR8/Endpoint_AVR8.h **** 			 *  \ingroup Group_EndpointPacketManagement_AVR8
 557:../../LUFA-111009/LUFA/Drivers/USB/Core/AVR8/../AVR8/Endpoint_AVR8.h **** 			 */
 558:../../LUFA-111009/LUFA/Drivers/USB/Core/AVR8/../AVR8/Endpoint_AVR8.h **** 			static inline void Endpoint_ClearStall(void) ATTR_ALWAYS_INLINE;
 559:../../LUFA-111009/LUFA/Drivers/USB/Core/AVR8/../AVR8/Endpoint_AVR8.h **** 			static inline void Endpoint_ClearStall(void)
 560:../../LUFA-111009/LUFA/Drivers/USB/Core/AVR8/../AVR8/Endpoint_AVR8.h **** 			{
 561:../../LUFA-111009/LUFA/Drivers/USB/Core/AVR8/../AVR8/Endpoint_AVR8.h **** 				UECONX |= (1 << STALLRQC);
 562:../../LUFA-111009/LUFA/Drivers/USB/Core/AVR8/../AVR8/Endpoint_AVR8.h **** 			}
 563:../../LUFA-111009/LUFA/Drivers/USB/Core/AVR8/../AVR8/Endpoint_AVR8.h **** 
 564:../../LUFA-111009/LUFA/Drivers/USB/Core/AVR8/../AVR8/Endpoint_AVR8.h **** 			/** Determines if the currently selected endpoint is stalled, false otherwise.
 565:../../LUFA-111009/LUFA/Drivers/USB/Core/AVR8/../AVR8/Endpoint_AVR8.h **** 			 *
 566:../../LUFA-111009/LUFA/Drivers/USB/Core/AVR8/../AVR8/Endpoint_AVR8.h **** 			 *  \ingroup Group_EndpointPacketManagement_AVR8
 567:../../LUFA-111009/LUFA/Drivers/USB/Core/AVR8/../AVR8/Endpoint_AVR8.h **** 			 *
 568:../../LUFA-111009/LUFA/Drivers/USB/Core/AVR8/../AVR8/Endpoint_AVR8.h **** 			 *  \return Boolean \c true if the currently selected endpoint is stalled, \c false otherwise.
 569:../../LUFA-111009/LUFA/Drivers/USB/Core/AVR8/../AVR8/Endpoint_AVR8.h **** 			 */
 570:../../LUFA-111009/LUFA/Drivers/USB/Core/AVR8/../AVR8/Endpoint_AVR8.h **** 			static inline bool Endpoint_IsStalled(void) ATTR_WARN_UNUSED_RESULT ATTR_ALWAYS_INLINE;
 571:../../LUFA-111009/LUFA/Drivers/USB/Core/AVR8/../AVR8/Endpoint_AVR8.h **** 			static inline bool Endpoint_IsStalled(void)
 572:../../LUFA-111009/LUFA/Drivers/USB/Core/AVR8/../AVR8/Endpoint_AVR8.h **** 			{
 573:../../LUFA-111009/LUFA/Drivers/USB/Core/AVR8/../AVR8/Endpoint_AVR8.h **** 				return ((UECONX & (1 << STALLRQ)) ? true : false);
 574:../../LUFA-111009/LUFA/Drivers/USB/Core/AVR8/../AVR8/Endpoint_AVR8.h **** 			}
 575:../../LUFA-111009/LUFA/Drivers/USB/Core/AVR8/../AVR8/Endpoint_AVR8.h **** 
 576:../../LUFA-111009/LUFA/Drivers/USB/Core/AVR8/../AVR8/Endpoint_AVR8.h **** 			/** Resets the data toggle of the currently selected endpoint. */
 577:../../LUFA-111009/LUFA/Drivers/USB/Core/AVR8/../AVR8/Endpoint_AVR8.h **** 			static inline void Endpoint_ResetDataToggle(void) ATTR_ALWAYS_INLINE;
 578:../../LUFA-111009/LUFA/Drivers/USB/Core/AVR8/../AVR8/Endpoint_AVR8.h **** 			static inline void Endpoint_ResetDataToggle(void)
 579:../../LUFA-111009/LUFA/Drivers/USB/Core/AVR8/../AVR8/Endpoint_AVR8.h **** 			{
 580:../../LUFA-111009/LUFA/Drivers/USB/Core/AVR8/../AVR8/Endpoint_AVR8.h **** 				UECONX |= (1 << RSTDT);
 581:../../LUFA-111009/LUFA/Drivers/USB/Core/AVR8/../AVR8/Endpoint_AVR8.h **** 			}
 582:../../LUFA-111009/LUFA/Drivers/USB/Core/AVR8/../AVR8/Endpoint_AVR8.h **** 
 583:../../LUFA-111009/LUFA/Drivers/USB/Core/AVR8/../AVR8/Endpoint_AVR8.h **** 			/** Determines the currently selected endpoint's direction.
 584:../../LUFA-111009/LUFA/Drivers/USB/Core/AVR8/../AVR8/Endpoint_AVR8.h **** 			 *
 585:../../LUFA-111009/LUFA/Drivers/USB/Core/AVR8/../AVR8/Endpoint_AVR8.h **** 			 *  \return The currently selected endpoint's direction, as a \c ENDPOINT_DIR_* mask.
 586:../../LUFA-111009/LUFA/Drivers/USB/Core/AVR8/../AVR8/Endpoint_AVR8.h **** 			 */
 587:../../LUFA-111009/LUFA/Drivers/USB/Core/AVR8/../AVR8/Endpoint_AVR8.h **** 			static inline uint8_t Endpoint_GetEndpointDirection(void) ATTR_WARN_UNUSED_RESULT ATTR_ALWAYS_IN
 588:../../LUFA-111009/LUFA/Drivers/USB/Core/AVR8/../AVR8/Endpoint_AVR8.h **** 			static inline uint8_t Endpoint_GetEndpointDirection(void)
 589:../../LUFA-111009/LUFA/Drivers/USB/Core/AVR8/../AVR8/Endpoint_AVR8.h **** 			{
 590:../../LUFA-111009/LUFA/Drivers/USB/Core/AVR8/../AVR8/Endpoint_AVR8.h **** 				return (UECFG0X & (1 << EPDIR)) ? ENDPOINT_DIR_IN : ENDPOINT_DIR_OUT;
 591:../../LUFA-111009/LUFA/Drivers/USB/Core/AVR8/../AVR8/Endpoint_AVR8.h **** 			}
 592:../../LUFA-111009/LUFA/Drivers/USB/Core/AVR8/../AVR8/Endpoint_AVR8.h **** 
 593:../../LUFA-111009/LUFA/Drivers/USB/Core/AVR8/../AVR8/Endpoint_AVR8.h **** 			/** Sets the direction of the currently selected endpoint.
 594:../../LUFA-111009/LUFA/Drivers/USB/Core/AVR8/../AVR8/Endpoint_AVR8.h **** 			 *
 595:../../LUFA-111009/LUFA/Drivers/USB/Core/AVR8/../AVR8/Endpoint_AVR8.h **** 			 *  \param[in] DirectionMask  New endpoint direction, as a \c ENDPOINT_DIR_* mask.
 596:../../LUFA-111009/LUFA/Drivers/USB/Core/AVR8/../AVR8/Endpoint_AVR8.h **** 			 */
 597:../../LUFA-111009/LUFA/Drivers/USB/Core/AVR8/../AVR8/Endpoint_AVR8.h **** 			static inline void Endpoint_SetEndpointDirection(const uint8_t DirectionMask) ATTR_ALWAYS_INLINE
 598:../../LUFA-111009/LUFA/Drivers/USB/Core/AVR8/../AVR8/Endpoint_AVR8.h **** 			static inline void Endpoint_SetEndpointDirection(const uint8_t DirectionMask)
 599:../../LUFA-111009/LUFA/Drivers/USB/Core/AVR8/../AVR8/Endpoint_AVR8.h **** 			{
 600:../../LUFA-111009/LUFA/Drivers/USB/Core/AVR8/../AVR8/Endpoint_AVR8.h **** 				UECFG0X = ((UECFG0X & ~(1 << EPDIR)) | (DirectionMask ? (1 << EPDIR) : 0));
 601:../../LUFA-111009/LUFA/Drivers/USB/Core/AVR8/../AVR8/Endpoint_AVR8.h **** 			}
 602:../../LUFA-111009/LUFA/Drivers/USB/Core/AVR8/../AVR8/Endpoint_AVR8.h **** 
 603:../../LUFA-111009/LUFA/Drivers/USB/Core/AVR8/../AVR8/Endpoint_AVR8.h **** 			/** Reads one byte from the currently selected endpoint's bank, for OUT direction endpoints.
 604:../../LUFA-111009/LUFA/Drivers/USB/Core/AVR8/../AVR8/Endpoint_AVR8.h **** 			 *
 605:../../LUFA-111009/LUFA/Drivers/USB/Core/AVR8/../AVR8/Endpoint_AVR8.h **** 			 *  \ingroup Group_EndpointPrimitiveRW_AVR8
 606:../../LUFA-111009/LUFA/Drivers/USB/Core/AVR8/../AVR8/Endpoint_AVR8.h **** 			 *
 607:../../LUFA-111009/LUFA/Drivers/USB/Core/AVR8/../AVR8/Endpoint_AVR8.h **** 			 *  \return Next byte in the currently selected endpoint's FIFO buffer.
 608:../../LUFA-111009/LUFA/Drivers/USB/Core/AVR8/../AVR8/Endpoint_AVR8.h **** 			 */
 609:../../LUFA-111009/LUFA/Drivers/USB/Core/AVR8/../AVR8/Endpoint_AVR8.h **** 			static inline uint8_t Endpoint_Read_8(void) ATTR_WARN_UNUSED_RESULT ATTR_ALWAYS_INLINE;
 610:../../LUFA-111009/LUFA/Drivers/USB/Core/AVR8/../AVR8/Endpoint_AVR8.h **** 			static inline uint8_t Endpoint_Read_8(void)
  66               		.loc 2 610 26 is_stmt 1 discriminator 3 view .LVU8
  67               	.LBB150:
 611:../../LUFA-111009/LUFA/Drivers/USB/Core/AVR8/../AVR8/Endpoint_AVR8.h **** 			{
 612:../../LUFA-111009/LUFA/Drivers/USB/Core/AVR8/../AVR8/Endpoint_AVR8.h **** 				return UEDATX;
  68               		.loc 2 612 5 discriminator 3 view .LVU9
  69               		.loc 2 612 12 is_stmt 0 discriminator 3 view .LVU10
  70 0016 2091 F100 		lds r18,241
  71               	.LBE150:
  72               	.LBE149:
  73               		.loc 1 61 23 discriminator 3 view .LVU11
  74 001a 2083      		st Z,r18
  60:../../LUFA-111009/LUFA/Drivers/USB/Core/DeviceStandardReq.c **** 	  *(RequestHeader++) = Endpoint_Read_8();
  75               		.loc 1 60 88 is_stmt 1 discriminator 3 view .LVU12
  76               	.LVL3:
  60:../../LUFA-111009/LUFA/Drivers/USB/Core/DeviceStandardReq.c **** 	  *(RequestHeader++) = Endpoint_Read_8();
  77               		.loc 1 60 38 discriminator 3 view .LVU13
  60:../../LUFA-111009/LUFA/Drivers/USB/Core/DeviceStandardReq.c **** 	  *(RequestHeader++) = Endpoint_Read_8();
  78               		.loc 1 60 2 is_stmt 0 discriminator 3 view .LVU14
  79 001c 20E0      		ldi r18,hi8(USB_ControlRequest+8)
  80 001e 8030      		cpi r24,lo8(USB_ControlRequest+8)
  81 0020 9207      		cpc r25,r18
  82 0022 01F4      		brne .L2
  83               	.LBE151:
  62:../../LUFA-111009/LUFA/Drivers/USB/Core/DeviceStandardReq.c **** 	#endif
  63:../../LUFA-111009/LUFA/Drivers/USB/Core/DeviceStandardReq.c **** 
  64:../../LUFA-111009/LUFA/Drivers/USB/Core/DeviceStandardReq.c **** 	EVENT_USB_Device_ControlRequest();
  84               		.loc 1 64 2 is_stmt 1 view .LVU15
  85 0024 0E94 0000 		call EVENT_USB_Device_ControlRequest
  86               	.LVL4:
  65:../../LUFA-111009/LUFA/Drivers/USB/Core/DeviceStandardReq.c **** 
  66:../../LUFA-111009/LUFA/Drivers/USB/Core/DeviceStandardReq.c **** 	if (Endpoint_IsSETUPReceived())
  87               		.loc 1 66 2 view .LVU16
  88               	.LBB152:
  89               	.LBI152:
 489:../../LUFA-111009/LUFA/Drivers/USB/Core/AVR8/../AVR8/Endpoint_AVR8.h **** 			{
  90               		.loc 2 489 23 view .LVU17
  91               	.LBB153:
 491:../../LUFA-111009/LUFA/Drivers/USB/Core/AVR8/../AVR8/Endpoint_AVR8.h **** 			}
  92               		.loc 2 491 5 view .LVU18
 491:../../LUFA-111009/LUFA/Drivers/USB/Core/AVR8/../AVR8/Endpoint_AVR8.h **** 			}
  93               		.loc 2 491 14 is_stmt 0 view .LVU19
  94 0028 8091 E800 		lds r24,232
  95               	.LBE153:
  96               	.LBE152:
  97               		.loc 1 66 5 view .LVU20
  98 002c 83FF      		sbrs r24,3
  99 002e 00C0      		rjmp .L3
 100               	.LBB154:
  67:../../LUFA-111009/LUFA/Drivers/USB/Core/DeviceStandardReq.c **** 	{
  68:../../LUFA-111009/LUFA/Drivers/USB/Core/DeviceStandardReq.c **** 		uint8_t bmRequestType = USB_ControlRequest.bmRequestType;
 101               		.loc 1 68 3 is_stmt 1 view .LVU21
 102               		.loc 1 68 11 is_stmt 0 view .LVU22
 103 0030 8091 0000 		lds r24,USB_ControlRequest
 104               	.LVL5:
  69:../../LUFA-111009/LUFA/Drivers/USB/Core/DeviceStandardReq.c **** 
  70:../../LUFA-111009/LUFA/Drivers/USB/Core/DeviceStandardReq.c **** 		switch (USB_ControlRequest.bRequest)
 105               		.loc 1 70 3 is_stmt 1 view .LVU23
 106 0034 9091 0000 		lds r25,USB_ControlRequest+1
 107 0038 9A30      		cpi r25,lo8(10)
 108 003a 00F4      		brsh .L3
 109 003c E92F      		mov r30,r25
 110 003e F0E0      		ldi r31,0
 111 0040 E050      		subi r30,lo8(-(gs(.L5)))
 112 0042 F040      		sbci r31,hi8(-(gs(.L5)))
 113 0044 0C94 0000 		jmp __tablejump2__
 114               		.section	.jumptables.gcc.USB_Device_ProcessControlRequest,"a",@progbits
 115               		.p2align	1
 116               	.L5:
 117 0000 0000      		.word gs(.L10)
 118 0002 0000      		.word gs(.L9)
 119 0004 0000      		.word gs(.L3)
 120 0006 0000      		.word gs(.L9)
 121 0008 0000      		.word gs(.L3)
 122 000a 0000      		.word gs(.L8)
 123 000c 0000      		.word gs(.L7)
 124 000e 0000      		.word gs(.L3)
 125 0010 0000      		.word gs(.L6)
 126 0012 0000      		.word gs(.L4)
 127               		.section	.text.USB_Device_ProcessControlRequest
 128               	.L10:
  71:../../LUFA-111009/LUFA/Drivers/USB/Core/DeviceStandardReq.c **** 		{
  72:../../LUFA-111009/LUFA/Drivers/USB/Core/DeviceStandardReq.c **** 			case REQ_GetStatus:
  73:../../LUFA-111009/LUFA/Drivers/USB/Core/DeviceStandardReq.c **** 				if ((bmRequestType == (REQDIR_DEVICETOHOST | REQTYPE_STANDARD | REQREC_DEVICE)) ||
 129               		.loc 1 73 5 view .LVU24
  74:../../LUFA-111009/LUFA/Drivers/USB/Core/DeviceStandardReq.c **** 					(bmRequestType == (REQDIR_DEVICETOHOST | REQTYPE_STANDARD | REQREC_ENDPOINT)))
  75:../../LUFA-111009/LUFA/Drivers/USB/Core/DeviceStandardReq.c **** 				{
  76:../../LUFA-111009/LUFA/Drivers/USB/Core/DeviceStandardReq.c **** 					USB_Device_GetStatus();
 130               		.loc 1 76 6 view .LVU25
 131               	.LBB155:
 132               	.LBI155:
  77:../../LUFA-111009/LUFA/Drivers/USB/Core/DeviceStandardReq.c **** 				}
  78:../../LUFA-111009/LUFA/Drivers/USB/Core/DeviceStandardReq.c **** 
  79:../../LUFA-111009/LUFA/Drivers/USB/Core/DeviceStandardReq.c **** 				break;
  80:../../LUFA-111009/LUFA/Drivers/USB/Core/DeviceStandardReq.c **** 			case REQ_ClearFeature:
  81:../../LUFA-111009/LUFA/Drivers/USB/Core/DeviceStandardReq.c **** 			case REQ_SetFeature:
  82:../../LUFA-111009/LUFA/Drivers/USB/Core/DeviceStandardReq.c **** 				if ((bmRequestType == (REQDIR_HOSTTODEVICE | REQTYPE_STANDARD | REQREC_DEVICE)) ||
  83:../../LUFA-111009/LUFA/Drivers/USB/Core/DeviceStandardReq.c **** 					(bmRequestType == (REQDIR_HOSTTODEVICE | REQTYPE_STANDARD | REQREC_ENDPOINT)))
  84:../../LUFA-111009/LUFA/Drivers/USB/Core/DeviceStandardReq.c **** 				{
  85:../../LUFA-111009/LUFA/Drivers/USB/Core/DeviceStandardReq.c **** 					USB_Device_ClearSetFeature();
  86:../../LUFA-111009/LUFA/Drivers/USB/Core/DeviceStandardReq.c **** 				}
  87:../../LUFA-111009/LUFA/Drivers/USB/Core/DeviceStandardReq.c **** 
  88:../../LUFA-111009/LUFA/Drivers/USB/Core/DeviceStandardReq.c **** 				break;
  89:../../LUFA-111009/LUFA/Drivers/USB/Core/DeviceStandardReq.c **** 			case REQ_SetAddress:
  90:../../LUFA-111009/LUFA/Drivers/USB/Core/DeviceStandardReq.c **** 				if (bmRequestType == (REQDIR_HOSTTODEVICE | REQTYPE_STANDARD | REQREC_DEVICE))
  91:../../LUFA-111009/LUFA/Drivers/USB/Core/DeviceStandardReq.c **** 				  USB_Device_SetAddress();
  92:../../LUFA-111009/LUFA/Drivers/USB/Core/DeviceStandardReq.c **** 
  93:../../LUFA-111009/LUFA/Drivers/USB/Core/DeviceStandardReq.c **** 				break;
  94:../../LUFA-111009/LUFA/Drivers/USB/Core/DeviceStandardReq.c **** 			case REQ_GetDescriptor:
  95:../../LUFA-111009/LUFA/Drivers/USB/Core/DeviceStandardReq.c **** 				if ((bmRequestType == (REQDIR_DEVICETOHOST | REQTYPE_STANDARD | REQREC_DEVICE)) ||
  96:../../LUFA-111009/LUFA/Drivers/USB/Core/DeviceStandardReq.c **** 					(bmRequestType == (REQDIR_DEVICETOHOST | REQTYPE_STANDARD | REQREC_INTERFACE)))
  97:../../LUFA-111009/LUFA/Drivers/USB/Core/DeviceStandardReq.c **** 				{
  98:../../LUFA-111009/LUFA/Drivers/USB/Core/DeviceStandardReq.c **** 					USB_Device_GetDescriptor();
  99:../../LUFA-111009/LUFA/Drivers/USB/Core/DeviceStandardReq.c **** 				}
 100:../../LUFA-111009/LUFA/Drivers/USB/Core/DeviceStandardReq.c **** 
 101:../../LUFA-111009/LUFA/Drivers/USB/Core/DeviceStandardReq.c **** 				break;
 102:../../LUFA-111009/LUFA/Drivers/USB/Core/DeviceStandardReq.c **** 			case REQ_GetConfiguration:
 103:../../LUFA-111009/LUFA/Drivers/USB/Core/DeviceStandardReq.c **** 				if (bmRequestType == (REQDIR_DEVICETOHOST | REQTYPE_STANDARD | REQREC_DEVICE))
 104:../../LUFA-111009/LUFA/Drivers/USB/Core/DeviceStandardReq.c **** 				  USB_Device_GetConfiguration();
 105:../../LUFA-111009/LUFA/Drivers/USB/Core/DeviceStandardReq.c **** 
 106:../../LUFA-111009/LUFA/Drivers/USB/Core/DeviceStandardReq.c **** 				break;
 107:../../LUFA-111009/LUFA/Drivers/USB/Core/DeviceStandardReq.c **** 			case REQ_SetConfiguration:
 108:../../LUFA-111009/LUFA/Drivers/USB/Core/DeviceStandardReq.c **** 				if (bmRequestType == (REQDIR_HOSTTODEVICE | REQTYPE_STANDARD | REQREC_DEVICE))
 109:../../LUFA-111009/LUFA/Drivers/USB/Core/DeviceStandardReq.c **** 				  USB_Device_SetConfiguration();
 110:../../LUFA-111009/LUFA/Drivers/USB/Core/DeviceStandardReq.c **** 
 111:../../LUFA-111009/LUFA/Drivers/USB/Core/DeviceStandardReq.c **** 				break;
 112:../../LUFA-111009/LUFA/Drivers/USB/Core/DeviceStandardReq.c **** 		}
 113:../../LUFA-111009/LUFA/Drivers/USB/Core/DeviceStandardReq.c **** 	}
 114:../../LUFA-111009/LUFA/Drivers/USB/Core/DeviceStandardReq.c **** 
 115:../../LUFA-111009/LUFA/Drivers/USB/Core/DeviceStandardReq.c **** 	if (Endpoint_IsSETUPReceived())
 116:../../LUFA-111009/LUFA/Drivers/USB/Core/DeviceStandardReq.c **** 	{
 117:../../LUFA-111009/LUFA/Drivers/USB/Core/DeviceStandardReq.c **** 		Endpoint_StallTransaction();
 118:../../LUFA-111009/LUFA/Drivers/USB/Core/DeviceStandardReq.c **** 		Endpoint_ClearSETUP();
 119:../../LUFA-111009/LUFA/Drivers/USB/Core/DeviceStandardReq.c **** 	}
 120:../../LUFA-111009/LUFA/Drivers/USB/Core/DeviceStandardReq.c **** }
 121:../../LUFA-111009/LUFA/Drivers/USB/Core/DeviceStandardReq.c **** 
 122:../../LUFA-111009/LUFA/Drivers/USB/Core/DeviceStandardReq.c **** static void USB_Device_SetAddress(void)
 123:../../LUFA-111009/LUFA/Drivers/USB/Core/DeviceStandardReq.c **** {
 124:../../LUFA-111009/LUFA/Drivers/USB/Core/DeviceStandardReq.c **** 	uint8_t    DeviceAddress    = (USB_ControlRequest.wValue & 0x7F);
 125:../../LUFA-111009/LUFA/Drivers/USB/Core/DeviceStandardReq.c **** 	uint_reg_t CurrentGlobalInt = GetGlobalInterruptMask();
 126:../../LUFA-111009/LUFA/Drivers/USB/Core/DeviceStandardReq.c **** 	GlobalInterruptDisable();
 127:../../LUFA-111009/LUFA/Drivers/USB/Core/DeviceStandardReq.c **** 				
 128:../../LUFA-111009/LUFA/Drivers/USB/Core/DeviceStandardReq.c **** 	Endpoint_ClearSETUP();
 129:../../LUFA-111009/LUFA/Drivers/USB/Core/DeviceStandardReq.c **** 
 130:../../LUFA-111009/LUFA/Drivers/USB/Core/DeviceStandardReq.c **** 	Endpoint_ClearStatusStage();
 131:../../LUFA-111009/LUFA/Drivers/USB/Core/DeviceStandardReq.c **** 
 132:../../LUFA-111009/LUFA/Drivers/USB/Core/DeviceStandardReq.c **** 	while (!(Endpoint_IsINReady()));
 133:../../LUFA-111009/LUFA/Drivers/USB/Core/DeviceStandardReq.c **** 
 134:../../LUFA-111009/LUFA/Drivers/USB/Core/DeviceStandardReq.c **** 	USB_Device_SetDeviceAddress(DeviceAddress);
 135:../../LUFA-111009/LUFA/Drivers/USB/Core/DeviceStandardReq.c **** 	USB_DeviceState = (DeviceAddress) ? DEVICE_STATE_Addressed : DEVICE_STATE_Default;
 136:../../LUFA-111009/LUFA/Drivers/USB/Core/DeviceStandardReq.c **** 	
 137:../../LUFA-111009/LUFA/Drivers/USB/Core/DeviceStandardReq.c **** 	SetGlobalInterruptMask(CurrentGlobalInt);
 138:../../LUFA-111009/LUFA/Drivers/USB/Core/DeviceStandardReq.c **** }
 139:../../LUFA-111009/LUFA/Drivers/USB/Core/DeviceStandardReq.c **** 
 140:../../LUFA-111009/LUFA/Drivers/USB/Core/DeviceStandardReq.c **** static void USB_Device_SetConfiguration(void)
 141:../../LUFA-111009/LUFA/Drivers/USB/Core/DeviceStandardReq.c **** {
 142:../../LUFA-111009/LUFA/Drivers/USB/Core/DeviceStandardReq.c **** 	#if defined(FIXED_NUM_CONFIGURATIONS)
 143:../../LUFA-111009/LUFA/Drivers/USB/Core/DeviceStandardReq.c **** 	if ((uint8_t)USB_ControlRequest.wValue > FIXED_NUM_CONFIGURATIONS)
 144:../../LUFA-111009/LUFA/Drivers/USB/Core/DeviceStandardReq.c **** 	  return;
 145:../../LUFA-111009/LUFA/Drivers/USB/Core/DeviceStandardReq.c **** 	#else
 146:../../LUFA-111009/LUFA/Drivers/USB/Core/DeviceStandardReq.c **** 	USB_Descriptor_Device_t* DevDescriptorPtr;
 147:../../LUFA-111009/LUFA/Drivers/USB/Core/DeviceStandardReq.c **** 
 148:../../LUFA-111009/LUFA/Drivers/USB/Core/DeviceStandardReq.c **** 	#if defined(ARCH_HAS_MULTI_ADDRESS_SPACE)
 149:../../LUFA-111009/LUFA/Drivers/USB/Core/DeviceStandardReq.c **** 		#if defined(USE_FLASH_DESCRIPTORS)
 150:../../LUFA-111009/LUFA/Drivers/USB/Core/DeviceStandardReq.c **** 			#define MemoryAddressSpace  MEMSPACE_FLASH
 151:../../LUFA-111009/LUFA/Drivers/USB/Core/DeviceStandardReq.c **** 		#elif defined(USE_EEPROM_DESCRIPTORS)
 152:../../LUFA-111009/LUFA/Drivers/USB/Core/DeviceStandardReq.c **** 			#define MemoryAddressSpace  MEMSPACE_EEPROM
 153:../../LUFA-111009/LUFA/Drivers/USB/Core/DeviceStandardReq.c **** 		#elif defined(USE_SRAM_DESCRIPTORS)
 154:../../LUFA-111009/LUFA/Drivers/USB/Core/DeviceStandardReq.c **** 			#define MemoryAddressSpace  MEMSPACE_SRAM
 155:../../LUFA-111009/LUFA/Drivers/USB/Core/DeviceStandardReq.c **** 		#else
 156:../../LUFA-111009/LUFA/Drivers/USB/Core/DeviceStandardReq.c **** 			uint8_t MemoryAddressSpace;
 157:../../LUFA-111009/LUFA/Drivers/USB/Core/DeviceStandardReq.c **** 		#endif
 158:../../LUFA-111009/LUFA/Drivers/USB/Core/DeviceStandardReq.c **** 	#endif
 159:../../LUFA-111009/LUFA/Drivers/USB/Core/DeviceStandardReq.c **** 	
 160:../../LUFA-111009/LUFA/Drivers/USB/Core/DeviceStandardReq.c **** 	if (CALLBACK_USB_GetDescriptor((DTYPE_Device << 8), 0, (void*)&DevDescriptorPtr
 161:../../LUFA-111009/LUFA/Drivers/USB/Core/DeviceStandardReq.c **** 	#if defined(ARCH_HAS_MULTI_ADDRESS_SPACE) && \
 162:../../LUFA-111009/LUFA/Drivers/USB/Core/DeviceStandardReq.c **** 	    !(defined(USE_FLASH_DESCRIPTORS) || defined(USE_EEPROM_DESCRIPTORS) || defined(USE_RAM_DESCRIP
 163:../../LUFA-111009/LUFA/Drivers/USB/Core/DeviceStandardReq.c **** 	                               , &MemoryAddressSpace
 164:../../LUFA-111009/LUFA/Drivers/USB/Core/DeviceStandardReq.c **** 	#endif
 165:../../LUFA-111009/LUFA/Drivers/USB/Core/DeviceStandardReq.c **** 	                               ) == NO_DESCRIPTOR)
 166:../../LUFA-111009/LUFA/Drivers/USB/Core/DeviceStandardReq.c **** 	{
 167:../../LUFA-111009/LUFA/Drivers/USB/Core/DeviceStandardReq.c **** 		return;
 168:../../LUFA-111009/LUFA/Drivers/USB/Core/DeviceStandardReq.c **** 	}
 169:../../LUFA-111009/LUFA/Drivers/USB/Core/DeviceStandardReq.c **** 
 170:../../LUFA-111009/LUFA/Drivers/USB/Core/DeviceStandardReq.c **** 	#if defined(ARCH_HAS_MULTI_ADDRESS_SPACE)
 171:../../LUFA-111009/LUFA/Drivers/USB/Core/DeviceStandardReq.c **** 	if (MemoryAddressSpace == MEMSPACE_FLASH)
 172:../../LUFA-111009/LUFA/Drivers/USB/Core/DeviceStandardReq.c **** 	{
 173:../../LUFA-111009/LUFA/Drivers/USB/Core/DeviceStandardReq.c **** 		if (((uint8_t)USB_ControlRequest.wValue > pgm_read_byte(&DevDescriptorPtr->NumberOfConfigurations
 174:../../LUFA-111009/LUFA/Drivers/USB/Core/DeviceStandardReq.c **** 		  return;
 175:../../LUFA-111009/LUFA/Drivers/USB/Core/DeviceStandardReq.c **** 	}
 176:../../LUFA-111009/LUFA/Drivers/USB/Core/DeviceStandardReq.c **** 	else if (MemoryAddressSpace == MEMSPACE_EEPROM)
 177:../../LUFA-111009/LUFA/Drivers/USB/Core/DeviceStandardReq.c **** 	{
 178:../../LUFA-111009/LUFA/Drivers/USB/Core/DeviceStandardReq.c **** 		if (((uint8_t)USB_ControlRequest.wValue > eeprom_read_byte(&DevDescriptorPtr->NumberOfConfigurati
 179:../../LUFA-111009/LUFA/Drivers/USB/Core/DeviceStandardReq.c **** 		  return;
 180:../../LUFA-111009/LUFA/Drivers/USB/Core/DeviceStandardReq.c **** 	}
 181:../../LUFA-111009/LUFA/Drivers/USB/Core/DeviceStandardReq.c **** 	else
 182:../../LUFA-111009/LUFA/Drivers/USB/Core/DeviceStandardReq.c **** 	{
 183:../../LUFA-111009/LUFA/Drivers/USB/Core/DeviceStandardReq.c **** 		if ((uint8_t)USB_ControlRequest.wValue > DevDescriptorPtr->NumberOfConfigurations)
 184:../../LUFA-111009/LUFA/Drivers/USB/Core/DeviceStandardReq.c **** 		  return;
 185:../../LUFA-111009/LUFA/Drivers/USB/Core/DeviceStandardReq.c **** 	}
 186:../../LUFA-111009/LUFA/Drivers/USB/Core/DeviceStandardReq.c **** 	#else
 187:../../LUFA-111009/LUFA/Drivers/USB/Core/DeviceStandardReq.c **** 	if ((uint8_t)USB_ControlRequest.wValue > DevDescriptorPtr->NumberOfConfigurations)
 188:../../LUFA-111009/LUFA/Drivers/USB/Core/DeviceStandardReq.c **** 	  return;	
 189:../../LUFA-111009/LUFA/Drivers/USB/Core/DeviceStandardReq.c **** 	#endif
 190:../../LUFA-111009/LUFA/Drivers/USB/Core/DeviceStandardReq.c **** 	#endif
 191:../../LUFA-111009/LUFA/Drivers/USB/Core/DeviceStandardReq.c **** 
 192:../../LUFA-111009/LUFA/Drivers/USB/Core/DeviceStandardReq.c **** 	Endpoint_ClearSETUP();
 193:../../LUFA-111009/LUFA/Drivers/USB/Core/DeviceStandardReq.c **** 
 194:../../LUFA-111009/LUFA/Drivers/USB/Core/DeviceStandardReq.c **** 	USB_Device_ConfigurationNumber = (uint8_t)USB_ControlRequest.wValue;
 195:../../LUFA-111009/LUFA/Drivers/USB/Core/DeviceStandardReq.c **** 
 196:../../LUFA-111009/LUFA/Drivers/USB/Core/DeviceStandardReq.c **** 	Endpoint_ClearStatusStage();
 197:../../LUFA-111009/LUFA/Drivers/USB/Core/DeviceStandardReq.c **** 
 198:../../LUFA-111009/LUFA/Drivers/USB/Core/DeviceStandardReq.c **** 	if (USB_Device_ConfigurationNumber)
 199:../../LUFA-111009/LUFA/Drivers/USB/Core/DeviceStandardReq.c **** 	  USB_DeviceState = DEVICE_STATE_Configured;
 200:../../LUFA-111009/LUFA/Drivers/USB/Core/DeviceStandardReq.c **** 	else
 201:../../LUFA-111009/LUFA/Drivers/USB/Core/DeviceStandardReq.c **** 	  USB_DeviceState = (USB_Device_IsAddressSet()) ? DEVICE_STATE_Configured : DEVICE_STATE_Powered;
 202:../../LUFA-111009/LUFA/Drivers/USB/Core/DeviceStandardReq.c **** 
 203:../../LUFA-111009/LUFA/Drivers/USB/Core/DeviceStandardReq.c **** 	EVENT_USB_Device_ConfigurationChanged();
 204:../../LUFA-111009/LUFA/Drivers/USB/Core/DeviceStandardReq.c **** }
 205:../../LUFA-111009/LUFA/Drivers/USB/Core/DeviceStandardReq.c **** 
 206:../../LUFA-111009/LUFA/Drivers/USB/Core/DeviceStandardReq.c **** static void USB_Device_GetConfiguration(void)
 207:../../LUFA-111009/LUFA/Drivers/USB/Core/DeviceStandardReq.c **** {
 208:../../LUFA-111009/LUFA/Drivers/USB/Core/DeviceStandardReq.c **** 	Endpoint_ClearSETUP();
 209:../../LUFA-111009/LUFA/Drivers/USB/Core/DeviceStandardReq.c **** 
 210:../../LUFA-111009/LUFA/Drivers/USB/Core/DeviceStandardReq.c **** 	Endpoint_Write_8(USB_Device_ConfigurationNumber);
 211:../../LUFA-111009/LUFA/Drivers/USB/Core/DeviceStandardReq.c **** 	Endpoint_ClearIN();
 212:../../LUFA-111009/LUFA/Drivers/USB/Core/DeviceStandardReq.c **** 
 213:../../LUFA-111009/LUFA/Drivers/USB/Core/DeviceStandardReq.c **** 	Endpoint_ClearStatusStage();
 214:../../LUFA-111009/LUFA/Drivers/USB/Core/DeviceStandardReq.c **** }
 215:../../LUFA-111009/LUFA/Drivers/USB/Core/DeviceStandardReq.c **** 
 216:../../LUFA-111009/LUFA/Drivers/USB/Core/DeviceStandardReq.c **** #if !defined(NO_INTERNAL_SERIAL) && (USE_INTERNAL_SERIAL != NO_DESCRIPTOR)
 217:../../LUFA-111009/LUFA/Drivers/USB/Core/DeviceStandardReq.c **** static void USB_Device_GetInternalSerialDescriptor(void)
 218:../../LUFA-111009/LUFA/Drivers/USB/Core/DeviceStandardReq.c **** {
 219:../../LUFA-111009/LUFA/Drivers/USB/Core/DeviceStandardReq.c **** 	struct
 220:../../LUFA-111009/LUFA/Drivers/USB/Core/DeviceStandardReq.c **** 	{
 221:../../LUFA-111009/LUFA/Drivers/USB/Core/DeviceStandardReq.c **** 		USB_Descriptor_Header_t Header;
 222:../../LUFA-111009/LUFA/Drivers/USB/Core/DeviceStandardReq.c **** 		uint16_t                UnicodeString[INTERNAL_SERIAL_LENGTH_BITS / 4];
 223:../../LUFA-111009/LUFA/Drivers/USB/Core/DeviceStandardReq.c **** 	} SignatureDescriptor;
 224:../../LUFA-111009/LUFA/Drivers/USB/Core/DeviceStandardReq.c **** 
 225:../../LUFA-111009/LUFA/Drivers/USB/Core/DeviceStandardReq.c **** 	SignatureDescriptor.Header.Type = DTYPE_String;
 226:../../LUFA-111009/LUFA/Drivers/USB/Core/DeviceStandardReq.c **** 	SignatureDescriptor.Header.Size = USB_STRING_LEN(INTERNAL_SERIAL_LENGTH_BITS / 4);
 227:../../LUFA-111009/LUFA/Drivers/USB/Core/DeviceStandardReq.c **** 	
 228:../../LUFA-111009/LUFA/Drivers/USB/Core/DeviceStandardReq.c **** 	USB_Device_GetSerialString(SignatureDescriptor.UnicodeString);
 229:../../LUFA-111009/LUFA/Drivers/USB/Core/DeviceStandardReq.c **** 
 230:../../LUFA-111009/LUFA/Drivers/USB/Core/DeviceStandardReq.c **** 	Endpoint_ClearSETUP();
 231:../../LUFA-111009/LUFA/Drivers/USB/Core/DeviceStandardReq.c **** 
 232:../../LUFA-111009/LUFA/Drivers/USB/Core/DeviceStandardReq.c **** 	Endpoint_Write_Control_Stream_LE(&SignatureDescriptor, sizeof(SignatureDescriptor));
 233:../../LUFA-111009/LUFA/Drivers/USB/Core/DeviceStandardReq.c **** 	Endpoint_ClearOUT();
 234:../../LUFA-111009/LUFA/Drivers/USB/Core/DeviceStandardReq.c **** }
 235:../../LUFA-111009/LUFA/Drivers/USB/Core/DeviceStandardReq.c **** #endif
 236:../../LUFA-111009/LUFA/Drivers/USB/Core/DeviceStandardReq.c **** 
 237:../../LUFA-111009/LUFA/Drivers/USB/Core/DeviceStandardReq.c **** static void USB_Device_GetDescriptor(void)
 238:../../LUFA-111009/LUFA/Drivers/USB/Core/DeviceStandardReq.c **** {
 239:../../LUFA-111009/LUFA/Drivers/USB/Core/DeviceStandardReq.c **** 	const void* DescriptorPointer;
 240:../../LUFA-111009/LUFA/Drivers/USB/Core/DeviceStandardReq.c **** 	uint16_t    DescriptorSize;
 241:../../LUFA-111009/LUFA/Drivers/USB/Core/DeviceStandardReq.c **** 
 242:../../LUFA-111009/LUFA/Drivers/USB/Core/DeviceStandardReq.c **** 	#if defined(ARCH_HAS_MULTI_ADDRESS_SPACE) && \
 243:../../LUFA-111009/LUFA/Drivers/USB/Core/DeviceStandardReq.c **** 	    !(defined(USE_FLASH_DESCRIPTORS) || defined(USE_EEPROM_DESCRIPTORS) || defined(USE_RAM_DESCRIP
 244:../../LUFA-111009/LUFA/Drivers/USB/Core/DeviceStandardReq.c **** 	uint8_t DescriptorAddressSpace;
 245:../../LUFA-111009/LUFA/Drivers/USB/Core/DeviceStandardReq.c **** 	#endif
 246:../../LUFA-111009/LUFA/Drivers/USB/Core/DeviceStandardReq.c **** 
 247:../../LUFA-111009/LUFA/Drivers/USB/Core/DeviceStandardReq.c **** 	#if !defined(NO_INTERNAL_SERIAL) && (USE_INTERNAL_SERIAL != NO_DESCRIPTOR)
 248:../../LUFA-111009/LUFA/Drivers/USB/Core/DeviceStandardReq.c **** 	if (USB_ControlRequest.wValue == ((DTYPE_String << 8) | USE_INTERNAL_SERIAL))
 249:../../LUFA-111009/LUFA/Drivers/USB/Core/DeviceStandardReq.c **** 	{
 250:../../LUFA-111009/LUFA/Drivers/USB/Core/DeviceStandardReq.c **** 		USB_Device_GetInternalSerialDescriptor();
 251:../../LUFA-111009/LUFA/Drivers/USB/Core/DeviceStandardReq.c **** 		return;
 252:../../LUFA-111009/LUFA/Drivers/USB/Core/DeviceStandardReq.c **** 	}
 253:../../LUFA-111009/LUFA/Drivers/USB/Core/DeviceStandardReq.c **** 	#endif
 254:../../LUFA-111009/LUFA/Drivers/USB/Core/DeviceStandardReq.c **** 
 255:../../LUFA-111009/LUFA/Drivers/USB/Core/DeviceStandardReq.c **** 	if ((DescriptorSize = CALLBACK_USB_GetDescriptor(USB_ControlRequest.wValue, USB_ControlRequest.wIn
 256:../../LUFA-111009/LUFA/Drivers/USB/Core/DeviceStandardReq.c **** 	                                                 &DescriptorPointer
 257:../../LUFA-111009/LUFA/Drivers/USB/Core/DeviceStandardReq.c **** 	#if defined(ARCH_HAS_MULTI_ADDRESS_SPACE) && \
 258:../../LUFA-111009/LUFA/Drivers/USB/Core/DeviceStandardReq.c **** 	    !(defined(USE_FLASH_DESCRIPTORS) || defined(USE_EEPROM_DESCRIPTORS) || defined(USE_RAM_DESCRIP
 259:../../LUFA-111009/LUFA/Drivers/USB/Core/DeviceStandardReq.c **** 	                                                 , &DescriptorAddressSpace
 260:../../LUFA-111009/LUFA/Drivers/USB/Core/DeviceStandardReq.c **** 	#endif
 261:../../LUFA-111009/LUFA/Drivers/USB/Core/DeviceStandardReq.c **** 													 )) == NO_DESCRIPTOR)
 262:../../LUFA-111009/LUFA/Drivers/USB/Core/DeviceStandardReq.c **** 	{
 263:../../LUFA-111009/LUFA/Drivers/USB/Core/DeviceStandardReq.c **** 		return;
 264:../../LUFA-111009/LUFA/Drivers/USB/Core/DeviceStandardReq.c **** 	}
 265:../../LUFA-111009/LUFA/Drivers/USB/Core/DeviceStandardReq.c **** 
 266:../../LUFA-111009/LUFA/Drivers/USB/Core/DeviceStandardReq.c **** 	Endpoint_ClearSETUP();
 267:../../LUFA-111009/LUFA/Drivers/USB/Core/DeviceStandardReq.c **** 
 268:../../LUFA-111009/LUFA/Drivers/USB/Core/DeviceStandardReq.c **** 	#if defined(USE_RAM_DESCRIPTORS) || !defined(ARCH_HAS_MULTI_ADDRESS_SPACE)
 269:../../LUFA-111009/LUFA/Drivers/USB/Core/DeviceStandardReq.c **** 	Endpoint_Write_Control_Stream_LE(DescriptorPointer, DescriptorSize);
 270:../../LUFA-111009/LUFA/Drivers/USB/Core/DeviceStandardReq.c **** 	#elif defined(USE_EEPROM_DESCRIPTORS)
 271:../../LUFA-111009/LUFA/Drivers/USB/Core/DeviceStandardReq.c **** 	Endpoint_Write_Control_EStream_LE(DescriptorPointer, DescriptorSize);
 272:../../LUFA-111009/LUFA/Drivers/USB/Core/DeviceStandardReq.c **** 	#elif defined(USE_FLASH_DESCRIPTORS)
 273:../../LUFA-111009/LUFA/Drivers/USB/Core/DeviceStandardReq.c **** 	Endpoint_Write_Control_PStream_LE(DescriptorPointer, DescriptorSize);
 274:../../LUFA-111009/LUFA/Drivers/USB/Core/DeviceStandardReq.c **** 	#else
 275:../../LUFA-111009/LUFA/Drivers/USB/Core/DeviceStandardReq.c **** 	if (DescriptorAddressSpace == MEMSPACE_FLASH)
 276:../../LUFA-111009/LUFA/Drivers/USB/Core/DeviceStandardReq.c **** 	  Endpoint_Write_Control_PStream_LE(DescriptorPointer, DescriptorSize);
 277:../../LUFA-111009/LUFA/Drivers/USB/Core/DeviceStandardReq.c **** 	else if (DescriptorAddressSpace == MEMSPACE_EEPROM)
 278:../../LUFA-111009/LUFA/Drivers/USB/Core/DeviceStandardReq.c **** 	  Endpoint_Write_Control_EStream_LE(DescriptorPointer, DescriptorSize);
 279:../../LUFA-111009/LUFA/Drivers/USB/Core/DeviceStandardReq.c **** 	else
 280:../../LUFA-111009/LUFA/Drivers/USB/Core/DeviceStandardReq.c **** 	  Endpoint_Write_Control_Stream_LE(DescriptorPointer, DescriptorSize);
 281:../../LUFA-111009/LUFA/Drivers/USB/Core/DeviceStandardReq.c **** 	#endif
 282:../../LUFA-111009/LUFA/Drivers/USB/Core/DeviceStandardReq.c **** 
 283:../../LUFA-111009/LUFA/Drivers/USB/Core/DeviceStandardReq.c **** 	Endpoint_ClearOUT();
 284:../../LUFA-111009/LUFA/Drivers/USB/Core/DeviceStandardReq.c **** }
 285:../../LUFA-111009/LUFA/Drivers/USB/Core/DeviceStandardReq.c **** 
 286:../../LUFA-111009/LUFA/Drivers/USB/Core/DeviceStandardReq.c **** static void USB_Device_GetStatus(void)
 133               		.loc 1 286 13 view .LVU26
 134               	.LBB156:
 287:../../LUFA-111009/LUFA/Drivers/USB/Core/DeviceStandardReq.c **** {
 288:../../LUFA-111009/LUFA/Drivers/USB/Core/DeviceStandardReq.c **** 	uint8_t CurrentStatus = 0;
 135               		.loc 1 288 2 view .LVU27
 136               	.LVL6:
 289:../../LUFA-111009/LUFA/Drivers/USB/Core/DeviceStandardReq.c **** 
 290:../../LUFA-111009/LUFA/Drivers/USB/Core/DeviceStandardReq.c **** 	switch (USB_ControlRequest.bmRequestType)
 137               		.loc 1 290 2 view .LVU28
 138 0048 8238      		cpi r24,lo8(-126)
 139 004a 01F4      		brne .L3
 291:../../LUFA-111009/LUFA/Drivers/USB/Core/DeviceStandardReq.c **** 	{
 292:../../LUFA-111009/LUFA/Drivers/USB/Core/DeviceStandardReq.c **** 		#if !defined(NO_DEVICE_SELF_POWER) || !defined(NO_DEVICE_REMOTE_WAKEUP)
 293:../../LUFA-111009/LUFA/Drivers/USB/Core/DeviceStandardReq.c **** 		case (REQDIR_DEVICETOHOST | REQTYPE_STANDARD | REQREC_DEVICE):
 294:../../LUFA-111009/LUFA/Drivers/USB/Core/DeviceStandardReq.c **** 			#if !defined(NO_DEVICE_SELF_POWER)
 295:../../LUFA-111009/LUFA/Drivers/USB/Core/DeviceStandardReq.c **** 			if (USB_Device_CurrentlySelfPowered)
 296:../../LUFA-111009/LUFA/Drivers/USB/Core/DeviceStandardReq.c **** 			  CurrentStatus |= FEATURE_SELFPOWERED_ENABLED;
 297:../../LUFA-111009/LUFA/Drivers/USB/Core/DeviceStandardReq.c **** 			#endif
 298:../../LUFA-111009/LUFA/Drivers/USB/Core/DeviceStandardReq.c **** 
 299:../../LUFA-111009/LUFA/Drivers/USB/Core/DeviceStandardReq.c **** 			#if !defined(NO_DEVICE_REMOTE_WAKEUP)
 300:../../LUFA-111009/LUFA/Drivers/USB/Core/DeviceStandardReq.c **** 			if (USB_Device_RemoteWakeupEnabled)
 301:../../LUFA-111009/LUFA/Drivers/USB/Core/DeviceStandardReq.c **** 			  CurrentStatus |= FEATURE_REMOTE_WAKEUP_ENABLED;
 302:../../LUFA-111009/LUFA/Drivers/USB/Core/DeviceStandardReq.c **** 			#endif
 303:../../LUFA-111009/LUFA/Drivers/USB/Core/DeviceStandardReq.c **** 			break;
 304:../../LUFA-111009/LUFA/Drivers/USB/Core/DeviceStandardReq.c **** 		#endif
 305:../../LUFA-111009/LUFA/Drivers/USB/Core/DeviceStandardReq.c **** 		#if !defined(CONTROL_ONLY_DEVICE)
 306:../../LUFA-111009/LUFA/Drivers/USB/Core/DeviceStandardReq.c **** 		case (REQDIR_DEVICETOHOST | REQTYPE_STANDARD | REQREC_ENDPOINT):
 307:../../LUFA-111009/LUFA/Drivers/USB/Core/DeviceStandardReq.c **** 			Endpoint_SelectEndpoint((uint8_t)USB_ControlRequest.wIndex & ENDPOINT_EPNUM_MASK);
 140               		.loc 1 307 4 view .LVU29
 141 004c 8091 0000 		lds r24,USB_ControlRequest+4
 142               	.LVL7:
 143               		.loc 1 307 4 is_stmt 0 view .LVU30
 144 0050 8770      		andi r24,lo8(7)
 145               	.LVL8:
 146               	.LBB157:
 147               	.LBI157:
 327:../../LUFA-111009/LUFA/Drivers/USB/Core/AVR8/../AVR8/Endpoint_AVR8.h **** 			{
 148               		.loc 2 327 23 is_stmt 1 view .LVU31
 149               	.LBB158:
 330:../../LUFA-111009/LUFA/Drivers/USB/Core/AVR8/../AVR8/Endpoint_AVR8.h **** 				#endif
 150               		.loc 2 330 6 view .LVU32
 330:../../LUFA-111009/LUFA/Drivers/USB/Core/AVR8/../AVR8/Endpoint_AVR8.h **** 				#endif
 151               		.loc 2 330 12 is_stmt 0 view .LVU33
 152 0052 8093 E900 		sts 233,r24
 153               	.LVL9:
 330:../../LUFA-111009/LUFA/Drivers/USB/Core/AVR8/../AVR8/Endpoint_AVR8.h **** 				#endif
 154               		.loc 2 330 12 view .LVU34
 155               	.LBE158:
 156               	.LBE157:
 308:../../LUFA-111009/LUFA/Drivers/USB/Core/DeviceStandardReq.c **** 
 309:../../LUFA-111009/LUFA/Drivers/USB/Core/DeviceStandardReq.c **** 			CurrentStatus = Endpoint_IsStalled();
 157               		.loc 1 309 4 is_stmt 1 view .LVU35
 158               	.LBB159:
 159               	.LBI159:
 571:../../LUFA-111009/LUFA/Drivers/USB/Core/AVR8/../AVR8/Endpoint_AVR8.h **** 			{
 160               		.loc 2 571 23 view .LVU36
 161               	.LBB160:
 573:../../LUFA-111009/LUFA/Drivers/USB/Core/AVR8/../AVR8/Endpoint_AVR8.h **** 			}
 162               		.loc 2 573 5 view .LVU37
 573:../../LUFA-111009/LUFA/Drivers/USB/Core/AVR8/../AVR8/Endpoint_AVR8.h **** 			}
 163               		.loc 2 573 14 is_stmt 0 view .LVU38
 164 0056 8091 EB00 		lds r24,235
 573:../../LUFA-111009/LUFA/Drivers/USB/Core/AVR8/../AVR8/Endpoint_AVR8.h **** 			}
 165               		.loc 2 573 46 view .LVU39
 166 005a 85FB      		bst r24,5
 167 005c 8827      		clr r24
 168 005e 80F9      		bld r24,0
 169               	.LVL10:
 573:../../LUFA-111009/LUFA/Drivers/USB/Core/AVR8/../AVR8/Endpoint_AVR8.h **** 			}
 170               		.loc 2 573 46 view .LVU40
 171               	.LBE160:
 172               	.LBE159:
 310:../../LUFA-111009/LUFA/Drivers/USB/Core/DeviceStandardReq.c **** 
 311:../../LUFA-111009/LUFA/Drivers/USB/Core/DeviceStandardReq.c **** 			Endpoint_SelectEndpoint(ENDPOINT_CONTROLEP);
 173               		.loc 1 311 4 is_stmt 1 view .LVU41
 174               	.LBB161:
 175               	.LBI161:
 327:../../LUFA-111009/LUFA/Drivers/USB/Core/AVR8/../AVR8/Endpoint_AVR8.h **** 			{
 176               		.loc 2 327 23 view .LVU42
 177               	.LBB162:
 330:../../LUFA-111009/LUFA/Drivers/USB/Core/AVR8/../AVR8/Endpoint_AVR8.h **** 				#endif
 178               		.loc 2 330 6 view .LVU43
 330:../../LUFA-111009/LUFA/Drivers/USB/Core/AVR8/../AVR8/Endpoint_AVR8.h **** 				#endif
 179               		.loc 2 330 12 is_stmt 0 view .LVU44
 180 0060 1092 E900 		sts 233,__zero_reg__
 181               	.LVL11:
 330:../../LUFA-111009/LUFA/Drivers/USB/Core/AVR8/../AVR8/Endpoint_AVR8.h **** 				#endif
 182               		.loc 2 330 12 view .LVU45
 183               	.LBE162:
 184               	.LBE161:
 312:../../LUFA-111009/LUFA/Drivers/USB/Core/DeviceStandardReq.c **** 
 313:../../LUFA-111009/LUFA/Drivers/USB/Core/DeviceStandardReq.c **** 			break;
 185               		.loc 1 313 4 is_stmt 1 view .LVU46
 314:../../LUFA-111009/LUFA/Drivers/USB/Core/DeviceStandardReq.c **** 		#endif
 315:../../LUFA-111009/LUFA/Drivers/USB/Core/DeviceStandardReq.c **** 		default:
 316:../../LUFA-111009/LUFA/Drivers/USB/Core/DeviceStandardReq.c **** 			return;
 317:../../LUFA-111009/LUFA/Drivers/USB/Core/DeviceStandardReq.c **** 	}
 318:../../LUFA-111009/LUFA/Drivers/USB/Core/DeviceStandardReq.c **** 
 319:../../LUFA-111009/LUFA/Drivers/USB/Core/DeviceStandardReq.c **** 	Endpoint_ClearSETUP();
 186               		.loc 1 319 2 view .LVU47
 187               	.LBB163:
 188               	.LBI163:
 502:../../LUFA-111009/LUFA/Drivers/USB/Core/AVR8/../AVR8/Endpoint_AVR8.h **** 			{
 189               		.loc 2 502 23 view .LVU48
 190               	.LBB164:
 504:../../LUFA-111009/LUFA/Drivers/USB/Core/AVR8/../AVR8/Endpoint_AVR8.h **** 			}
 191               		.loc 2 504 5 view .LVU49
 504:../../LUFA-111009/LUFA/Drivers/USB/Core/AVR8/../AVR8/Endpoint_AVR8.h **** 			}
 192               		.loc 2 504 12 is_stmt 0 view .LVU50
 193 0064 9091 E800 		lds r25,232
 194 0068 977F      		andi r25,lo8(-9)
 195 006a 9093 E800 		sts 232,r25
 196               	.LBE164:
 197               	.LBE163:
 320:../../LUFA-111009/LUFA/Drivers/USB/Core/DeviceStandardReq.c **** 
 321:../../LUFA-111009/LUFA/Drivers/USB/Core/DeviceStandardReq.c **** 	Endpoint_Write_16_LE(CurrentStatus);
 198               		.loc 1 321 2 is_stmt 1 view .LVU51
 199               	.LVL12:
 200               	.LBB165:
 201               	.LBI165:
 613:../../LUFA-111009/LUFA/Drivers/USB/Core/AVR8/../AVR8/Endpoint_AVR8.h **** 			}
 614:../../LUFA-111009/LUFA/Drivers/USB/Core/AVR8/../AVR8/Endpoint_AVR8.h **** 
 615:../../LUFA-111009/LUFA/Drivers/USB/Core/AVR8/../AVR8/Endpoint_AVR8.h **** 			/** Writes one byte to the currently selected endpoint's bank, for IN direction endpoints.
 616:../../LUFA-111009/LUFA/Drivers/USB/Core/AVR8/../AVR8/Endpoint_AVR8.h **** 			 *
 617:../../LUFA-111009/LUFA/Drivers/USB/Core/AVR8/../AVR8/Endpoint_AVR8.h **** 			 *  \ingroup Group_EndpointPrimitiveRW_AVR8
 618:../../LUFA-111009/LUFA/Drivers/USB/Core/AVR8/../AVR8/Endpoint_AVR8.h **** 			 *
 619:../../LUFA-111009/LUFA/Drivers/USB/Core/AVR8/../AVR8/Endpoint_AVR8.h **** 			 *  \param[in] Data  Data to write into the the currently selected endpoint's FIFO buffer.
 620:../../LUFA-111009/LUFA/Drivers/USB/Core/AVR8/../AVR8/Endpoint_AVR8.h **** 			 */
 621:../../LUFA-111009/LUFA/Drivers/USB/Core/AVR8/../AVR8/Endpoint_AVR8.h **** 			static inline void Endpoint_Write_8(const uint8_t Data) ATTR_ALWAYS_INLINE;
 622:../../LUFA-111009/LUFA/Drivers/USB/Core/AVR8/../AVR8/Endpoint_AVR8.h **** 			static inline void Endpoint_Write_8(const uint8_t Data)
 623:../../LUFA-111009/LUFA/Drivers/USB/Core/AVR8/../AVR8/Endpoint_AVR8.h **** 			{
 624:../../LUFA-111009/LUFA/Drivers/USB/Core/AVR8/../AVR8/Endpoint_AVR8.h **** 				UEDATX = Data;
 625:../../LUFA-111009/LUFA/Drivers/USB/Core/AVR8/../AVR8/Endpoint_AVR8.h **** 			}
 626:../../LUFA-111009/LUFA/Drivers/USB/Core/AVR8/../AVR8/Endpoint_AVR8.h **** 
 627:../../LUFA-111009/LUFA/Drivers/USB/Core/AVR8/../AVR8/Endpoint_AVR8.h **** 			/** Discards one byte from the currently selected endpoint's bank, for OUT direction endpoints.
 628:../../LUFA-111009/LUFA/Drivers/USB/Core/AVR8/../AVR8/Endpoint_AVR8.h **** 			 *
 629:../../LUFA-111009/LUFA/Drivers/USB/Core/AVR8/../AVR8/Endpoint_AVR8.h **** 			 *  \ingroup Group_EndpointPrimitiveRW_AVR8
 630:../../LUFA-111009/LUFA/Drivers/USB/Core/AVR8/../AVR8/Endpoint_AVR8.h **** 			 */
 631:../../LUFA-111009/LUFA/Drivers/USB/Core/AVR8/../AVR8/Endpoint_AVR8.h **** 			static inline void Endpoint_Discard_8(void) ATTR_ALWAYS_INLINE;
 632:../../LUFA-111009/LUFA/Drivers/USB/Core/AVR8/../AVR8/Endpoint_AVR8.h **** 			static inline void Endpoint_Discard_8(void)
 633:../../LUFA-111009/LUFA/Drivers/USB/Core/AVR8/../AVR8/Endpoint_AVR8.h **** 			{
 634:../../LUFA-111009/LUFA/Drivers/USB/Core/AVR8/../AVR8/Endpoint_AVR8.h **** 				uint8_t Dummy;
 635:../../LUFA-111009/LUFA/Drivers/USB/Core/AVR8/../AVR8/Endpoint_AVR8.h **** 
 636:../../LUFA-111009/LUFA/Drivers/USB/Core/AVR8/../AVR8/Endpoint_AVR8.h **** 				Dummy = UEDATX;
 637:../../LUFA-111009/LUFA/Drivers/USB/Core/AVR8/../AVR8/Endpoint_AVR8.h **** 
 638:../../LUFA-111009/LUFA/Drivers/USB/Core/AVR8/../AVR8/Endpoint_AVR8.h **** 				(void)Dummy;
 639:../../LUFA-111009/LUFA/Drivers/USB/Core/AVR8/../AVR8/Endpoint_AVR8.h **** 			}
 640:../../LUFA-111009/LUFA/Drivers/USB/Core/AVR8/../AVR8/Endpoint_AVR8.h **** 
 641:../../LUFA-111009/LUFA/Drivers/USB/Core/AVR8/../AVR8/Endpoint_AVR8.h **** 			/** Reads two bytes from the currently selected endpoint's bank in little endian format, for OUT
 642:../../LUFA-111009/LUFA/Drivers/USB/Core/AVR8/../AVR8/Endpoint_AVR8.h **** 			 *  direction endpoints.
 643:../../LUFA-111009/LUFA/Drivers/USB/Core/AVR8/../AVR8/Endpoint_AVR8.h **** 			 *
 644:../../LUFA-111009/LUFA/Drivers/USB/Core/AVR8/../AVR8/Endpoint_AVR8.h **** 			 *  \ingroup Group_EndpointPrimitiveRW_AVR8
 645:../../LUFA-111009/LUFA/Drivers/USB/Core/AVR8/../AVR8/Endpoint_AVR8.h **** 			 *
 646:../../LUFA-111009/LUFA/Drivers/USB/Core/AVR8/../AVR8/Endpoint_AVR8.h **** 			 *  \return Next two bytes in the currently selected endpoint's FIFO buffer.
 647:../../LUFA-111009/LUFA/Drivers/USB/Core/AVR8/../AVR8/Endpoint_AVR8.h **** 			 */
 648:../../LUFA-111009/LUFA/Drivers/USB/Core/AVR8/../AVR8/Endpoint_AVR8.h **** 			static inline uint16_t Endpoint_Read_16_LE(void) ATTR_WARN_UNUSED_RESULT ATTR_ALWAYS_INLINE;
 649:../../LUFA-111009/LUFA/Drivers/USB/Core/AVR8/../AVR8/Endpoint_AVR8.h **** 			static inline uint16_t Endpoint_Read_16_LE(void)
 650:../../LUFA-111009/LUFA/Drivers/USB/Core/AVR8/../AVR8/Endpoint_AVR8.h **** 			{
 651:../../LUFA-111009/LUFA/Drivers/USB/Core/AVR8/../AVR8/Endpoint_AVR8.h **** 				union
 652:../../LUFA-111009/LUFA/Drivers/USB/Core/AVR8/../AVR8/Endpoint_AVR8.h **** 				{
 653:../../LUFA-111009/LUFA/Drivers/USB/Core/AVR8/../AVR8/Endpoint_AVR8.h **** 					uint16_t Value;
 654:../../LUFA-111009/LUFA/Drivers/USB/Core/AVR8/../AVR8/Endpoint_AVR8.h **** 					uint8_t  Bytes[2];
 655:../../LUFA-111009/LUFA/Drivers/USB/Core/AVR8/../AVR8/Endpoint_AVR8.h **** 				} Data;
 656:../../LUFA-111009/LUFA/Drivers/USB/Core/AVR8/../AVR8/Endpoint_AVR8.h **** 
 657:../../LUFA-111009/LUFA/Drivers/USB/Core/AVR8/../AVR8/Endpoint_AVR8.h **** 				Data.Bytes[0] = UEDATX;
 658:../../LUFA-111009/LUFA/Drivers/USB/Core/AVR8/../AVR8/Endpoint_AVR8.h **** 				Data.Bytes[1] = UEDATX;
 659:../../LUFA-111009/LUFA/Drivers/USB/Core/AVR8/../AVR8/Endpoint_AVR8.h **** 
 660:../../LUFA-111009/LUFA/Drivers/USB/Core/AVR8/../AVR8/Endpoint_AVR8.h **** 				return Data.Value;
 661:../../LUFA-111009/LUFA/Drivers/USB/Core/AVR8/../AVR8/Endpoint_AVR8.h **** 			}
 662:../../LUFA-111009/LUFA/Drivers/USB/Core/AVR8/../AVR8/Endpoint_AVR8.h **** 
 663:../../LUFA-111009/LUFA/Drivers/USB/Core/AVR8/../AVR8/Endpoint_AVR8.h **** 			/** Reads two bytes from the currently selected endpoint's bank in big endian format, for OUT
 664:../../LUFA-111009/LUFA/Drivers/USB/Core/AVR8/../AVR8/Endpoint_AVR8.h **** 			 *  direction endpoints.
 665:../../LUFA-111009/LUFA/Drivers/USB/Core/AVR8/../AVR8/Endpoint_AVR8.h **** 			 *
 666:../../LUFA-111009/LUFA/Drivers/USB/Core/AVR8/../AVR8/Endpoint_AVR8.h **** 			 *  \ingroup Group_EndpointPrimitiveRW_AVR8
 667:../../LUFA-111009/LUFA/Drivers/USB/Core/AVR8/../AVR8/Endpoint_AVR8.h **** 			 *
 668:../../LUFA-111009/LUFA/Drivers/USB/Core/AVR8/../AVR8/Endpoint_AVR8.h **** 			 *  \return Next two bytes in the currently selected endpoint's FIFO buffer.
 669:../../LUFA-111009/LUFA/Drivers/USB/Core/AVR8/../AVR8/Endpoint_AVR8.h **** 			 */
 670:../../LUFA-111009/LUFA/Drivers/USB/Core/AVR8/../AVR8/Endpoint_AVR8.h **** 			static inline uint16_t Endpoint_Read_16_BE(void) ATTR_WARN_UNUSED_RESULT ATTR_ALWAYS_INLINE;
 671:../../LUFA-111009/LUFA/Drivers/USB/Core/AVR8/../AVR8/Endpoint_AVR8.h **** 			static inline uint16_t Endpoint_Read_16_BE(void)
 672:../../LUFA-111009/LUFA/Drivers/USB/Core/AVR8/../AVR8/Endpoint_AVR8.h **** 			{
 673:../../LUFA-111009/LUFA/Drivers/USB/Core/AVR8/../AVR8/Endpoint_AVR8.h **** 				union
 674:../../LUFA-111009/LUFA/Drivers/USB/Core/AVR8/../AVR8/Endpoint_AVR8.h **** 				{
 675:../../LUFA-111009/LUFA/Drivers/USB/Core/AVR8/../AVR8/Endpoint_AVR8.h **** 					uint16_t Value;
 676:../../LUFA-111009/LUFA/Drivers/USB/Core/AVR8/../AVR8/Endpoint_AVR8.h **** 					uint8_t  Bytes[2];
 677:../../LUFA-111009/LUFA/Drivers/USB/Core/AVR8/../AVR8/Endpoint_AVR8.h **** 				} Data;
 678:../../LUFA-111009/LUFA/Drivers/USB/Core/AVR8/../AVR8/Endpoint_AVR8.h **** 
 679:../../LUFA-111009/LUFA/Drivers/USB/Core/AVR8/../AVR8/Endpoint_AVR8.h **** 				Data.Bytes[1] = UEDATX;
 680:../../LUFA-111009/LUFA/Drivers/USB/Core/AVR8/../AVR8/Endpoint_AVR8.h **** 				Data.Bytes[0] = UEDATX;
 681:../../LUFA-111009/LUFA/Drivers/USB/Core/AVR8/../AVR8/Endpoint_AVR8.h **** 
 682:../../LUFA-111009/LUFA/Drivers/USB/Core/AVR8/../AVR8/Endpoint_AVR8.h **** 				return Data.Value;
 683:../../LUFA-111009/LUFA/Drivers/USB/Core/AVR8/../AVR8/Endpoint_AVR8.h **** 			}
 684:../../LUFA-111009/LUFA/Drivers/USB/Core/AVR8/../AVR8/Endpoint_AVR8.h **** 
 685:../../LUFA-111009/LUFA/Drivers/USB/Core/AVR8/../AVR8/Endpoint_AVR8.h **** 			/** Writes two bytes to the currently selected endpoint's bank in little endian format, for IN
 686:../../LUFA-111009/LUFA/Drivers/USB/Core/AVR8/../AVR8/Endpoint_AVR8.h **** 			 *  direction endpoints.
 687:../../LUFA-111009/LUFA/Drivers/USB/Core/AVR8/../AVR8/Endpoint_AVR8.h **** 			 *
 688:../../LUFA-111009/LUFA/Drivers/USB/Core/AVR8/../AVR8/Endpoint_AVR8.h **** 			 *  \ingroup Group_EndpointPrimitiveRW_AVR8
 689:../../LUFA-111009/LUFA/Drivers/USB/Core/AVR8/../AVR8/Endpoint_AVR8.h **** 			 *
 690:../../LUFA-111009/LUFA/Drivers/USB/Core/AVR8/../AVR8/Endpoint_AVR8.h **** 			 *  \param[in] Data  Data to write to the currently selected endpoint's FIFO buffer.
 691:../../LUFA-111009/LUFA/Drivers/USB/Core/AVR8/../AVR8/Endpoint_AVR8.h **** 			 */
 692:../../LUFA-111009/LUFA/Drivers/USB/Core/AVR8/../AVR8/Endpoint_AVR8.h **** 			static inline void Endpoint_Write_16_LE(const uint16_t Data) ATTR_ALWAYS_INLINE;
 693:../../LUFA-111009/LUFA/Drivers/USB/Core/AVR8/../AVR8/Endpoint_AVR8.h **** 			static inline void Endpoint_Write_16_LE(const uint16_t Data)
 202               		.loc 2 693 23 view .LVU52
 203               	.LBB166:
 694:../../LUFA-111009/LUFA/Drivers/USB/Core/AVR8/../AVR8/Endpoint_AVR8.h **** 			{
 695:../../LUFA-111009/LUFA/Drivers/USB/Core/AVR8/../AVR8/Endpoint_AVR8.h **** 				UEDATX = (Data & 0xFF);
 204               		.loc 2 695 5 view .LVU53
 205               		.loc 2 695 12 is_stmt 0 view .LVU54
 206 006e 8093 F100 		sts 241,r24
 696:../../LUFA-111009/LUFA/Drivers/USB/Core/AVR8/../AVR8/Endpoint_AVR8.h **** 				UEDATX = (Data >> 8);
 207               		.loc 2 696 5 is_stmt 1 view .LVU55
 208               		.loc 2 696 12 is_stmt 0 view .LVU56
 209 0072 1092 F100 		sts 241,__zero_reg__
 210               		.loc 2 696 12 view .LVU57
 211               	.LBE166:
 212               	.LBE165:
 322:../../LUFA-111009/LUFA/Drivers/USB/Core/DeviceStandardReq.c **** 	Endpoint_ClearIN();
 213               		.loc 1 322 2 is_stmt 1 view .LVU58
 214               	.LBB167:
 215               	.LBI167:
 513:../../LUFA-111009/LUFA/Drivers/USB/Core/AVR8/../AVR8/Endpoint_AVR8.h **** 			{
 216               		.loc 2 513 23 view .LVU59
 217               	.LBB168:
 516:../../LUFA-111009/LUFA/Drivers/USB/Core/AVR8/../AVR8/Endpoint_AVR8.h **** 				#else
 218               		.loc 2 516 6 view .LVU60
 219               	.LVL13:
 220               	.L41:
 516:../../LUFA-111009/LUFA/Drivers/USB/Core/AVR8/../AVR8/Endpoint_AVR8.h **** 				#else
 221               		.loc 2 516 6 is_stmt 0 view .LVU61
 222               	.LBE168:
 223               	.LBE167:
 224               	.LBE156:
 225               	.LBE155:
 226               	.LBB169:
 227               	.LBB170:
 211:../../LUFA-111009/LUFA/Drivers/USB/Core/DeviceStandardReq.c **** 
 228               		.loc 1 211 2 is_stmt 1 view .LVU62
 229               	.LBB171:
 230               	.LBI171:
 513:../../LUFA-111009/LUFA/Drivers/USB/Core/AVR8/../AVR8/Endpoint_AVR8.h **** 			{
 231               		.loc 2 513 23 view .LVU63
 232               	.LBB172:
 516:../../LUFA-111009/LUFA/Drivers/USB/Core/AVR8/../AVR8/Endpoint_AVR8.h **** 				#else
 233               		.loc 2 516 6 view .LVU64
 516:../../LUFA-111009/LUFA/Drivers/USB/Core/AVR8/../AVR8/Endpoint_AVR8.h **** 				#else
 234               		.loc 2 516 13 is_stmt 0 view .LVU65
 235 0076 8091 E800 		lds r24,232
 236 007a 8E77      		andi r24,lo8(126)
 237 007c 00C0      		rjmp .L40
 238               	.LVL14:
 239               	.L9:
 516:../../LUFA-111009/LUFA/Drivers/USB/Core/AVR8/../AVR8/Endpoint_AVR8.h **** 				#else
 240               		.loc 2 516 13 view .LVU66
 241               	.LBE172:
 242               	.LBE171:
 243               	.LBE170:
 244               	.LBE169:
  82:../../LUFA-111009/LUFA/Drivers/USB/Core/DeviceStandardReq.c **** 					(bmRequestType == (REQDIR_HOSTTODEVICE | REQTYPE_STANDARD | REQREC_ENDPOINT)))
 245               		.loc 1 82 5 is_stmt 1 view .LVU67
  82:../../LUFA-111009/LUFA/Drivers/USB/Core/DeviceStandardReq.c **** 					(bmRequestType == (REQDIR_HOSTTODEVICE | REQTYPE_STANDARD | REQREC_ENDPOINT)))
 246               		.loc 1 82 8 is_stmt 0 view .LVU68
 247 007e 8230      		cpi r24,lo8(2)
 248 0080 01F4      		brne .+2
 249 0082 00C0      		rjmp .L38
 250               	.LVL15:
 251               	.L3:
  82:../../LUFA-111009/LUFA/Drivers/USB/Core/DeviceStandardReq.c **** 					(bmRequestType == (REQDIR_HOSTTODEVICE | REQTYPE_STANDARD | REQREC_ENDPOINT)))
 252               		.loc 1 82 8 view .LVU69
 253               	.LBE154:
 115:../../LUFA-111009/LUFA/Drivers/USB/Core/DeviceStandardReq.c **** 	{
 254               		.loc 1 115 2 is_stmt 1 view .LVU70
 255               	.LBB233:
 256               	.LBI233:
 489:../../LUFA-111009/LUFA/Drivers/USB/Core/AVR8/../AVR8/Endpoint_AVR8.h **** 			{
 257               		.loc 2 489 23 view .LVU71
 258               	.LBB234:
 491:../../LUFA-111009/LUFA/Drivers/USB/Core/AVR8/../AVR8/Endpoint_AVR8.h **** 			}
 259               		.loc 2 491 5 view .LVU72
 491:../../LUFA-111009/LUFA/Drivers/USB/Core/AVR8/../AVR8/Endpoint_AVR8.h **** 			}
 260               		.loc 2 491 14 is_stmt 0 view .LVU73
 261 0084 8091 E800 		lds r24,232
 262               	.LBE234:
 263               	.LBE233:
 115:../../LUFA-111009/LUFA/Drivers/USB/Core/DeviceStandardReq.c **** 	{
 264               		.loc 1 115 5 view .LVU74
 265 0088 83FF      		sbrs r24,3
 266 008a 00C0      		rjmp .L1
 117:../../LUFA-111009/LUFA/Drivers/USB/Core/DeviceStandardReq.c **** 		Endpoint_ClearSETUP();
 267               		.loc 1 117 3 is_stmt 1 view .LVU75
 268               	.LBB235:
 269               	.LBI235:
 549:../../LUFA-111009/LUFA/Drivers/USB/Core/AVR8/../AVR8/Endpoint_AVR8.h **** 			{
 270               		.loc 2 549 23 view .LVU76
 271               	.LBB236:
 551:../../LUFA-111009/LUFA/Drivers/USB/Core/AVR8/../AVR8/Endpoint_AVR8.h **** 			}
 272               		.loc 2 551 5 view .LVU77
 551:../../LUFA-111009/LUFA/Drivers/USB/Core/AVR8/../AVR8/Endpoint_AVR8.h **** 			}
 273               		.loc 2 551 12 is_stmt 0 view .LVU78
 274 008c 8091 EB00 		lds r24,235
 275 0090 8062      		ori r24,lo8(32)
 276 0092 8093 EB00 		sts 235,r24
 277               	.LBE236:
 278               	.LBE235:
 118:../../LUFA-111009/LUFA/Drivers/USB/Core/DeviceStandardReq.c **** 	}
 279               		.loc 1 118 3 is_stmt 1 view .LVU79
 280               	.LBB237:
 281               	.LBI237:
 502:../../LUFA-111009/LUFA/Drivers/USB/Core/AVR8/../AVR8/Endpoint_AVR8.h **** 			{
 282               		.loc 2 502 23 view .LVU80
 283               	.LBB238:
 504:../../LUFA-111009/LUFA/Drivers/USB/Core/AVR8/../AVR8/Endpoint_AVR8.h **** 			}
 284               		.loc 2 504 5 view .LVU81
 504:../../LUFA-111009/LUFA/Drivers/USB/Core/AVR8/../AVR8/Endpoint_AVR8.h **** 			}
 285               		.loc 2 504 12 is_stmt 0 view .LVU82
 286 0096 8091 E800 		lds r24,232
 287 009a 877F      		andi r24,lo8(-9)
 288 009c 8093 E800 		sts 232,r24
 289               	.L1:
 290               	/* epilogue start */
 291               	.LBE238:
 292               	.LBE237:
 120:../../LUFA-111009/LUFA/Drivers/USB/Core/DeviceStandardReq.c **** 
 293               		.loc 1 120 1 view .LVU83
 294 00a0 0F90      		pop __tmp_reg__
 295 00a2 0F90      		pop __tmp_reg__
 296 00a4 DF91      		pop r29
 297 00a6 CF91      		pop r28
 298 00a8 1F91      		pop r17
 299 00aa 0F91      		pop r16
 300 00ac 0895      		ret
 301               	.LVL16:
 302               	.L14:
 303               	.LBB239:
 304               	.LBB181:
 305               	.LBB182:
 306               	.LBB183:
 323:../../LUFA-111009/LUFA/Drivers/USB/Core/DeviceStandardReq.c **** 
 324:../../LUFA-111009/LUFA/Drivers/USB/Core/DeviceStandardReq.c **** 	Endpoint_ClearStatusStage();
 325:../../LUFA-111009/LUFA/Drivers/USB/Core/DeviceStandardReq.c **** }
 326:../../LUFA-111009/LUFA/Drivers/USB/Core/DeviceStandardReq.c **** 
 327:../../LUFA-111009/LUFA/Drivers/USB/Core/DeviceStandardReq.c **** static void USB_Device_ClearSetFeature(void)
 328:../../LUFA-111009/LUFA/Drivers/USB/Core/DeviceStandardReq.c **** {
 329:../../LUFA-111009/LUFA/Drivers/USB/Core/DeviceStandardReq.c **** 	switch (USB_ControlRequest.bmRequestType & CONTROL_REQTYPE_RECIPIENT)
 330:../../LUFA-111009/LUFA/Drivers/USB/Core/DeviceStandardReq.c **** 	{
 331:../../LUFA-111009/LUFA/Drivers/USB/Core/DeviceStandardReq.c **** 		#if !defined(NO_DEVICE_REMOTE_WAKEUP)
 332:../../LUFA-111009/LUFA/Drivers/USB/Core/DeviceStandardReq.c **** 		case REQREC_DEVICE:
 333:../../LUFA-111009/LUFA/Drivers/USB/Core/DeviceStandardReq.c **** 			if ((uint8_t)USB_ControlRequest.wValue == FEATURE_SEL_DeviceRemoteWakeup)
 334:../../LUFA-111009/LUFA/Drivers/USB/Core/DeviceStandardReq.c **** 			  USB_Device_RemoteWakeupEnabled = (USB_ControlRequest.bRequest == REQ_SetFeature);
 335:../../LUFA-111009/LUFA/Drivers/USB/Core/DeviceStandardReq.c **** 			else
 336:../../LUFA-111009/LUFA/Drivers/USB/Core/DeviceStandardReq.c **** 			  return;
 337:../../LUFA-111009/LUFA/Drivers/USB/Core/DeviceStandardReq.c **** 
 338:../../LUFA-111009/LUFA/Drivers/USB/Core/DeviceStandardReq.c **** 			break;
 339:../../LUFA-111009/LUFA/Drivers/USB/Core/DeviceStandardReq.c **** 		#endif
 340:../../LUFA-111009/LUFA/Drivers/USB/Core/DeviceStandardReq.c **** 		#if !defined(CONTROL_ONLY_DEVICE)
 341:../../LUFA-111009/LUFA/Drivers/USB/Core/DeviceStandardReq.c **** 		case REQREC_ENDPOINT:
 342:../../LUFA-111009/LUFA/Drivers/USB/Core/DeviceStandardReq.c **** 			if ((uint8_t)USB_ControlRequest.wValue == FEATURE_SEL_EndpointHalt)
 343:../../LUFA-111009/LUFA/Drivers/USB/Core/DeviceStandardReq.c **** 			{
 344:../../LUFA-111009/LUFA/Drivers/USB/Core/DeviceStandardReq.c **** 				uint8_t EndpointIndex = ((uint8_t)USB_ControlRequest.wIndex & ENDPOINT_EPNUM_MASK);
 345:../../LUFA-111009/LUFA/Drivers/USB/Core/DeviceStandardReq.c **** 
 346:../../LUFA-111009/LUFA/Drivers/USB/Core/DeviceStandardReq.c **** 				if (EndpointIndex == ENDPOINT_CONTROLEP)
 347:../../LUFA-111009/LUFA/Drivers/USB/Core/DeviceStandardReq.c **** 				  return;
 348:../../LUFA-111009/LUFA/Drivers/USB/Core/DeviceStandardReq.c **** 
 349:../../LUFA-111009/LUFA/Drivers/USB/Core/DeviceStandardReq.c **** 				Endpoint_SelectEndpoint(EndpointIndex);
 350:../../LUFA-111009/LUFA/Drivers/USB/Core/DeviceStandardReq.c **** 
 351:../../LUFA-111009/LUFA/Drivers/USB/Core/DeviceStandardReq.c **** 				if (Endpoint_IsEnabled())
 352:../../LUFA-111009/LUFA/Drivers/USB/Core/DeviceStandardReq.c **** 				{
 353:../../LUFA-111009/LUFA/Drivers/USB/Core/DeviceStandardReq.c **** 					if (USB_ControlRequest.bRequest == REQ_SetFeature)
 354:../../LUFA-111009/LUFA/Drivers/USB/Core/DeviceStandardReq.c **** 					{
 355:../../LUFA-111009/LUFA/Drivers/USB/Core/DeviceStandardReq.c **** 						Endpoint_StallTransaction();
 356:../../LUFA-111009/LUFA/Drivers/USB/Core/DeviceStandardReq.c **** 					}
 357:../../LUFA-111009/LUFA/Drivers/USB/Core/DeviceStandardReq.c **** 					else
 358:../../LUFA-111009/LUFA/Drivers/USB/Core/DeviceStandardReq.c **** 					{
 359:../../LUFA-111009/LUFA/Drivers/USB/Core/DeviceStandardReq.c **** 						Endpoint_ClearStall();
 307               		.loc 1 359 7 is_stmt 1 view .LVU84
 308               	.LBB184:
 309               	.LBI184:
 559:../../LUFA-111009/LUFA/Drivers/USB/Core/AVR8/../AVR8/Endpoint_AVR8.h **** 			{
 310               		.loc 2 559 23 view .LVU85
 311               	.LBB185:
 561:../../LUFA-111009/LUFA/Drivers/USB/Core/AVR8/../AVR8/Endpoint_AVR8.h **** 			}
 312               		.loc 2 561 5 view .LVU86
 561:../../LUFA-111009/LUFA/Drivers/USB/Core/AVR8/../AVR8/Endpoint_AVR8.h **** 			}
 313               		.loc 2 561 12 is_stmt 0 view .LVU87
 314 00ae 9091 EB00 		lds r25,235
 315 00b2 9061      		ori r25,lo8(16)
 316 00b4 9093 EB00 		sts 235,r25
 317               	.LBE185:
 318               	.LBE184:
 360:../../LUFA-111009/LUFA/Drivers/USB/Core/DeviceStandardReq.c **** 						Endpoint_ResetEndpoint(EndpointIndex);
 319               		.loc 1 360 7 is_stmt 1 view .LVU88
 320               	.LVL17:
 321               	.LBB186:
 322               	.LBI186:
 340:../../LUFA-111009/LUFA/Drivers/USB/Core/AVR8/../AVR8/Endpoint_AVR8.h **** 			{
 323               		.loc 2 340 23 view .LVU89
 324               	.LBB187:
 342:../../LUFA-111009/LUFA/Drivers/USB/Core/AVR8/../AVR8/Endpoint_AVR8.h **** 				UERST = 0;
 325               		.loc 2 342 5 view .LVU90
 342:../../LUFA-111009/LUFA/Drivers/USB/Core/AVR8/../AVR8/Endpoint_AVR8.h **** 				UERST = 0;
 326               		.loc 2 342 16 is_stmt 0 view .LVU91
 327 00b8 21E0      		ldi r18,lo8(1)
 328 00ba 30E0      		ldi r19,0
 329 00bc 00C0      		rjmp 2f
 330               		1:
 331 00be 220F      		lsl r18
 332               		2:
 333 00c0 8A95      		dec r24
 334 00c2 02F4      		brpl 1b
 342:../../LUFA-111009/LUFA/Drivers/USB/Core/AVR8/../AVR8/Endpoint_AVR8.h **** 				UERST = 0;
 335               		.loc 2 342 11 view .LVU92
 336 00c4 2093 EA00 		sts 234,r18
 343:../../LUFA-111009/LUFA/Drivers/USB/Core/AVR8/../AVR8/Endpoint_AVR8.h **** 			}
 337               		.loc 2 343 5 is_stmt 1 view .LVU93
 343:../../LUFA-111009/LUFA/Drivers/USB/Core/AVR8/../AVR8/Endpoint_AVR8.h **** 			}
 338               		.loc 2 343 11 is_stmt 0 view .LVU94
 339 00c8 1092 EA00 		sts 234,__zero_reg__
 340               	.LVL18:
 343:../../LUFA-111009/LUFA/Drivers/USB/Core/AVR8/../AVR8/Endpoint_AVR8.h **** 			}
 341               		.loc 2 343 11 view .LVU95
 342               	.LBE187:
 343               	.LBE186:
 361:../../LUFA-111009/LUFA/Drivers/USB/Core/DeviceStandardReq.c **** 						Endpoint_ResetDataToggle();
 344               		.loc 1 361 7 is_stmt 1 view .LVU96
 345               	.LBB188:
 346               	.LBI188:
 578:../../LUFA-111009/LUFA/Drivers/USB/Core/AVR8/../AVR8/Endpoint_AVR8.h **** 			{
 347               		.loc 2 578 23 view .LVU97
 348               	.LBB189:
 580:../../LUFA-111009/LUFA/Drivers/USB/Core/AVR8/../AVR8/Endpoint_AVR8.h **** 			}
 349               		.loc 2 580 5 view .LVU98
 580:../../LUFA-111009/LUFA/Drivers/USB/Core/AVR8/../AVR8/Endpoint_AVR8.h **** 			}
 350               		.loc 2 580 12 is_stmt 0 view .LVU99
 351 00cc 8091 EB00 		lds r24,235
 352               	.LVL19:
 580:../../LUFA-111009/LUFA/Drivers/USB/Core/AVR8/../AVR8/Endpoint_AVR8.h **** 			}
 353               		.loc 2 580 12 view .LVU100
 354 00d0 8860      		ori r24,lo8(8)
 355 00d2 00C0      		rjmp .L39
 356               	.LVL20:
 357               	.L8:
 580:../../LUFA-111009/LUFA/Drivers/USB/Core/AVR8/../AVR8/Endpoint_AVR8.h **** 			}
 358               		.loc 2 580 12 view .LVU101
 359               	.LBE189:
 360               	.LBE188:
 361               	.LBE183:
 362               	.LBE182:
 363               	.LBE181:
  90:../../LUFA-111009/LUFA/Drivers/USB/Core/DeviceStandardReq.c **** 				  USB_Device_SetAddress();
 364               		.loc 1 90 5 is_stmt 1 view .LVU102
  90:../../LUFA-111009/LUFA/Drivers/USB/Core/DeviceStandardReq.c **** 				  USB_Device_SetAddress();
 365               		.loc 1 90 8 is_stmt 0 view .LVU103
 366 00d4 8111      		cpse r24,__zero_reg__
 367 00d6 00C0      		rjmp .L3
  91:../../LUFA-111009/LUFA/Drivers/USB/Core/DeviceStandardReq.c **** 
 368               		.loc 1 91 7 is_stmt 1 view .LVU104
 369               	.LBB204:
 370               	.LBI204:
 122:../../LUFA-111009/LUFA/Drivers/USB/Core/DeviceStandardReq.c **** {
 371               		.loc 1 122 13 view .LVU105
 372               	.LBB205:
 124:../../LUFA-111009/LUFA/Drivers/USB/Core/DeviceStandardReq.c **** 	uint_reg_t CurrentGlobalInt = GetGlobalInterruptMask();
 373               		.loc 1 124 2 view .LVU106
 124:../../LUFA-111009/LUFA/Drivers/USB/Core/DeviceStandardReq.c **** 	uint_reg_t CurrentGlobalInt = GetGlobalInterruptMask();
 374               		.loc 1 124 13 is_stmt 0 view .LVU107
 375 00d8 1091 0000 		lds r17,USB_ControlRequest+2
 376 00dc 1F77      		andi r17,lo8(127)
 377               	.LVL21:
 125:../../LUFA-111009/LUFA/Drivers/USB/Core/DeviceStandardReq.c **** 	GlobalInterruptDisable();
 378               		.loc 1 125 2 is_stmt 1 view .LVU108
 379               	.LBB206:
 380               	.LBI206:
 381               		.file 3 "../../LUFA-111009/LUFA/Drivers/USB/Core/../../../Common/Common.h"
   1:../../LUFA-111009/LUFA/Drivers/USB/Core/../../../Common/Common.h **** /*
   2:../../LUFA-111009/LUFA/Drivers/USB/Core/../../../Common/Common.h ****              LUFA Library
   3:../../LUFA-111009/LUFA/Drivers/USB/Core/../../../Common/Common.h ****      Copyright (C) Dean Camera, 2011.
   4:../../LUFA-111009/LUFA/Drivers/USB/Core/../../../Common/Common.h **** 
   5:../../LUFA-111009/LUFA/Drivers/USB/Core/../../../Common/Common.h ****   dean [at] fourwalledcubicle [dot] com
   6:../../LUFA-111009/LUFA/Drivers/USB/Core/../../../Common/Common.h ****            www.lufa-lib.org
   7:../../LUFA-111009/LUFA/Drivers/USB/Core/../../../Common/Common.h **** */
   8:../../LUFA-111009/LUFA/Drivers/USB/Core/../../../Common/Common.h **** 
   9:../../LUFA-111009/LUFA/Drivers/USB/Core/../../../Common/Common.h **** /*
  10:../../LUFA-111009/LUFA/Drivers/USB/Core/../../../Common/Common.h ****   Copyright 2011  Dean Camera (dean [at] fourwalledcubicle [dot] com)
  11:../../LUFA-111009/LUFA/Drivers/USB/Core/../../../Common/Common.h **** 
  12:../../LUFA-111009/LUFA/Drivers/USB/Core/../../../Common/Common.h ****   Permission to use, copy, modify, distribute, and sell this
  13:../../LUFA-111009/LUFA/Drivers/USB/Core/../../../Common/Common.h ****   software and its documentation for any purpose is hereby granted
  14:../../LUFA-111009/LUFA/Drivers/USB/Core/../../../Common/Common.h ****   without fee, provided that the above copyright notice appear in
  15:../../LUFA-111009/LUFA/Drivers/USB/Core/../../../Common/Common.h ****   all copies and that both that the copyright notice and this
  16:../../LUFA-111009/LUFA/Drivers/USB/Core/../../../Common/Common.h ****   permission notice and warranty disclaimer appear in supporting
  17:../../LUFA-111009/LUFA/Drivers/USB/Core/../../../Common/Common.h ****   documentation, and that the name of the author not be used in
  18:../../LUFA-111009/LUFA/Drivers/USB/Core/../../../Common/Common.h ****   advertising or publicity pertaining to distribution of the
  19:../../LUFA-111009/LUFA/Drivers/USB/Core/../../../Common/Common.h ****   software without specific, written prior permission.
  20:../../LUFA-111009/LUFA/Drivers/USB/Core/../../../Common/Common.h **** 
  21:../../LUFA-111009/LUFA/Drivers/USB/Core/../../../Common/Common.h ****   The author disclaim all warranties with regard to this
  22:../../LUFA-111009/LUFA/Drivers/USB/Core/../../../Common/Common.h ****   software, including all implied warranties of merchantability
  23:../../LUFA-111009/LUFA/Drivers/USB/Core/../../../Common/Common.h ****   and fitness.  In no event shall the author be liable for any
  24:../../LUFA-111009/LUFA/Drivers/USB/Core/../../../Common/Common.h ****   special, indirect or consequential damages or any damages
  25:../../LUFA-111009/LUFA/Drivers/USB/Core/../../../Common/Common.h ****   whatsoever resulting from loss of use, data or profits, whether
  26:../../LUFA-111009/LUFA/Drivers/USB/Core/../../../Common/Common.h ****   in an action of contract, negligence or other tortious action,
  27:../../LUFA-111009/LUFA/Drivers/USB/Core/../../../Common/Common.h ****   arising out of or in connection with the use or performance of
  28:../../LUFA-111009/LUFA/Drivers/USB/Core/../../../Common/Common.h ****   this software.
  29:../../LUFA-111009/LUFA/Drivers/USB/Core/../../../Common/Common.h **** */
  30:../../LUFA-111009/LUFA/Drivers/USB/Core/../../../Common/Common.h **** 
  31:../../LUFA-111009/LUFA/Drivers/USB/Core/../../../Common/Common.h **** /** \file
  32:../../LUFA-111009/LUFA/Drivers/USB/Core/../../../Common/Common.h ****  *  \brief Common library convenience headers, macros and functions.
  33:../../LUFA-111009/LUFA/Drivers/USB/Core/../../../Common/Common.h ****  *
  34:../../LUFA-111009/LUFA/Drivers/USB/Core/../../../Common/Common.h ****  *  \copydetails Group_Common
  35:../../LUFA-111009/LUFA/Drivers/USB/Core/../../../Common/Common.h ****  */
  36:../../LUFA-111009/LUFA/Drivers/USB/Core/../../../Common/Common.h **** 
  37:../../LUFA-111009/LUFA/Drivers/USB/Core/../../../Common/Common.h **** /** \defgroup Group_Common Common Utility Headers - LUFA/Drivers/Common/Common.h
  38:../../LUFA-111009/LUFA/Drivers/USB/Core/../../../Common/Common.h ****  *  \brief Common library convenience headers, macros and functions.
  39:../../LUFA-111009/LUFA/Drivers/USB/Core/../../../Common/Common.h ****  *
  40:../../LUFA-111009/LUFA/Drivers/USB/Core/../../../Common/Common.h ****  *  Common utility headers containing macros, functions, enums and types which are common to all
  41:../../LUFA-111009/LUFA/Drivers/USB/Core/../../../Common/Common.h ****  *  aspects of the library.
  42:../../LUFA-111009/LUFA/Drivers/USB/Core/../../../Common/Common.h ****  *
  43:../../LUFA-111009/LUFA/Drivers/USB/Core/../../../Common/Common.h ****  *  @{
  44:../../LUFA-111009/LUFA/Drivers/USB/Core/../../../Common/Common.h ****  */
  45:../../LUFA-111009/LUFA/Drivers/USB/Core/../../../Common/Common.h ****  
  46:../../LUFA-111009/LUFA/Drivers/USB/Core/../../../Common/Common.h **** /** \defgroup Group_GlobalInt Global Interrupt Macros
  47:../../LUFA-111009/LUFA/Drivers/USB/Core/../../../Common/Common.h ****  *  \brief Convenience macros for the management of interrupts globally within the device.
  48:../../LUFA-111009/LUFA/Drivers/USB/Core/../../../Common/Common.h ****  *
  49:../../LUFA-111009/LUFA/Drivers/USB/Core/../../../Common/Common.h ****  *  Macros and functions to create and control global interrupts within the device.
  50:../../LUFA-111009/LUFA/Drivers/USB/Core/../../../Common/Common.h ****  */
  51:../../LUFA-111009/LUFA/Drivers/USB/Core/../../../Common/Common.h **** 
  52:../../LUFA-111009/LUFA/Drivers/USB/Core/../../../Common/Common.h **** #ifndef __LUFA_COMMON_H__
  53:../../LUFA-111009/LUFA/Drivers/USB/Core/../../../Common/Common.h **** #define __LUFA_COMMON_H__
  54:../../LUFA-111009/LUFA/Drivers/USB/Core/../../../Common/Common.h **** 
  55:../../LUFA-111009/LUFA/Drivers/USB/Core/../../../Common/Common.h **** 	/* Macros: */
  56:../../LUFA-111009/LUFA/Drivers/USB/Core/../../../Common/Common.h **** 		#define __INCLUDE_FROM_COMMON_H
  57:../../LUFA-111009/LUFA/Drivers/USB/Core/../../../Common/Common.h **** 		
  58:../../LUFA-111009/LUFA/Drivers/USB/Core/../../../Common/Common.h **** 	/* Includes: */
  59:../../LUFA-111009/LUFA/Drivers/USB/Core/../../../Common/Common.h **** 		#include <stdint.h>
  60:../../LUFA-111009/LUFA/Drivers/USB/Core/../../../Common/Common.h **** 		#include <stdbool.h>
  61:../../LUFA-111009/LUFA/Drivers/USB/Core/../../../Common/Common.h **** 		#include <string.h>
  62:../../LUFA-111009/LUFA/Drivers/USB/Core/../../../Common/Common.h **** 		#include <stddef.h>
  63:../../LUFA-111009/LUFA/Drivers/USB/Core/../../../Common/Common.h **** 		
  64:../../LUFA-111009/LUFA/Drivers/USB/Core/../../../Common/Common.h **** 		#if defined(USE_LUFA_CONFIG_HEADER)
  65:../../LUFA-111009/LUFA/Drivers/USB/Core/../../../Common/Common.h **** 			#include "LUFAConfig.h"
  66:../../LUFA-111009/LUFA/Drivers/USB/Core/../../../Common/Common.h **** 		#endif
  67:../../LUFA-111009/LUFA/Drivers/USB/Core/../../../Common/Common.h **** 
  68:../../LUFA-111009/LUFA/Drivers/USB/Core/../../../Common/Common.h **** 		#include "ArchitectureSpecific.h"
  69:../../LUFA-111009/LUFA/Drivers/USB/Core/../../../Common/Common.h **** 		#include "CompilerSpecific.h"
  70:../../LUFA-111009/LUFA/Drivers/USB/Core/../../../Common/Common.h **** 		#include "Architectures.h"
  71:../../LUFA-111009/LUFA/Drivers/USB/Core/../../../Common/Common.h **** 		#include "Attributes.h"
  72:../../LUFA-111009/LUFA/Drivers/USB/Core/../../../Common/Common.h **** 		#include "BoardTypes.h"
  73:../../LUFA-111009/LUFA/Drivers/USB/Core/../../../Common/Common.h **** 		
  74:../../LUFA-111009/LUFA/Drivers/USB/Core/../../../Common/Common.h **** 	/* Enable C linkage for C++ Compilers: */
  75:../../LUFA-111009/LUFA/Drivers/USB/Core/../../../Common/Common.h **** 		#if defined(__cplusplus)
  76:../../LUFA-111009/LUFA/Drivers/USB/Core/../../../Common/Common.h **** 			extern "C" {
  77:../../LUFA-111009/LUFA/Drivers/USB/Core/../../../Common/Common.h **** 		#endif
  78:../../LUFA-111009/LUFA/Drivers/USB/Core/../../../Common/Common.h **** 
  79:../../LUFA-111009/LUFA/Drivers/USB/Core/../../../Common/Common.h **** 	/* Architecture specific utility includes: */
  80:../../LUFA-111009/LUFA/Drivers/USB/Core/../../../Common/Common.h **** 		#if defined(__DOXYGEN__)
  81:../../LUFA-111009/LUFA/Drivers/USB/Core/../../../Common/Common.h **** 			/** Type define for an unsigned integer the same width as the selected architecture's machine re
  82:../../LUFA-111009/LUFA/Drivers/USB/Core/../../../Common/Common.h **** 			 *  This is distinct from the non-specific standard int data type, whose width is machine depend
  83:../../LUFA-111009/LUFA/Drivers/USB/Core/../../../Common/Common.h **** 			 *  which may not reflect the actual machine register width on some targets (e.g. AVR8).
  84:../../LUFA-111009/LUFA/Drivers/USB/Core/../../../Common/Common.h **** 			 */
  85:../../LUFA-111009/LUFA/Drivers/USB/Core/../../../Common/Common.h **** 			typedef MACHINE_REG_t uint_reg_t;
  86:../../LUFA-111009/LUFA/Drivers/USB/Core/../../../Common/Common.h **** 		#elif (ARCH == ARCH_AVR8)
  87:../../LUFA-111009/LUFA/Drivers/USB/Core/../../../Common/Common.h **** 			#include <avr/io.h>
  88:../../LUFA-111009/LUFA/Drivers/USB/Core/../../../Common/Common.h **** 			#include <avr/interrupt.h>
  89:../../LUFA-111009/LUFA/Drivers/USB/Core/../../../Common/Common.h **** 			#include <avr/pgmspace.h>
  90:../../LUFA-111009/LUFA/Drivers/USB/Core/../../../Common/Common.h **** 			#include <avr/eeprom.h>
  91:../../LUFA-111009/LUFA/Drivers/USB/Core/../../../Common/Common.h **** 			#include <avr/boot.h>
  92:../../LUFA-111009/LUFA/Drivers/USB/Core/../../../Common/Common.h **** 			#include <util/delay.h>
  93:../../LUFA-111009/LUFA/Drivers/USB/Core/../../../Common/Common.h **** 			
  94:../../LUFA-111009/LUFA/Drivers/USB/Core/../../../Common/Common.h **** 			typedef uint8_t uint_reg_t;
  95:../../LUFA-111009/LUFA/Drivers/USB/Core/../../../Common/Common.h **** 			
  96:../../LUFA-111009/LUFA/Drivers/USB/Core/../../../Common/Common.h **** 			#define ARCH_HAS_EEPROM_ADDRESS_SPACE
  97:../../LUFA-111009/LUFA/Drivers/USB/Core/../../../Common/Common.h **** 			#define ARCH_HAS_FLASH_ADDRESS_SPACE
  98:../../LUFA-111009/LUFA/Drivers/USB/Core/../../../Common/Common.h **** 			#define ARCH_HAS_MULTI_ADDRESS_SPACE
  99:../../LUFA-111009/LUFA/Drivers/USB/Core/../../../Common/Common.h **** 			#define ARCH_LITTLE_ENDIAN
 100:../../LUFA-111009/LUFA/Drivers/USB/Core/../../../Common/Common.h **** 
 101:../../LUFA-111009/LUFA/Drivers/USB/Core/../../../Common/Common.h **** 			#include "Endianness.h"
 102:../../LUFA-111009/LUFA/Drivers/USB/Core/../../../Common/Common.h **** 		#elif (ARCH == ARCH_UC3)
 103:../../LUFA-111009/LUFA/Drivers/USB/Core/../../../Common/Common.h **** 			#include <avr32/io.h>
 104:../../LUFA-111009/LUFA/Drivers/USB/Core/../../../Common/Common.h **** 
 105:../../LUFA-111009/LUFA/Drivers/USB/Core/../../../Common/Common.h **** 			// === TODO: Find abstracted way to handle these ===
 106:../../LUFA-111009/LUFA/Drivers/USB/Core/../../../Common/Common.h **** 			#define PROGMEM                  const
 107:../../LUFA-111009/LUFA/Drivers/USB/Core/../../../Common/Common.h **** 			#define pgm_read_byte(x)         *x
 108:../../LUFA-111009/LUFA/Drivers/USB/Core/../../../Common/Common.h **** 			#define memcmp_P(...)            memcmp(__VA_ARGS__)
 109:../../LUFA-111009/LUFA/Drivers/USB/Core/../../../Common/Common.h **** 			#define memcpy_P(...)            memcpy(__VA_ARGS__)
 110:../../LUFA-111009/LUFA/Drivers/USB/Core/../../../Common/Common.h **** 			// =================================================
 111:../../LUFA-111009/LUFA/Drivers/USB/Core/../../../Common/Common.h **** 
 112:../../LUFA-111009/LUFA/Drivers/USB/Core/../../../Common/Common.h **** 			typedef uint32_t uint_reg_t;
 113:../../LUFA-111009/LUFA/Drivers/USB/Core/../../../Common/Common.h **** 			
 114:../../LUFA-111009/LUFA/Drivers/USB/Core/../../../Common/Common.h **** 			#define ARCH_BIG_ENDIAN
 115:../../LUFA-111009/LUFA/Drivers/USB/Core/../../../Common/Common.h **** 
 116:../../LUFA-111009/LUFA/Drivers/USB/Core/../../../Common/Common.h **** 			#include "Endianness.h"
 117:../../LUFA-111009/LUFA/Drivers/USB/Core/../../../Common/Common.h **** 		#elif (ARCH == ARCH_XMEGA)
 118:../../LUFA-111009/LUFA/Drivers/USB/Core/../../../Common/Common.h **** 			#include <avr/io.h>
 119:../../LUFA-111009/LUFA/Drivers/USB/Core/../../../Common/Common.h **** 			#include <avr/interrupt.h>
 120:../../LUFA-111009/LUFA/Drivers/USB/Core/../../../Common/Common.h **** 			#include <avr/pgmspace.h>
 121:../../LUFA-111009/LUFA/Drivers/USB/Core/../../../Common/Common.h **** 			#include <avr/eeprom.h>
 122:../../LUFA-111009/LUFA/Drivers/USB/Core/../../../Common/Common.h **** 			#include <util/delay.h>
 123:../../LUFA-111009/LUFA/Drivers/USB/Core/../../../Common/Common.h **** 			
 124:../../LUFA-111009/LUFA/Drivers/USB/Core/../../../Common/Common.h **** 			typedef uint8_t uint_reg_t;
 125:../../LUFA-111009/LUFA/Drivers/USB/Core/../../../Common/Common.h **** 			
 126:../../LUFA-111009/LUFA/Drivers/USB/Core/../../../Common/Common.h **** 			#define ARCH_HAS_EEPROM_ADDRESS_SPACE
 127:../../LUFA-111009/LUFA/Drivers/USB/Core/../../../Common/Common.h **** 			#define ARCH_HAS_FLASH_ADDRESS_SPACE
 128:../../LUFA-111009/LUFA/Drivers/USB/Core/../../../Common/Common.h **** 			#define ARCH_HAS_MULTI_ADDRESS_SPACE
 129:../../LUFA-111009/LUFA/Drivers/USB/Core/../../../Common/Common.h **** 			#define ARCH_LITTLE_ENDIAN
 130:../../LUFA-111009/LUFA/Drivers/USB/Core/../../../Common/Common.h **** 
 131:../../LUFA-111009/LUFA/Drivers/USB/Core/../../../Common/Common.h **** 			#include "Endianness.h"		
 132:../../LUFA-111009/LUFA/Drivers/USB/Core/../../../Common/Common.h **** 		#else
 133:../../LUFA-111009/LUFA/Drivers/USB/Core/../../../Common/Common.h **** 			#error Unknown device architecture specified.
 134:../../LUFA-111009/LUFA/Drivers/USB/Core/../../../Common/Common.h **** 		#endif
 135:../../LUFA-111009/LUFA/Drivers/USB/Core/../../../Common/Common.h **** 
 136:../../LUFA-111009/LUFA/Drivers/USB/Core/../../../Common/Common.h **** 	/* Public Interface - May be used in end-application: */
 137:../../LUFA-111009/LUFA/Drivers/USB/Core/../../../Common/Common.h **** 		/* Macros: */
 138:../../LUFA-111009/LUFA/Drivers/USB/Core/../../../Common/Common.h **** 			/** Macro for encasing other multi-statement macros. This should be used along with an opening b
 139:../../LUFA-111009/LUFA/Drivers/USB/Core/../../../Common/Common.h **** 			 *  before the start of any multi-statement macro, so that the macros contents as a whole are tr
 140:../../LUFA-111009/LUFA/Drivers/USB/Core/../../../Common/Common.h **** 			 *  as a discrete block and not as a list of separate statements which may cause problems when u
 141:../../LUFA-111009/LUFA/Drivers/USB/Core/../../../Common/Common.h **** 			 *  a block (such as inline \c if statements).
 142:../../LUFA-111009/LUFA/Drivers/USB/Core/../../../Common/Common.h **** 			 */
 143:../../LUFA-111009/LUFA/Drivers/USB/Core/../../../Common/Common.h **** 			#define MACROS                  do
 144:../../LUFA-111009/LUFA/Drivers/USB/Core/../../../Common/Common.h **** 
 145:../../LUFA-111009/LUFA/Drivers/USB/Core/../../../Common/Common.h **** 			/** Macro for encasing other multi-statement macros. This should be used along with a preceding 
 146:../../LUFA-111009/LUFA/Drivers/USB/Core/../../../Common/Common.h **** 			 *  brace at the end of any multi-statement macro, so that the macros contents as a whole are tr
 147:../../LUFA-111009/LUFA/Drivers/USB/Core/../../../Common/Common.h **** 			 *  as a discrete block and not as a list of separate statements which may cause problems when u
 148:../../LUFA-111009/LUFA/Drivers/USB/Core/../../../Common/Common.h **** 			 *  a block (such as inline \c if statements).
 149:../../LUFA-111009/LUFA/Drivers/USB/Core/../../../Common/Common.h **** 			 */
 150:../../LUFA-111009/LUFA/Drivers/USB/Core/../../../Common/Common.h **** 			#define MACROE                  while (0)
 151:../../LUFA-111009/LUFA/Drivers/USB/Core/../../../Common/Common.h **** 
 152:../../LUFA-111009/LUFA/Drivers/USB/Core/../../../Common/Common.h **** 			/** Convenience macro to determine the larger of two values.
 153:../../LUFA-111009/LUFA/Drivers/USB/Core/../../../Common/Common.h **** 			 *
 154:../../LUFA-111009/LUFA/Drivers/USB/Core/../../../Common/Common.h **** 			 *  \note This macro should only be used with operands that do not have side effects from being 
 155:../../LUFA-111009/LUFA/Drivers/USB/Core/../../../Common/Common.h **** 			 *        multiple times.
 156:../../LUFA-111009/LUFA/Drivers/USB/Core/../../../Common/Common.h **** 			 *
 157:../../LUFA-111009/LUFA/Drivers/USB/Core/../../../Common/Common.h **** 			 *  \param[in] x  First value to compare
 158:../../LUFA-111009/LUFA/Drivers/USB/Core/../../../Common/Common.h **** 			 *  \param[in] y  First value to compare
 159:../../LUFA-111009/LUFA/Drivers/USB/Core/../../../Common/Common.h **** 			 *
 160:../../LUFA-111009/LUFA/Drivers/USB/Core/../../../Common/Common.h **** 			 *  \return The larger of the two input parameters
 161:../../LUFA-111009/LUFA/Drivers/USB/Core/../../../Common/Common.h **** 			 */
 162:../../LUFA-111009/LUFA/Drivers/USB/Core/../../../Common/Common.h **** 			#if !defined(MAX) || defined(__DOXYGEN__)
 163:../../LUFA-111009/LUFA/Drivers/USB/Core/../../../Common/Common.h **** 				#define MAX(x, y)               (((x) > (y)) ? (x) : (y))
 164:../../LUFA-111009/LUFA/Drivers/USB/Core/../../../Common/Common.h **** 			#endif
 165:../../LUFA-111009/LUFA/Drivers/USB/Core/../../../Common/Common.h **** 
 166:../../LUFA-111009/LUFA/Drivers/USB/Core/../../../Common/Common.h **** 			/** Convenience macro to determine the smaller of two values.
 167:../../LUFA-111009/LUFA/Drivers/USB/Core/../../../Common/Common.h **** 			 *
 168:../../LUFA-111009/LUFA/Drivers/USB/Core/../../../Common/Common.h **** 			 *  \note This macro should only be used with operands that do not have side effects from being 
 169:../../LUFA-111009/LUFA/Drivers/USB/Core/../../../Common/Common.h **** 			 *        multiple times.
 170:../../LUFA-111009/LUFA/Drivers/USB/Core/../../../Common/Common.h **** 			 *
 171:../../LUFA-111009/LUFA/Drivers/USB/Core/../../../Common/Common.h **** 			 *  \param[in] x  First value to compare
 172:../../LUFA-111009/LUFA/Drivers/USB/Core/../../../Common/Common.h **** 			 *  \param[in] y  First value to compare
 173:../../LUFA-111009/LUFA/Drivers/USB/Core/../../../Common/Common.h **** 			 *
 174:../../LUFA-111009/LUFA/Drivers/USB/Core/../../../Common/Common.h **** 			 *  \return The smaller of the two input parameters
 175:../../LUFA-111009/LUFA/Drivers/USB/Core/../../../Common/Common.h **** 			 */
 176:../../LUFA-111009/LUFA/Drivers/USB/Core/../../../Common/Common.h **** 			#if !defined(MIN) || defined(__DOXYGEN__)
 177:../../LUFA-111009/LUFA/Drivers/USB/Core/../../../Common/Common.h **** 				#define MIN(x, y)               (((x) < (y)) ? (x) : (y))
 178:../../LUFA-111009/LUFA/Drivers/USB/Core/../../../Common/Common.h **** 			#endif
 179:../../LUFA-111009/LUFA/Drivers/USB/Core/../../../Common/Common.h **** 			
 180:../../LUFA-111009/LUFA/Drivers/USB/Core/../../../Common/Common.h **** 			#if !defined(STRINGIFY) || defined(__DOXYGEN__)
 181:../../LUFA-111009/LUFA/Drivers/USB/Core/../../../Common/Common.h **** 				/** Converts the given input into a string, via the C Preprocessor. This macro puts literal quo
 182:../../LUFA-111009/LUFA/Drivers/USB/Core/../../../Common/Common.h **** 				 *  marks around the input, converting the source into a string literal.
 183:../../LUFA-111009/LUFA/Drivers/USB/Core/../../../Common/Common.h **** 				 *
 184:../../LUFA-111009/LUFA/Drivers/USB/Core/../../../Common/Common.h **** 				 *  \param[in] x  Input to convert into a string literal.
 185:../../LUFA-111009/LUFA/Drivers/USB/Core/../../../Common/Common.h **** 				 *
 186:../../LUFA-111009/LUFA/Drivers/USB/Core/../../../Common/Common.h **** 				 *  \return String version of the input.
 187:../../LUFA-111009/LUFA/Drivers/USB/Core/../../../Common/Common.h **** 				 */
 188:../../LUFA-111009/LUFA/Drivers/USB/Core/../../../Common/Common.h **** 				#define STRINGIFY(x)            #x
 189:../../LUFA-111009/LUFA/Drivers/USB/Core/../../../Common/Common.h **** 
 190:../../LUFA-111009/LUFA/Drivers/USB/Core/../../../Common/Common.h **** 				/** Converts the given input into a string after macro expansion, via the C Preprocessor. This 
 191:../../LUFA-111009/LUFA/Drivers/USB/Core/../../../Common/Common.h **** 				 *  literal quotation marks around the expanded input, converting the source into a string lite
 192:../../LUFA-111009/LUFA/Drivers/USB/Core/../../../Common/Common.h **** 				 *
 193:../../LUFA-111009/LUFA/Drivers/USB/Core/../../../Common/Common.h **** 				 *  \param[in] x  Input to expand and convert into a string literal.
 194:../../LUFA-111009/LUFA/Drivers/USB/Core/../../../Common/Common.h **** 				 *
 195:../../LUFA-111009/LUFA/Drivers/USB/Core/../../../Common/Common.h **** 				 *  \return String version of the expanded input.
 196:../../LUFA-111009/LUFA/Drivers/USB/Core/../../../Common/Common.h **** 				 */
 197:../../LUFA-111009/LUFA/Drivers/USB/Core/../../../Common/Common.h **** 				#define STRINGIFY_EXPANDED(x)   STRINGIFY(x)
 198:../../LUFA-111009/LUFA/Drivers/USB/Core/../../../Common/Common.h **** 			#endif
 199:../../LUFA-111009/LUFA/Drivers/USB/Core/../../../Common/Common.h **** 
 200:../../LUFA-111009/LUFA/Drivers/USB/Core/../../../Common/Common.h **** 			#if !defined(ISR) || defined(__DOXYGEN__)
 201:../../LUFA-111009/LUFA/Drivers/USB/Core/../../../Common/Common.h **** 				/** Macro for the definition of interrupt service routines, so that the compiler can insert the
 202:../../LUFA-111009/LUFA/Drivers/USB/Core/../../../Common/Common.h **** 				 *  prologue and epilogue code to properly manage the interrupt routine without affecting the m
 203:../../LUFA-111009/LUFA/Drivers/USB/Core/../../../Common/Common.h **** 				 *  state with unintentional side-effects.
 204:../../LUFA-111009/LUFA/Drivers/USB/Core/../../../Common/Common.h **** 				 *
 205:../../LUFA-111009/LUFA/Drivers/USB/Core/../../../Common/Common.h **** 				 *  Interrupt handlers written using this macro may still need to be registered with the microc
 206:../../LUFA-111009/LUFA/Drivers/USB/Core/../../../Common/Common.h **** 				 *  Interrupt Controller (if present) before they will properly handle incoming interrupt event
 207:../../LUFA-111009/LUFA/Drivers/USB/Core/../../../Common/Common.h **** 				 *
 208:../../LUFA-111009/LUFA/Drivers/USB/Core/../../../Common/Common.h **** 				 *  \note This macro is only supplied on some architectures, where the standard library does no
 209:../../LUFA-111009/LUFA/Drivers/USB/Core/../../../Common/Common.h **** 				 *        definition. If an existing definition exists, the alternative definition here will be
 210:../../LUFA-111009/LUFA/Drivers/USB/Core/../../../Common/Common.h **** 				 *
 211:../../LUFA-111009/LUFA/Drivers/USB/Core/../../../Common/Common.h **** 				 *  \ingroup Group_GlobalInt
 212:../../LUFA-111009/LUFA/Drivers/USB/Core/../../../Common/Common.h **** 				 *
 213:../../LUFA-111009/LUFA/Drivers/USB/Core/../../../Common/Common.h **** 				 *  \param Name  Unique name of the interrupt service routine.
 214:../../LUFA-111009/LUFA/Drivers/USB/Core/../../../Common/Common.h **** 				 */
 215:../../LUFA-111009/LUFA/Drivers/USB/Core/../../../Common/Common.h **** 				#define ISR(Name, ...)                  void Name (void) __attribute__((__interrupt__)) __VA_AR
 216:../../LUFA-111009/LUFA/Drivers/USB/Core/../../../Common/Common.h **** 			#endif
 217:../../LUFA-111009/LUFA/Drivers/USB/Core/../../../Common/Common.h **** 
 218:../../LUFA-111009/LUFA/Drivers/USB/Core/../../../Common/Common.h **** 		/* Inline Functions: */
 219:../../LUFA-111009/LUFA/Drivers/USB/Core/../../../Common/Common.h **** 			/** Function to reverse the individual bits in a byte - i.e. bit 7 is moved to bit 0, bit 6 to b
 220:../../LUFA-111009/LUFA/Drivers/USB/Core/../../../Common/Common.h **** 			 *  etc.
 221:../../LUFA-111009/LUFA/Drivers/USB/Core/../../../Common/Common.h **** 			 *
 222:../../LUFA-111009/LUFA/Drivers/USB/Core/../../../Common/Common.h **** 			 *  \param[in] Byte  Byte of data whose bits are to be reversed.
 223:../../LUFA-111009/LUFA/Drivers/USB/Core/../../../Common/Common.h **** 			 *
 224:../../LUFA-111009/LUFA/Drivers/USB/Core/../../../Common/Common.h **** 			 *  \return Input data with the individual bits reversed (mirrored).
 225:../../LUFA-111009/LUFA/Drivers/USB/Core/../../../Common/Common.h **** 			 */
 226:../../LUFA-111009/LUFA/Drivers/USB/Core/../../../Common/Common.h **** 			static inline uint8_t BitReverse(uint8_t Byte) ATTR_WARN_UNUSED_RESULT ATTR_CONST;
 227:../../LUFA-111009/LUFA/Drivers/USB/Core/../../../Common/Common.h **** 			static inline uint8_t BitReverse(uint8_t Byte)
 228:../../LUFA-111009/LUFA/Drivers/USB/Core/../../../Common/Common.h **** 			{
 229:../../LUFA-111009/LUFA/Drivers/USB/Core/../../../Common/Common.h **** 				Byte = (((Byte & 0xF0) >> 4) | ((Byte & 0x0F) << 4));
 230:../../LUFA-111009/LUFA/Drivers/USB/Core/../../../Common/Common.h **** 				Byte = (((Byte & 0xCC) >> 2) | ((Byte & 0x33) << 2));
 231:../../LUFA-111009/LUFA/Drivers/USB/Core/../../../Common/Common.h **** 				Byte = (((Byte & 0xAA) >> 1) | ((Byte & 0x55) << 1));
 232:../../LUFA-111009/LUFA/Drivers/USB/Core/../../../Common/Common.h **** 
 233:../../LUFA-111009/LUFA/Drivers/USB/Core/../../../Common/Common.h **** 				return Byte;
 234:../../LUFA-111009/LUFA/Drivers/USB/Core/../../../Common/Common.h **** 			}
 235:../../LUFA-111009/LUFA/Drivers/USB/Core/../../../Common/Common.h **** 
 236:../../LUFA-111009/LUFA/Drivers/USB/Core/../../../Common/Common.h **** 			/** Function to perform a blocking delay for a specified number of milliseconds. The actual dela
 237:../../LUFA-111009/LUFA/Drivers/USB/Core/../../../Common/Common.h **** 			 *  at a minimum the specified number of milliseconds, however due to loop overhead and internal
 238:../../LUFA-111009/LUFA/Drivers/USB/Core/../../../Common/Common.h **** 			 *  may be slightly higher.
 239:../../LUFA-111009/LUFA/Drivers/USB/Core/../../../Common/Common.h **** 			 *
 240:../../LUFA-111009/LUFA/Drivers/USB/Core/../../../Common/Common.h **** 			 *  \param[in] Milliseconds  Number of milliseconds to delay
 241:../../LUFA-111009/LUFA/Drivers/USB/Core/../../../Common/Common.h **** 			 */
 242:../../LUFA-111009/LUFA/Drivers/USB/Core/../../../Common/Common.h **** 			static inline void Delay_MS(uint16_t Milliseconds) ATTR_ALWAYS_INLINE;
 243:../../LUFA-111009/LUFA/Drivers/USB/Core/../../../Common/Common.h **** 			static inline void Delay_MS(uint16_t Milliseconds)
 244:../../LUFA-111009/LUFA/Drivers/USB/Core/../../../Common/Common.h **** 			{
 245:../../LUFA-111009/LUFA/Drivers/USB/Core/../../../Common/Common.h **** 				#if (ARCH == ARCH_AVR8)
 246:../../LUFA-111009/LUFA/Drivers/USB/Core/../../../Common/Common.h **** 				if (GCC_IS_COMPILE_CONST(Milliseconds))
 247:../../LUFA-111009/LUFA/Drivers/USB/Core/../../../Common/Common.h **** 				{
 248:../../LUFA-111009/LUFA/Drivers/USB/Core/../../../Common/Common.h **** 					_delay_ms(Milliseconds);
 249:../../LUFA-111009/LUFA/Drivers/USB/Core/../../../Common/Common.h **** 				}
 250:../../LUFA-111009/LUFA/Drivers/USB/Core/../../../Common/Common.h **** 				else
 251:../../LUFA-111009/LUFA/Drivers/USB/Core/../../../Common/Common.h **** 				{
 252:../../LUFA-111009/LUFA/Drivers/USB/Core/../../../Common/Common.h **** 					while (Milliseconds--)
 253:../../LUFA-111009/LUFA/Drivers/USB/Core/../../../Common/Common.h **** 					  _delay_ms(1);
 254:../../LUFA-111009/LUFA/Drivers/USB/Core/../../../Common/Common.h **** 				}
 255:../../LUFA-111009/LUFA/Drivers/USB/Core/../../../Common/Common.h **** 				#elif (ARCH == ARCH_UC3)
 256:../../LUFA-111009/LUFA/Drivers/USB/Core/../../../Common/Common.h **** 				while (Milliseconds--)
 257:../../LUFA-111009/LUFA/Drivers/USB/Core/../../../Common/Common.h **** 				{
 258:../../LUFA-111009/LUFA/Drivers/USB/Core/../../../Common/Common.h **** 					__builtin_mtsr(AVR32_COUNT, 0);
 259:../../LUFA-111009/LUFA/Drivers/USB/Core/../../../Common/Common.h **** 					while (__builtin_mfsr(AVR32_COUNT) < (F_CPU / 1000));				
 260:../../LUFA-111009/LUFA/Drivers/USB/Core/../../../Common/Common.h **** 				}
 261:../../LUFA-111009/LUFA/Drivers/USB/Core/../../../Common/Common.h **** 				#elif (ARCH == ARCH_XMEGA)
 262:../../LUFA-111009/LUFA/Drivers/USB/Core/../../../Common/Common.h **** 				if (GCC_IS_COMPILE_CONST(Milliseconds))
 263:../../LUFA-111009/LUFA/Drivers/USB/Core/../../../Common/Common.h **** 				{
 264:../../LUFA-111009/LUFA/Drivers/USB/Core/../../../Common/Common.h **** 					_delay_ms(Milliseconds);
 265:../../LUFA-111009/LUFA/Drivers/USB/Core/../../../Common/Common.h **** 				}
 266:../../LUFA-111009/LUFA/Drivers/USB/Core/../../../Common/Common.h **** 				else
 267:../../LUFA-111009/LUFA/Drivers/USB/Core/../../../Common/Common.h **** 				{
 268:../../LUFA-111009/LUFA/Drivers/USB/Core/../../../Common/Common.h **** 					while (Milliseconds--)
 269:../../LUFA-111009/LUFA/Drivers/USB/Core/../../../Common/Common.h **** 					  _delay_ms(1);
 270:../../LUFA-111009/LUFA/Drivers/USB/Core/../../../Common/Common.h **** 				}				
 271:../../LUFA-111009/LUFA/Drivers/USB/Core/../../../Common/Common.h **** 				#endif
 272:../../LUFA-111009/LUFA/Drivers/USB/Core/../../../Common/Common.h **** 			}
 273:../../LUFA-111009/LUFA/Drivers/USB/Core/../../../Common/Common.h **** 
 274:../../LUFA-111009/LUFA/Drivers/USB/Core/../../../Common/Common.h **** 			/** Retrieves a mask which contains the current state of the global interrupts for the device. T
 275:../../LUFA-111009/LUFA/Drivers/USB/Core/../../../Common/Common.h **** 			 *  value can be stored before altering the global interrupt enable state, before restoring the
 276:../../LUFA-111009/LUFA/Drivers/USB/Core/../../../Common/Common.h **** 			 *  flag(s) back to their previous values after a critical section using \ref SetGlobalInterrupt
 277:../../LUFA-111009/LUFA/Drivers/USB/Core/../../../Common/Common.h **** 			 *
 278:../../LUFA-111009/LUFA/Drivers/USB/Core/../../../Common/Common.h **** 			 *  \ingroup Group_GlobalInt
 279:../../LUFA-111009/LUFA/Drivers/USB/Core/../../../Common/Common.h **** 			 *
 280:../../LUFA-111009/LUFA/Drivers/USB/Core/../../../Common/Common.h **** 			 *  \return  Mask containing the current Global Interrupt Enable Mask bit(s).
 281:../../LUFA-111009/LUFA/Drivers/USB/Core/../../../Common/Common.h **** 			 */
 282:../../LUFA-111009/LUFA/Drivers/USB/Core/../../../Common/Common.h **** 			static inline uint_reg_t GetGlobalInterruptMask(void) ATTR_ALWAYS_INLINE ATTR_WARN_UNUSED_RESULT
 283:../../LUFA-111009/LUFA/Drivers/USB/Core/../../../Common/Common.h **** 			static inline uint_reg_t GetGlobalInterruptMask(void)
 382               		.loc 3 283 29 view .LVU109
 383               	.LBB207:
 284:../../LUFA-111009/LUFA/Drivers/USB/Core/../../../Common/Common.h **** 			{
 285:../../LUFA-111009/LUFA/Drivers/USB/Core/../../../Common/Common.h **** 				GCC_MEMORY_BARRIER();
 384               		.loc 3 285 5 view .LVU110
 385               		.loc 3 285 25 view .LVU111
 286:../../LUFA-111009/LUFA/Drivers/USB/Core/../../../Common/Common.h **** 
 287:../../LUFA-111009/LUFA/Drivers/USB/Core/../../../Common/Common.h **** 				#if (ARCH == ARCH_AVR8)
 288:../../LUFA-111009/LUFA/Drivers/USB/Core/../../../Common/Common.h **** 				return SREG;
 386               		.loc 3 288 5 view .LVU112
 387               		.loc 3 288 12 is_stmt 0 view .LVU113
 388 00de 0FB7      		in r16,__SREG__
 389               	.LVL22:
 390               		.loc 3 288 12 view .LVU114
 391               	.LBE207:
 392               	.LBE206:
 126:../../LUFA-111009/LUFA/Drivers/USB/Core/DeviceStandardReq.c **** 				
 393               		.loc 1 126 2 is_stmt 1 view .LVU115
 394               	.LBB208:
 395               	.LBI208:
 289:../../LUFA-111009/LUFA/Drivers/USB/Core/../../../Common/Common.h **** 				#elif (ARCH == ARCH_UC3)
 290:../../LUFA-111009/LUFA/Drivers/USB/Core/../../../Common/Common.h **** 				return __builtin_mfsr(AVR32_SR);
 291:../../LUFA-111009/LUFA/Drivers/USB/Core/../../../Common/Common.h **** 				#elif (ARCH == ARCH_XMEGA)
 292:../../LUFA-111009/LUFA/Drivers/USB/Core/../../../Common/Common.h **** 				return SREG;
 293:../../LUFA-111009/LUFA/Drivers/USB/Core/../../../Common/Common.h **** 				#endif
 294:../../LUFA-111009/LUFA/Drivers/USB/Core/../../../Common/Common.h **** 
 295:../../LUFA-111009/LUFA/Drivers/USB/Core/../../../Common/Common.h **** 				GCC_MEMORY_BARRIER();
 296:../../LUFA-111009/LUFA/Drivers/USB/Core/../../../Common/Common.h **** 			}
 297:../../LUFA-111009/LUFA/Drivers/USB/Core/../../../Common/Common.h **** 
 298:../../LUFA-111009/LUFA/Drivers/USB/Core/../../../Common/Common.h **** 			/** Sets the global interrupt enable state of the microcontroller to the mask passed into the fu
 299:../../LUFA-111009/LUFA/Drivers/USB/Core/../../../Common/Common.h **** 			 *  This can be combined with \ref GetGlobalInterruptMask() to save and restore the Global Inter
 300:../../LUFA-111009/LUFA/Drivers/USB/Core/../../../Common/Common.h **** 			 *  Mask bit(s) of the device after a critical section has completed.
 301:../../LUFA-111009/LUFA/Drivers/USB/Core/../../../Common/Common.h **** 			 *
 302:../../LUFA-111009/LUFA/Drivers/USB/Core/../../../Common/Common.h **** 			 *  \ingroup Group_GlobalInt
 303:../../LUFA-111009/LUFA/Drivers/USB/Core/../../../Common/Common.h **** 			 *
 304:../../LUFA-111009/LUFA/Drivers/USB/Core/../../../Common/Common.h **** 			 *  \param[in] GlobalIntState  Global Interrupt Enable Mask value to use
 305:../../LUFA-111009/LUFA/Drivers/USB/Core/../../../Common/Common.h **** 			 */
 306:../../LUFA-111009/LUFA/Drivers/USB/Core/../../../Common/Common.h **** 			static inline void SetGlobalInterruptMask(const uint_reg_t GlobalIntState) ATTR_ALWAYS_INLINE;
 307:../../LUFA-111009/LUFA/Drivers/USB/Core/../../../Common/Common.h **** 			static inline void SetGlobalInterruptMask(const uint_reg_t GlobalIntState)
 308:../../LUFA-111009/LUFA/Drivers/USB/Core/../../../Common/Common.h **** 			{
 309:../../LUFA-111009/LUFA/Drivers/USB/Core/../../../Common/Common.h **** 				GCC_MEMORY_BARRIER();
 310:../../LUFA-111009/LUFA/Drivers/USB/Core/../../../Common/Common.h **** 
 311:../../LUFA-111009/LUFA/Drivers/USB/Core/../../../Common/Common.h **** 				#if (ARCH == ARCH_AVR8)
 312:../../LUFA-111009/LUFA/Drivers/USB/Core/../../../Common/Common.h **** 				SREG = GlobalIntState;
 313:../../LUFA-111009/LUFA/Drivers/USB/Core/../../../Common/Common.h **** 				#elif (ARCH == ARCH_UC3)
 314:../../LUFA-111009/LUFA/Drivers/USB/Core/../../../Common/Common.h **** 				if (GlobalIntState & AVR32_SR_GM)
 315:../../LUFA-111009/LUFA/Drivers/USB/Core/../../../Common/Common.h **** 				  __builtin_ssrf(AVR32_SR_GM_OFFSET);
 316:../../LUFA-111009/LUFA/Drivers/USB/Core/../../../Common/Common.h **** 				else
 317:../../LUFA-111009/LUFA/Drivers/USB/Core/../../../Common/Common.h **** 				  __builtin_csrf(AVR32_SR_GM_OFFSET);
 318:../../LUFA-111009/LUFA/Drivers/USB/Core/../../../Common/Common.h **** 				#elif (ARCH == ARCH_XMEGA)
 319:../../LUFA-111009/LUFA/Drivers/USB/Core/../../../Common/Common.h **** 				SREG = GlobalIntState;				
 320:../../LUFA-111009/LUFA/Drivers/USB/Core/../../../Common/Common.h **** 				#endif
 321:../../LUFA-111009/LUFA/Drivers/USB/Core/../../../Common/Common.h **** 				
 322:../../LUFA-111009/LUFA/Drivers/USB/Core/../../../Common/Common.h **** 				GCC_MEMORY_BARRIER();
 323:../../LUFA-111009/LUFA/Drivers/USB/Core/../../../Common/Common.h **** 			}
 324:../../LUFA-111009/LUFA/Drivers/USB/Core/../../../Common/Common.h **** 		
 325:../../LUFA-111009/LUFA/Drivers/USB/Core/../../../Common/Common.h **** 			/** Enables global interrupt handling for the device, allowing interrupts to be handled.
 326:../../LUFA-111009/LUFA/Drivers/USB/Core/../../../Common/Common.h **** 			 *
 327:../../LUFA-111009/LUFA/Drivers/USB/Core/../../../Common/Common.h **** 			 *  \ingroup Group_GlobalInt
 328:../../LUFA-111009/LUFA/Drivers/USB/Core/../../../Common/Common.h **** 			 */
 329:../../LUFA-111009/LUFA/Drivers/USB/Core/../../../Common/Common.h **** 			static inline void GlobalInterruptEnable(void) ATTR_ALWAYS_INLINE;
 330:../../LUFA-111009/LUFA/Drivers/USB/Core/../../../Common/Common.h **** 			static inline void GlobalInterruptEnable(void)
 331:../../LUFA-111009/LUFA/Drivers/USB/Core/../../../Common/Common.h **** 			{
 332:../../LUFA-111009/LUFA/Drivers/USB/Core/../../../Common/Common.h **** 				GCC_MEMORY_BARRIER();
 333:../../LUFA-111009/LUFA/Drivers/USB/Core/../../../Common/Common.h **** 
 334:../../LUFA-111009/LUFA/Drivers/USB/Core/../../../Common/Common.h **** 				#if (ARCH == ARCH_AVR8)
 335:../../LUFA-111009/LUFA/Drivers/USB/Core/../../../Common/Common.h **** 				sei();
 336:../../LUFA-111009/LUFA/Drivers/USB/Core/../../../Common/Common.h **** 				#elif (ARCH == ARCH_UC3)
 337:../../LUFA-111009/LUFA/Drivers/USB/Core/../../../Common/Common.h **** 				__builtin_csrf(AVR32_SR_GM_OFFSET);
 338:../../LUFA-111009/LUFA/Drivers/USB/Core/../../../Common/Common.h **** 				#elif (ARCH == ARCH_XMEGA)
 339:../../LUFA-111009/LUFA/Drivers/USB/Core/../../../Common/Common.h **** 				sei();
 340:../../LUFA-111009/LUFA/Drivers/USB/Core/../../../Common/Common.h **** 				#endif
 341:../../LUFA-111009/LUFA/Drivers/USB/Core/../../../Common/Common.h **** 
 342:../../LUFA-111009/LUFA/Drivers/USB/Core/../../../Common/Common.h **** 				GCC_MEMORY_BARRIER();
 343:../../LUFA-111009/LUFA/Drivers/USB/Core/../../../Common/Common.h **** 			}		
 344:../../LUFA-111009/LUFA/Drivers/USB/Core/../../../Common/Common.h **** 
 345:../../LUFA-111009/LUFA/Drivers/USB/Core/../../../Common/Common.h **** 			/** Disabled global interrupt handling for the device, preventing interrupts from being handled.
 346:../../LUFA-111009/LUFA/Drivers/USB/Core/../../../Common/Common.h **** 			 *
 347:../../LUFA-111009/LUFA/Drivers/USB/Core/../../../Common/Common.h **** 			 *  \ingroup Group_GlobalInt
 348:../../LUFA-111009/LUFA/Drivers/USB/Core/../../../Common/Common.h **** 			 */
 349:../../LUFA-111009/LUFA/Drivers/USB/Core/../../../Common/Common.h **** 			static inline void GlobalInterruptDisable(void) ATTR_ALWAYS_INLINE;
 350:../../LUFA-111009/LUFA/Drivers/USB/Core/../../../Common/Common.h **** 			static inline void GlobalInterruptDisable(void)
 396               		.loc 3 350 23 view .LVU116
 397               	.LBB209:
 351:../../LUFA-111009/LUFA/Drivers/USB/Core/../../../Common/Common.h **** 			{
 352:../../LUFA-111009/LUFA/Drivers/USB/Core/../../../Common/Common.h **** 				GCC_MEMORY_BARRIER();
 398               		.loc 3 352 5 view .LVU117
 399               		.loc 3 352 25 view .LVU118
 353:../../LUFA-111009/LUFA/Drivers/USB/Core/../../../Common/Common.h **** 
 354:../../LUFA-111009/LUFA/Drivers/USB/Core/../../../Common/Common.h **** 				#if (ARCH == ARCH_AVR8)
 355:../../LUFA-111009/LUFA/Drivers/USB/Core/../../../Common/Common.h **** 				cli();
 400               		.loc 3 355 5 view .LVU119
 401               	/* #APP */
 402               	 ;  355 "../../LUFA-111009/LUFA/Drivers/USB/Core/../../../Common/Common.h" 1
 403 00e0 F894      		cli
 404               	 ;  0 "" 2
 356:../../LUFA-111009/LUFA/Drivers/USB/Core/../../../Common/Common.h **** 				#elif (ARCH == ARCH_UC3)
 357:../../LUFA-111009/LUFA/Drivers/USB/Core/../../../Common/Common.h **** 				__builtin_ssrf(AVR32_SR_GM_OFFSET);
 358:../../LUFA-111009/LUFA/Drivers/USB/Core/../../../Common/Common.h **** 				#elif (ARCH == ARCH_XMEGA)
 359:../../LUFA-111009/LUFA/Drivers/USB/Core/../../../Common/Common.h **** 				cli();
 360:../../LUFA-111009/LUFA/Drivers/USB/Core/../../../Common/Common.h **** 				#endif
 361:../../LUFA-111009/LUFA/Drivers/USB/Core/../../../Common/Common.h **** 
 362:../../LUFA-111009/LUFA/Drivers/USB/Core/../../../Common/Common.h **** 				GCC_MEMORY_BARRIER();
 405               		.loc 3 362 5 view .LVU120
 406               		.loc 3 362 25 view .LVU121
 407               	/* #NOAPP */
 408               	.LBE209:
 409               	.LBE208:
 128:../../LUFA-111009/LUFA/Drivers/USB/Core/DeviceStandardReq.c **** 
 410               		.loc 1 128 2 view .LVU122
 411               	.LBB210:
 412               	.LBI210:
 502:../../LUFA-111009/LUFA/Drivers/USB/Core/AVR8/../AVR8/Endpoint_AVR8.h **** 			{
 413               		.loc 2 502 23 view .LVU123
 414               	.LBB211:
 504:../../LUFA-111009/LUFA/Drivers/USB/Core/AVR8/../AVR8/Endpoint_AVR8.h **** 			}
 415               		.loc 2 504 5 view .LVU124
 504:../../LUFA-111009/LUFA/Drivers/USB/Core/AVR8/../AVR8/Endpoint_AVR8.h **** 			}
 416               		.loc 2 504 12 is_stmt 0 view .LVU125
 417 00e2 8091 E800 		lds r24,232
 418               	.LVL23:
 504:../../LUFA-111009/LUFA/Drivers/USB/Core/AVR8/../AVR8/Endpoint_AVR8.h **** 			}
 419               		.loc 2 504 12 view .LVU126
 420 00e6 877F      		andi r24,lo8(-9)
 421 00e8 8093 E800 		sts 232,r24
 422               	.LVL24:
 504:../../LUFA-111009/LUFA/Drivers/USB/Core/AVR8/../AVR8/Endpoint_AVR8.h **** 			}
 423               		.loc 2 504 12 view .LVU127
 424               	.LBE211:
 425               	.LBE210:
 130:../../LUFA-111009/LUFA/Drivers/USB/Core/DeviceStandardReq.c **** 
 426               		.loc 1 130 2 is_stmt 1 view .LVU128
 427 00ec 0E94 0000 		call Endpoint_ClearStatusStage
 428               	.LVL25:
 132:../../LUFA-111009/LUFA/Drivers/USB/Core/DeviceStandardReq.c **** 
 429               		.loc 1 132 2 view .LVU129
 430               	.L15:
 132:../../LUFA-111009/LUFA/Drivers/USB/Core/DeviceStandardReq.c **** 
 431               		.loc 1 132 33 view .LVU130
 132:../../LUFA-111009/LUFA/Drivers/USB/Core/DeviceStandardReq.c **** 
 432               		.loc 1 132 8 view .LVU131
 433               	.LBB212:
 434               	.LBI212:
 465:../../LUFA-111009/LUFA/Drivers/USB/Core/AVR8/../AVR8/Endpoint_AVR8.h **** 			{
 435               		.loc 2 465 23 view .LVU132
 436               	.LBB213:
 467:../../LUFA-111009/LUFA/Drivers/USB/Core/AVR8/../AVR8/Endpoint_AVR8.h **** 			}
 437               		.loc 2 467 5 view .LVU133
 467:../../LUFA-111009/LUFA/Drivers/USB/Core/AVR8/../AVR8/Endpoint_AVR8.h **** 			}
 438               		.loc 2 467 14 is_stmt 0 view .LVU134
 439 00f0 8091 E800 		lds r24,232
 440               	.LBE213:
 441               	.LBE212:
 132:../../LUFA-111009/LUFA/Drivers/USB/Core/DeviceStandardReq.c **** 
 442               		.loc 1 132 8 view .LVU135
 443 00f4 80FF      		sbrs r24,0
 444 00f6 00C0      		rjmp .L15
 134:../../LUFA-111009/LUFA/Drivers/USB/Core/DeviceStandardReq.c **** 	USB_DeviceState = (DeviceAddress) ? DEVICE_STATE_Addressed : DEVICE_STATE_Default;
 445               		.loc 1 134 2 is_stmt 1 view .LVU136
 446               	.LVL26:
 447               	.LBB214:
 448               	.LBI214:
 449               		.file 4 "../../LUFA-111009/LUFA/Drivers/USB/Core/AVR8/../AVR8/Device_AVR8.h"
   1:../../LUFA-111009/LUFA/Drivers/USB/Core/AVR8/../AVR8/Device_AVR8.h **** /*
   2:../../LUFA-111009/LUFA/Drivers/USB/Core/AVR8/../AVR8/Device_AVR8.h ****              LUFA Library
   3:../../LUFA-111009/LUFA/Drivers/USB/Core/AVR8/../AVR8/Device_AVR8.h ****      Copyright (C) Dean Camera, 2011.
   4:../../LUFA-111009/LUFA/Drivers/USB/Core/AVR8/../AVR8/Device_AVR8.h **** 
   5:../../LUFA-111009/LUFA/Drivers/USB/Core/AVR8/../AVR8/Device_AVR8.h ****   dean [at] fourwalledcubicle [dot] com
   6:../../LUFA-111009/LUFA/Drivers/USB/Core/AVR8/../AVR8/Device_AVR8.h ****            www.lufa-lib.org
   7:../../LUFA-111009/LUFA/Drivers/USB/Core/AVR8/../AVR8/Device_AVR8.h **** */
   8:../../LUFA-111009/LUFA/Drivers/USB/Core/AVR8/../AVR8/Device_AVR8.h **** 
   9:../../LUFA-111009/LUFA/Drivers/USB/Core/AVR8/../AVR8/Device_AVR8.h **** /*
  10:../../LUFA-111009/LUFA/Drivers/USB/Core/AVR8/../AVR8/Device_AVR8.h ****   Copyright 2011  Dean Camera (dean [at] fourwalledcubicle [dot] com)
  11:../../LUFA-111009/LUFA/Drivers/USB/Core/AVR8/../AVR8/Device_AVR8.h **** 
  12:../../LUFA-111009/LUFA/Drivers/USB/Core/AVR8/../AVR8/Device_AVR8.h ****   Permission to use, copy, modify, distribute, and sell this
  13:../../LUFA-111009/LUFA/Drivers/USB/Core/AVR8/../AVR8/Device_AVR8.h ****   software and its documentation for any purpose is hereby granted
  14:../../LUFA-111009/LUFA/Drivers/USB/Core/AVR8/../AVR8/Device_AVR8.h ****   without fee, provided that the above copyright notice appear in
  15:../../LUFA-111009/LUFA/Drivers/USB/Core/AVR8/../AVR8/Device_AVR8.h ****   all copies and that both that the copyright notice and this
  16:../../LUFA-111009/LUFA/Drivers/USB/Core/AVR8/../AVR8/Device_AVR8.h ****   permission notice and warranty disclaimer appear in supporting
  17:../../LUFA-111009/LUFA/Drivers/USB/Core/AVR8/../AVR8/Device_AVR8.h ****   documentation, and that the name of the author not be used in
  18:../../LUFA-111009/LUFA/Drivers/USB/Core/AVR8/../AVR8/Device_AVR8.h ****   advertising or publicity pertaining to distribution of the
  19:../../LUFA-111009/LUFA/Drivers/USB/Core/AVR8/../AVR8/Device_AVR8.h ****   software without specific, written prior permission.
  20:../../LUFA-111009/LUFA/Drivers/USB/Core/AVR8/../AVR8/Device_AVR8.h **** 
  21:../../LUFA-111009/LUFA/Drivers/USB/Core/AVR8/../AVR8/Device_AVR8.h ****   The author disclaim all warranties with regard to this
  22:../../LUFA-111009/LUFA/Drivers/USB/Core/AVR8/../AVR8/Device_AVR8.h ****   software, including all implied warranties of merchantability
  23:../../LUFA-111009/LUFA/Drivers/USB/Core/AVR8/../AVR8/Device_AVR8.h ****   and fitness.  In no event shall the author be liable for any
  24:../../LUFA-111009/LUFA/Drivers/USB/Core/AVR8/../AVR8/Device_AVR8.h ****   special, indirect or consequential damages or any damages
  25:../../LUFA-111009/LUFA/Drivers/USB/Core/AVR8/../AVR8/Device_AVR8.h ****   whatsoever resulting from loss of use, data or profits, whether
  26:../../LUFA-111009/LUFA/Drivers/USB/Core/AVR8/../AVR8/Device_AVR8.h ****   in an action of contract, negligence or other tortious action,
  27:../../LUFA-111009/LUFA/Drivers/USB/Core/AVR8/../AVR8/Device_AVR8.h ****   arising out of or in connection with the use or performance of
  28:../../LUFA-111009/LUFA/Drivers/USB/Core/AVR8/../AVR8/Device_AVR8.h ****   this software.
  29:../../LUFA-111009/LUFA/Drivers/USB/Core/AVR8/../AVR8/Device_AVR8.h **** */
  30:../../LUFA-111009/LUFA/Drivers/USB/Core/AVR8/../AVR8/Device_AVR8.h **** 
  31:../../LUFA-111009/LUFA/Drivers/USB/Core/AVR8/../AVR8/Device_AVR8.h **** /** \file
  32:../../LUFA-111009/LUFA/Drivers/USB/Core/AVR8/../AVR8/Device_AVR8.h ****  *  \brief USB Device definitions for the AVR8 microcontrollers.
  33:../../LUFA-111009/LUFA/Drivers/USB/Core/AVR8/../AVR8/Device_AVR8.h ****  *  \copydetails Group_Device_AVR8
  34:../../LUFA-111009/LUFA/Drivers/USB/Core/AVR8/../AVR8/Device_AVR8.h ****  *
  35:../../LUFA-111009/LUFA/Drivers/USB/Core/AVR8/../AVR8/Device_AVR8.h ****  *  \note This file should not be included directly. It is automatically included as needed by the 
  36:../../LUFA-111009/LUFA/Drivers/USB/Core/AVR8/../AVR8/Device_AVR8.h ****  *        dispatch header located in LUFA/Drivers/USB/USB.h.
  37:../../LUFA-111009/LUFA/Drivers/USB/Core/AVR8/../AVR8/Device_AVR8.h ****  */
  38:../../LUFA-111009/LUFA/Drivers/USB/Core/AVR8/../AVR8/Device_AVR8.h **** 
  39:../../LUFA-111009/LUFA/Drivers/USB/Core/AVR8/../AVR8/Device_AVR8.h **** /** \ingroup Group_Device
  40:../../LUFA-111009/LUFA/Drivers/USB/Core/AVR8/../AVR8/Device_AVR8.h ****  *  \defgroup Group_Device_AVR8 Device Management (AVR8)
  41:../../LUFA-111009/LUFA/Drivers/USB/Core/AVR8/../AVR8/Device_AVR8.h ****  *  \brief USB Device definitions for the AVR8 microcontrollers.
  42:../../LUFA-111009/LUFA/Drivers/USB/Core/AVR8/../AVR8/Device_AVR8.h ****  *
  43:../../LUFA-111009/LUFA/Drivers/USB/Core/AVR8/../AVR8/Device_AVR8.h ****  *  Architecture specific USB Device definitions for the Atmel 8-bit AVR microcontrollers.
  44:../../LUFA-111009/LUFA/Drivers/USB/Core/AVR8/../AVR8/Device_AVR8.h ****  *
  45:../../LUFA-111009/LUFA/Drivers/USB/Core/AVR8/../AVR8/Device_AVR8.h ****  *  @{
  46:../../LUFA-111009/LUFA/Drivers/USB/Core/AVR8/../AVR8/Device_AVR8.h ****  */
  47:../../LUFA-111009/LUFA/Drivers/USB/Core/AVR8/../AVR8/Device_AVR8.h **** 
  48:../../LUFA-111009/LUFA/Drivers/USB/Core/AVR8/../AVR8/Device_AVR8.h **** #ifndef __USBDEVICE_AVR8_H__
  49:../../LUFA-111009/LUFA/Drivers/USB/Core/AVR8/../AVR8/Device_AVR8.h **** #define __USBDEVICE_AVR8_H__
  50:../../LUFA-111009/LUFA/Drivers/USB/Core/AVR8/../AVR8/Device_AVR8.h **** 
  51:../../LUFA-111009/LUFA/Drivers/USB/Core/AVR8/../AVR8/Device_AVR8.h **** 	/* Includes: */
  52:../../LUFA-111009/LUFA/Drivers/USB/Core/AVR8/../AVR8/Device_AVR8.h **** 		#include "../../../../Common/Common.h"
  53:../../LUFA-111009/LUFA/Drivers/USB/Core/AVR8/../AVR8/Device_AVR8.h **** 		#include "../USBController.h"
  54:../../LUFA-111009/LUFA/Drivers/USB/Core/AVR8/../AVR8/Device_AVR8.h **** 		#include "../StdDescriptors.h"
  55:../../LUFA-111009/LUFA/Drivers/USB/Core/AVR8/../AVR8/Device_AVR8.h **** 		#include "../USBInterrupt.h"
  56:../../LUFA-111009/LUFA/Drivers/USB/Core/AVR8/../AVR8/Device_AVR8.h **** 		#include "../Endpoint.h"
  57:../../LUFA-111009/LUFA/Drivers/USB/Core/AVR8/../AVR8/Device_AVR8.h **** 		
  58:../../LUFA-111009/LUFA/Drivers/USB/Core/AVR8/../AVR8/Device_AVR8.h **** 	/* Enable C linkage for C++ Compilers: */
  59:../../LUFA-111009/LUFA/Drivers/USB/Core/AVR8/../AVR8/Device_AVR8.h **** 		#if defined(__cplusplus)
  60:../../LUFA-111009/LUFA/Drivers/USB/Core/AVR8/../AVR8/Device_AVR8.h **** 			extern "C" {
  61:../../LUFA-111009/LUFA/Drivers/USB/Core/AVR8/../AVR8/Device_AVR8.h **** 		#endif
  62:../../LUFA-111009/LUFA/Drivers/USB/Core/AVR8/../AVR8/Device_AVR8.h **** 
  63:../../LUFA-111009/LUFA/Drivers/USB/Core/AVR8/../AVR8/Device_AVR8.h **** 	/* Preprocessor Checks: */
  64:../../LUFA-111009/LUFA/Drivers/USB/Core/AVR8/../AVR8/Device_AVR8.h **** 		#if !defined(__INCLUDE_FROM_USB_DRIVER)
  65:../../LUFA-111009/LUFA/Drivers/USB/Core/AVR8/../AVR8/Device_AVR8.h **** 			#error Do not include this file directly. Include LUFA/Drivers/USB/USB.h instead.
  66:../../LUFA-111009/LUFA/Drivers/USB/Core/AVR8/../AVR8/Device_AVR8.h **** 		#endif
  67:../../LUFA-111009/LUFA/Drivers/USB/Core/AVR8/../AVR8/Device_AVR8.h **** 
  68:../../LUFA-111009/LUFA/Drivers/USB/Core/AVR8/../AVR8/Device_AVR8.h **** 		#if (defined(USE_RAM_DESCRIPTORS) && defined(USE_EEPROM_DESCRIPTORS))
  69:../../LUFA-111009/LUFA/Drivers/USB/Core/AVR8/../AVR8/Device_AVR8.h **** 			#error USE_RAM_DESCRIPTORS and USE_EEPROM_DESCRIPTORS are mutually exclusive.
  70:../../LUFA-111009/LUFA/Drivers/USB/Core/AVR8/../AVR8/Device_AVR8.h **** 		#endif
  71:../../LUFA-111009/LUFA/Drivers/USB/Core/AVR8/../AVR8/Device_AVR8.h **** 
  72:../../LUFA-111009/LUFA/Drivers/USB/Core/AVR8/../AVR8/Device_AVR8.h **** 	/* Public Interface - May be used in end-application: */
  73:../../LUFA-111009/LUFA/Drivers/USB/Core/AVR8/../AVR8/Device_AVR8.h **** 		/* Macros: */
  74:../../LUFA-111009/LUFA/Drivers/USB/Core/AVR8/../AVR8/Device_AVR8.h **** 			/** \name USB Device Mode Option Masks */
  75:../../LUFA-111009/LUFA/Drivers/USB/Core/AVR8/../AVR8/Device_AVR8.h **** 			//@{
  76:../../LUFA-111009/LUFA/Drivers/USB/Core/AVR8/../AVR8/Device_AVR8.h **** 			#if defined(USB_SERIES_4_AVR) || defined(USB_SERIES_6_AVR) || defined(USB_SERIES_7_AVR) || defin
  77:../../LUFA-111009/LUFA/Drivers/USB/Core/AVR8/../AVR8/Device_AVR8.h **** 				/** Mask for the Options parameter of the \ref USB_Init() function. This indicates that the
  78:../../LUFA-111009/LUFA/Drivers/USB/Core/AVR8/../AVR8/Device_AVR8.h **** 				 *  USB interface should be initialized in low speed (1.5Mb/s) mode.
  79:../../LUFA-111009/LUFA/Drivers/USB/Core/AVR8/../AVR8/Device_AVR8.h **** 				 *
  80:../../LUFA-111009/LUFA/Drivers/USB/Core/AVR8/../AVR8/Device_AVR8.h **** 				 *  \note Low Speed mode is not available on all USB AVR models.
  81:../../LUFA-111009/LUFA/Drivers/USB/Core/AVR8/../AVR8/Device_AVR8.h **** 				 *        \n
  82:../../LUFA-111009/LUFA/Drivers/USB/Core/AVR8/../AVR8/Device_AVR8.h **** 				 *
  83:../../LUFA-111009/LUFA/Drivers/USB/Core/AVR8/../AVR8/Device_AVR8.h **** 				 *  \note Restrictions apply on the number, size and type of endpoints which can be used
  84:../../LUFA-111009/LUFA/Drivers/USB/Core/AVR8/../AVR8/Device_AVR8.h **** 				 *        when running in low speed mode - refer to the USB 2.0 specification.
  85:../../LUFA-111009/LUFA/Drivers/USB/Core/AVR8/../AVR8/Device_AVR8.h **** 				 */
  86:../../LUFA-111009/LUFA/Drivers/USB/Core/AVR8/../AVR8/Device_AVR8.h **** 				#define USB_DEVICE_OPT_LOWSPEED            (1 << 0)
  87:../../LUFA-111009/LUFA/Drivers/USB/Core/AVR8/../AVR8/Device_AVR8.h **** 			#endif
  88:../../LUFA-111009/LUFA/Drivers/USB/Core/AVR8/../AVR8/Device_AVR8.h **** 
  89:../../LUFA-111009/LUFA/Drivers/USB/Core/AVR8/../AVR8/Device_AVR8.h **** 			/** Mask for the Options parameter of the \ref USB_Init() function. This indicates that the
  90:../../LUFA-111009/LUFA/Drivers/USB/Core/AVR8/../AVR8/Device_AVR8.h **** 			 *  USB interface should be initialized in full speed (12Mb/s) mode.
  91:../../LUFA-111009/LUFA/Drivers/USB/Core/AVR8/../AVR8/Device_AVR8.h **** 			 */
  92:../../LUFA-111009/LUFA/Drivers/USB/Core/AVR8/../AVR8/Device_AVR8.h **** 			#define USB_DEVICE_OPT_FULLSPEED               (0 << 0)
  93:../../LUFA-111009/LUFA/Drivers/USB/Core/AVR8/../AVR8/Device_AVR8.h **** 			//@}
  94:../../LUFA-111009/LUFA/Drivers/USB/Core/AVR8/../AVR8/Device_AVR8.h **** 			
  95:../../LUFA-111009/LUFA/Drivers/USB/Core/AVR8/../AVR8/Device_AVR8.h **** 			#if (!defined(NO_INTERNAL_SERIAL) && \
  96:../../LUFA-111009/LUFA/Drivers/USB/Core/AVR8/../AVR8/Device_AVR8.h **** 			     (defined(USB_SERIES_7_AVR) || defined(USB_SERIES_6_AVR) || defined(USB_SERIES_4_AVR) || \
  97:../../LUFA-111009/LUFA/Drivers/USB/Core/AVR8/../AVR8/Device_AVR8.h **** 			      (defined(USB_SERIES_2_AVR) && (!defined(__AVR_AT90USB82__) || defined(__AVR_AT90USB162__))
  98:../../LUFA-111009/LUFA/Drivers/USB/Core/AVR8/../AVR8/Device_AVR8.h **** 				  defined(__DOXYGEN__)))
  99:../../LUFA-111009/LUFA/Drivers/USB/Core/AVR8/../AVR8/Device_AVR8.h **** 				/** String descriptor index for the device's unique serial number string descriptor within the 
 100:../../LUFA-111009/LUFA/Drivers/USB/Core/AVR8/../AVR8/Device_AVR8.h **** 				 *  This unique serial number is used by the host to associate resources to the device (such as
 101:../../LUFA-111009/LUFA/Drivers/USB/Core/AVR8/../AVR8/Device_AVR8.h **** 				 *  number allocations) to a device regardless of the port it is plugged in to on the host. Som
 102:../../LUFA-111009/LUFA/Drivers/USB/Core/AVR8/../AVR8/Device_AVR8.h **** 				 *  a unique serial number internally, and setting the device descriptors serial number string 
 103:../../LUFA-111009/LUFA/Drivers/USB/Core/AVR8/../AVR8/Device_AVR8.h **** 				 *  will cause it to use the internal serial number.
 104:../../LUFA-111009/LUFA/Drivers/USB/Core/AVR8/../AVR8/Device_AVR8.h **** 				 *
 105:../../LUFA-111009/LUFA/Drivers/USB/Core/AVR8/../AVR8/Device_AVR8.h **** 				 *  On unsupported devices, this will evaluate to \ref NO_DESCRIPTOR and so will force the host
 106:../../LUFA-111009/LUFA/Drivers/USB/Core/AVR8/../AVR8/Device_AVR8.h **** 				 *  number for the device.
 107:../../LUFA-111009/LUFA/Drivers/USB/Core/AVR8/../AVR8/Device_AVR8.h **** 				 */
 108:../../LUFA-111009/LUFA/Drivers/USB/Core/AVR8/../AVR8/Device_AVR8.h **** 				#define USE_INTERNAL_SERIAL            0xDC
 109:../../LUFA-111009/LUFA/Drivers/USB/Core/AVR8/../AVR8/Device_AVR8.h **** 
 110:../../LUFA-111009/LUFA/Drivers/USB/Core/AVR8/../AVR8/Device_AVR8.h **** 				/** Length of the device's unique internal serial number, in bits, if present on the selected m
 111:../../LUFA-111009/LUFA/Drivers/USB/Core/AVR8/../AVR8/Device_AVR8.h **** 				 *  model.
 112:../../LUFA-111009/LUFA/Drivers/USB/Core/AVR8/../AVR8/Device_AVR8.h **** 				 */
 113:../../LUFA-111009/LUFA/Drivers/USB/Core/AVR8/../AVR8/Device_AVR8.h **** 				#define INTERNAL_SERIAL_LENGTH_BITS    80
 114:../../LUFA-111009/LUFA/Drivers/USB/Core/AVR8/../AVR8/Device_AVR8.h **** 				
 115:../../LUFA-111009/LUFA/Drivers/USB/Core/AVR8/../AVR8/Device_AVR8.h **** 				/** Start address of the internal serial number, in the appropriate address space, if present o
 116:../../LUFA-111009/LUFA/Drivers/USB/Core/AVR8/../AVR8/Device_AVR8.h **** 				 *  model.
 117:../../LUFA-111009/LUFA/Drivers/USB/Core/AVR8/../AVR8/Device_AVR8.h **** 				 */
 118:../../LUFA-111009/LUFA/Drivers/USB/Core/AVR8/../AVR8/Device_AVR8.h **** 				#define INTERNAL_SERIAL_START_ADDRESS  0x0E
 119:../../LUFA-111009/LUFA/Drivers/USB/Core/AVR8/../AVR8/Device_AVR8.h **** 			#else
 120:../../LUFA-111009/LUFA/Drivers/USB/Core/AVR8/../AVR8/Device_AVR8.h **** 				#define USE_INTERNAL_SERIAL            NO_DESCRIPTOR
 121:../../LUFA-111009/LUFA/Drivers/USB/Core/AVR8/../AVR8/Device_AVR8.h **** 
 122:../../LUFA-111009/LUFA/Drivers/USB/Core/AVR8/../AVR8/Device_AVR8.h **** 				#define INTERNAL_SERIAL_LENGTH_BITS    0
 123:../../LUFA-111009/LUFA/Drivers/USB/Core/AVR8/../AVR8/Device_AVR8.h **** 				#define INTERNAL_SERIAL_START_ADDRESS  0
 124:../../LUFA-111009/LUFA/Drivers/USB/Core/AVR8/../AVR8/Device_AVR8.h **** 			#endif			
 125:../../LUFA-111009/LUFA/Drivers/USB/Core/AVR8/../AVR8/Device_AVR8.h **** 			
 126:../../LUFA-111009/LUFA/Drivers/USB/Core/AVR8/../AVR8/Device_AVR8.h **** 		/* Function Prototypes: */
 127:../../LUFA-111009/LUFA/Drivers/USB/Core/AVR8/../AVR8/Device_AVR8.h **** 			/** Sends a Remote Wakeup request to the host. This signals to the host that the device should
 128:../../LUFA-111009/LUFA/Drivers/USB/Core/AVR8/../AVR8/Device_AVR8.h **** 			 *  be taken out of suspended mode, and communications should resume.
 129:../../LUFA-111009/LUFA/Drivers/USB/Core/AVR8/../AVR8/Device_AVR8.h **** 			 *
 130:../../LUFA-111009/LUFA/Drivers/USB/Core/AVR8/../AVR8/Device_AVR8.h **** 			 *  Typically, this is implemented so that HID devices (mice, keyboards, etc.) can wake up the
 131:../../LUFA-111009/LUFA/Drivers/USB/Core/AVR8/../AVR8/Device_AVR8.h **** 			 *  host computer when the host has suspended all USB devices to enter a low power state.
 132:../../LUFA-111009/LUFA/Drivers/USB/Core/AVR8/../AVR8/Device_AVR8.h **** 			 *
 133:../../LUFA-111009/LUFA/Drivers/USB/Core/AVR8/../AVR8/Device_AVR8.h **** 			 *  \note This macro should only be used if the device has indicated to the host that it
 134:../../LUFA-111009/LUFA/Drivers/USB/Core/AVR8/../AVR8/Device_AVR8.h **** 			 *        supports the Remote Wakeup feature in the device descriptors, and should only be
 135:../../LUFA-111009/LUFA/Drivers/USB/Core/AVR8/../AVR8/Device_AVR8.h **** 			 *        issued if the host is currently allowing remote wakeup events from the device (i.e.,
 136:../../LUFA-111009/LUFA/Drivers/USB/Core/AVR8/../AVR8/Device_AVR8.h **** 			 *        the \ref USB_Device_RemoteWakeupEnabled flag is set). When the \c NO_DEVICE_REMOTE_WAK
 137:../../LUFA-111009/LUFA/Drivers/USB/Core/AVR8/../AVR8/Device_AVR8.h **** 			 *        compile time option is used, this macro is unavailable.
 138:../../LUFA-111009/LUFA/Drivers/USB/Core/AVR8/../AVR8/Device_AVR8.h **** 			 *        \n\n
 139:../../LUFA-111009/LUFA/Drivers/USB/Core/AVR8/../AVR8/Device_AVR8.h **** 			 *
 140:../../LUFA-111009/LUFA/Drivers/USB/Core/AVR8/../AVR8/Device_AVR8.h **** 			 *  \note The USB clock must be running for this function to operate. If the stack is initialize
 141:../../LUFA-111009/LUFA/Drivers/USB/Core/AVR8/../AVR8/Device_AVR8.h **** 			 *        the \ref USB_OPT_MANUAL_PLL option enabled, the user must ensure that the PLL is runni
 142:../../LUFA-111009/LUFA/Drivers/USB/Core/AVR8/../AVR8/Device_AVR8.h **** 			 *        before attempting to call this function.
 143:../../LUFA-111009/LUFA/Drivers/USB/Core/AVR8/../AVR8/Device_AVR8.h **** 			 *
 144:../../LUFA-111009/LUFA/Drivers/USB/Core/AVR8/../AVR8/Device_AVR8.h **** 			 *  \see \ref Group_StdDescriptors for more information on the RMWAKEUP feature and device descr
 145:../../LUFA-111009/LUFA/Drivers/USB/Core/AVR8/../AVR8/Device_AVR8.h **** 			 */
 146:../../LUFA-111009/LUFA/Drivers/USB/Core/AVR8/../AVR8/Device_AVR8.h **** 			void USB_Device_SendRemoteWakeup(void);
 147:../../LUFA-111009/LUFA/Drivers/USB/Core/AVR8/../AVR8/Device_AVR8.h **** 
 148:../../LUFA-111009/LUFA/Drivers/USB/Core/AVR8/../AVR8/Device_AVR8.h **** 		/* Inline Functions: */
 149:../../LUFA-111009/LUFA/Drivers/USB/Core/AVR8/../AVR8/Device_AVR8.h **** 			/** Returns the current USB frame number, when in device mode. Every millisecond the USB bus is 
 150:../../LUFA-111009/LUFA/Drivers/USB/Core/AVR8/../AVR8/Device_AVR8.h **** 			 *  the frame number is incremented by one.
 151:../../LUFA-111009/LUFA/Drivers/USB/Core/AVR8/../AVR8/Device_AVR8.h **** 			 *
 152:../../LUFA-111009/LUFA/Drivers/USB/Core/AVR8/../AVR8/Device_AVR8.h **** 			 *  \return Current USB frame number from the USB controller.
 153:../../LUFA-111009/LUFA/Drivers/USB/Core/AVR8/../AVR8/Device_AVR8.h **** 			 */
 154:../../LUFA-111009/LUFA/Drivers/USB/Core/AVR8/../AVR8/Device_AVR8.h **** 			static inline uint16_t USB_Device_GetFrameNumber(void) ATTR_ALWAYS_INLINE ATTR_WARN_UNUSED_RESUL
 155:../../LUFA-111009/LUFA/Drivers/USB/Core/AVR8/../AVR8/Device_AVR8.h **** 			static inline uint16_t USB_Device_GetFrameNumber(void)
 156:../../LUFA-111009/LUFA/Drivers/USB/Core/AVR8/../AVR8/Device_AVR8.h **** 			{
 157:../../LUFA-111009/LUFA/Drivers/USB/Core/AVR8/../AVR8/Device_AVR8.h **** 				return UDFNUM;
 158:../../LUFA-111009/LUFA/Drivers/USB/Core/AVR8/../AVR8/Device_AVR8.h **** 			}
 159:../../LUFA-111009/LUFA/Drivers/USB/Core/AVR8/../AVR8/Device_AVR8.h **** 
 160:../../LUFA-111009/LUFA/Drivers/USB/Core/AVR8/../AVR8/Device_AVR8.h **** 			#if !defined(NO_SOF_EVENTS)
 161:../../LUFA-111009/LUFA/Drivers/USB/Core/AVR8/../AVR8/Device_AVR8.h **** 				/** Enables the device mode Start Of Frame events. When enabled, this causes the
 162:../../LUFA-111009/LUFA/Drivers/USB/Core/AVR8/../AVR8/Device_AVR8.h **** 				 *  \ref EVENT_USB_Device_StartOfFrame() event to fire once per millisecond, synchronized to th
 163:../../LUFA-111009/LUFA/Drivers/USB/Core/AVR8/../AVR8/Device_AVR8.h **** 				 *  at the start of each USB frame when enumerated in device mode.
 164:../../LUFA-111009/LUFA/Drivers/USB/Core/AVR8/../AVR8/Device_AVR8.h **** 				 *
 165:../../LUFA-111009/LUFA/Drivers/USB/Core/AVR8/../AVR8/Device_AVR8.h **** 				 *  \note Not available when the \c NO_SOF_EVENTS compile time token is defined.
 166:../../LUFA-111009/LUFA/Drivers/USB/Core/AVR8/../AVR8/Device_AVR8.h **** 				 */
 167:../../LUFA-111009/LUFA/Drivers/USB/Core/AVR8/../AVR8/Device_AVR8.h **** 				static inline void USB_Device_EnableSOFEvents(void) ATTR_ALWAYS_INLINE;
 168:../../LUFA-111009/LUFA/Drivers/USB/Core/AVR8/../AVR8/Device_AVR8.h **** 				static inline void USB_Device_EnableSOFEvents(void)
 169:../../LUFA-111009/LUFA/Drivers/USB/Core/AVR8/../AVR8/Device_AVR8.h **** 				{
 170:../../LUFA-111009/LUFA/Drivers/USB/Core/AVR8/../AVR8/Device_AVR8.h **** 					USB_INT_Enable(USB_INT_SOFI);
 171:../../LUFA-111009/LUFA/Drivers/USB/Core/AVR8/../AVR8/Device_AVR8.h **** 				}
 172:../../LUFA-111009/LUFA/Drivers/USB/Core/AVR8/../AVR8/Device_AVR8.h **** 
 173:../../LUFA-111009/LUFA/Drivers/USB/Core/AVR8/../AVR8/Device_AVR8.h **** 				/** Disables the device mode Start Of Frame events. When disabled, this stops the firing of the
 174:../../LUFA-111009/LUFA/Drivers/USB/Core/AVR8/../AVR8/Device_AVR8.h **** 				 *  \ref EVENT_USB_Device_StartOfFrame() event when enumerated in device mode.
 175:../../LUFA-111009/LUFA/Drivers/USB/Core/AVR8/../AVR8/Device_AVR8.h **** 				 *
 176:../../LUFA-111009/LUFA/Drivers/USB/Core/AVR8/../AVR8/Device_AVR8.h **** 				 *  \note Not available when the \c NO_SOF_EVENTS compile time token is defined.
 177:../../LUFA-111009/LUFA/Drivers/USB/Core/AVR8/../AVR8/Device_AVR8.h **** 				 */
 178:../../LUFA-111009/LUFA/Drivers/USB/Core/AVR8/../AVR8/Device_AVR8.h **** 				static inline void USB_Device_DisableSOFEvents(void) ATTR_ALWAYS_INLINE;
 179:../../LUFA-111009/LUFA/Drivers/USB/Core/AVR8/../AVR8/Device_AVR8.h **** 				static inline void USB_Device_DisableSOFEvents(void)
 180:../../LUFA-111009/LUFA/Drivers/USB/Core/AVR8/../AVR8/Device_AVR8.h **** 				{
 181:../../LUFA-111009/LUFA/Drivers/USB/Core/AVR8/../AVR8/Device_AVR8.h **** 					USB_INT_Disable(USB_INT_SOFI);
 182:../../LUFA-111009/LUFA/Drivers/USB/Core/AVR8/../AVR8/Device_AVR8.h **** 				}
 183:../../LUFA-111009/LUFA/Drivers/USB/Core/AVR8/../AVR8/Device_AVR8.h **** 			#endif
 184:../../LUFA-111009/LUFA/Drivers/USB/Core/AVR8/../AVR8/Device_AVR8.h **** 
 185:../../LUFA-111009/LUFA/Drivers/USB/Core/AVR8/../AVR8/Device_AVR8.h **** 	/* Private Interface - For use in library only: */
 186:../../LUFA-111009/LUFA/Drivers/USB/Core/AVR8/../AVR8/Device_AVR8.h **** 	#if !defined(__DOXYGEN__)
 187:../../LUFA-111009/LUFA/Drivers/USB/Core/AVR8/../AVR8/Device_AVR8.h **** 		/* Inline Functions: */
 188:../../LUFA-111009/LUFA/Drivers/USB/Core/AVR8/../AVR8/Device_AVR8.h **** 			#if defined(USB_DEVICE_OPT_LOWSPEED)
 189:../../LUFA-111009/LUFA/Drivers/USB/Core/AVR8/../AVR8/Device_AVR8.h **** 			static inline void USB_Device_SetLowSpeed(void) ATTR_ALWAYS_INLINE;
 190:../../LUFA-111009/LUFA/Drivers/USB/Core/AVR8/../AVR8/Device_AVR8.h **** 			static inline void USB_Device_SetLowSpeed(void)
 191:../../LUFA-111009/LUFA/Drivers/USB/Core/AVR8/../AVR8/Device_AVR8.h **** 			{
 192:../../LUFA-111009/LUFA/Drivers/USB/Core/AVR8/../AVR8/Device_AVR8.h **** 				UDCON |=  (1 << LSM);
 193:../../LUFA-111009/LUFA/Drivers/USB/Core/AVR8/../AVR8/Device_AVR8.h **** 			}
 194:../../LUFA-111009/LUFA/Drivers/USB/Core/AVR8/../AVR8/Device_AVR8.h **** 
 195:../../LUFA-111009/LUFA/Drivers/USB/Core/AVR8/../AVR8/Device_AVR8.h **** 			static inline void USB_Device_SetFullSpeed(void) ATTR_ALWAYS_INLINE;
 196:../../LUFA-111009/LUFA/Drivers/USB/Core/AVR8/../AVR8/Device_AVR8.h **** 			static inline void USB_Device_SetFullSpeed(void)
 197:../../LUFA-111009/LUFA/Drivers/USB/Core/AVR8/../AVR8/Device_AVR8.h **** 			{
 198:../../LUFA-111009/LUFA/Drivers/USB/Core/AVR8/../AVR8/Device_AVR8.h **** 				UDCON &= ~(1 << LSM);
 199:../../LUFA-111009/LUFA/Drivers/USB/Core/AVR8/../AVR8/Device_AVR8.h **** 			}
 200:../../LUFA-111009/LUFA/Drivers/USB/Core/AVR8/../AVR8/Device_AVR8.h **** 			#endif
 201:../../LUFA-111009/LUFA/Drivers/USB/Core/AVR8/../AVR8/Device_AVR8.h **** 
 202:../../LUFA-111009/LUFA/Drivers/USB/Core/AVR8/../AVR8/Device_AVR8.h **** 			static inline void USB_Device_SetDeviceAddress(const uint8_t Address) ATTR_ALWAYS_INLINE;
 203:../../LUFA-111009/LUFA/Drivers/USB/Core/AVR8/../AVR8/Device_AVR8.h **** 			static inline void USB_Device_SetDeviceAddress(const uint8_t Address)
 450               		.loc 4 203 23 view .LVU137
 451               	.LBB215:
 204:../../LUFA-111009/LUFA/Drivers/USB/Core/AVR8/../AVR8/Device_AVR8.h **** 			{
 205:../../LUFA-111009/LUFA/Drivers/USB/Core/AVR8/../AVR8/Device_AVR8.h **** 				uint8_t Temp = (UDADDR & (1 << ADDEN)) | (Address & 0x7F);
 452               		.loc 4 205 5 view .LVU138
 453               		.loc 4 205 21 is_stmt 0 view .LVU139
 454 00f8 8091 E300 		lds r24,227
 455               		.loc 4 205 28 view .LVU140
 456 00fc 8078      		andi r24,lo8(-128)
 457               		.loc 4 205 44 view .LVU141
 458 00fe 812B      		or r24,r17
 459               	.LVL27:
 206:../../LUFA-111009/LUFA/Drivers/USB/Core/AVR8/../AVR8/Device_AVR8.h **** 
 207:../../LUFA-111009/LUFA/Drivers/USB/Core/AVR8/../AVR8/Device_AVR8.h **** 				UDADDR = Temp;
 460               		.loc 4 207 5 is_stmt 1 view .LVU142
 461               		.loc 4 207 12 is_stmt 0 view .LVU143
 462 0100 8093 E300 		sts 227,r24
 208:../../LUFA-111009/LUFA/Drivers/USB/Core/AVR8/../AVR8/Device_AVR8.h **** 				UDADDR = Temp | (1 << ADDEN);
 463               		.loc 4 208 5 is_stmt 1 view .LVU144
 464               		.loc 4 208 12 is_stmt 0 view .LVU145
 465 0104 8068      		ori r24,lo8(-128)
 466               	.LVL28:
 467               		.loc 4 208 12 view .LVU146
 468 0106 8093 E300 		sts 227,r24
 469               	.LVL29:
 470               		.loc 4 208 12 view .LVU147
 471               	.LBE215:
 472               	.LBE214:
 135:../../LUFA-111009/LUFA/Drivers/USB/Core/DeviceStandardReq.c **** 	
 473               		.loc 1 135 2 is_stmt 1 view .LVU148
 135:../../LUFA-111009/LUFA/Drivers/USB/Core/DeviceStandardReq.c **** 	
 474               		.loc 1 135 18 is_stmt 0 view .LVU149
 475 010a 82E0      		ldi r24,lo8(2)
 476 010c 1111      		cpse r17,__zero_reg__
 477 010e 83E0      		ldi r24,lo8(3)
 478               	.L16:
 479 0110 8EBB      		out 0x1e,r24
 137:../../LUFA-111009/LUFA/Drivers/USB/Core/DeviceStandardReq.c **** }
 480               		.loc 1 137 2 is_stmt 1 view .LVU150
 481               	.LVL30:
 482               	.LBB216:
 483               	.LBI216:
 307:../../LUFA-111009/LUFA/Drivers/USB/Core/../../../Common/Common.h **** 			{
 484               		.loc 3 307 23 view .LVU151
 485               	.LBB217:
 309:../../LUFA-111009/LUFA/Drivers/USB/Core/../../../Common/Common.h **** 
 486               		.loc 3 309 5 view .LVU152
 309:../../LUFA-111009/LUFA/Drivers/USB/Core/../../../Common/Common.h **** 
 487               		.loc 3 309 25 view .LVU153
 312:../../LUFA-111009/LUFA/Drivers/USB/Core/../../../Common/Common.h **** 				#elif (ARCH == ARCH_UC3)
 488               		.loc 3 312 5 view .LVU154
 312:../../LUFA-111009/LUFA/Drivers/USB/Core/../../../Common/Common.h **** 				#elif (ARCH == ARCH_UC3)
 489               		.loc 3 312 10 is_stmt 0 view .LVU155
 490 0112 0FBF      		out __SREG__,r16
 322:../../LUFA-111009/LUFA/Drivers/USB/Core/../../../Common/Common.h **** 			}
 491               		.loc 3 322 5 is_stmt 1 view .LVU156
 322:../../LUFA-111009/LUFA/Drivers/USB/Core/../../../Common/Common.h **** 			}
 492               		.loc 3 322 25 view .LVU157
 493               	.LVL31:
 322:../../LUFA-111009/LUFA/Drivers/USB/Core/../../../Common/Common.h **** 			}
 494               		.loc 3 322 25 is_stmt 0 view .LVU158
 495               	.LBE217:
 496               	.LBE216:
 138:../../LUFA-111009/LUFA/Drivers/USB/Core/DeviceStandardReq.c **** 
 497               		.loc 1 138 1 view .LVU159
 498 0114 00C0      		rjmp .L3
 499               	.LVL32:
 500               	.L7:
 138:../../LUFA-111009/LUFA/Drivers/USB/Core/DeviceStandardReq.c **** 
 501               		.loc 1 138 1 view .LVU160
 502               	.LBE205:
 503               	.LBE204:
  95:../../LUFA-111009/LUFA/Drivers/USB/Core/DeviceStandardReq.c **** 					(bmRequestType == (REQDIR_DEVICETOHOST | REQTYPE_STANDARD | REQREC_INTERFACE)))
 504               		.loc 1 95 5 is_stmt 1 view .LVU161
  95:../../LUFA-111009/LUFA/Drivers/USB/Core/DeviceStandardReq.c **** 					(bmRequestType == (REQDIR_DEVICETOHOST | REQTYPE_STANDARD | REQREC_INTERFACE)))
 505               		.loc 1 95 85 is_stmt 0 view .LVU162
 506 0116 8058      		subi r24,lo8(-(-128))
 507               	.LVL33:
  95:../../LUFA-111009/LUFA/Drivers/USB/Core/DeviceStandardReq.c **** 					(bmRequestType == (REQDIR_DEVICETOHOST | REQTYPE_STANDARD | REQREC_INTERFACE)))
 508               		.loc 1 95 8 view .LVU163
 509 0118 8230      		cpi r24,lo8(2)
 510 011a 00F0      		brlo .+2
 511 011c 00C0      		rjmp .L3
  98:../../LUFA-111009/LUFA/Drivers/USB/Core/DeviceStandardReq.c **** 				}
 512               		.loc 1 98 6 is_stmt 1 view .LVU164
 513               	.LBB218:
 514               	.LBI218:
 237:../../LUFA-111009/LUFA/Drivers/USB/Core/DeviceStandardReq.c **** {
 515               		.loc 1 237 13 view .LVU165
 516               	.LBB219:
 239:../../LUFA-111009/LUFA/Drivers/USB/Core/DeviceStandardReq.c **** 	uint16_t    DescriptorSize;
 517               		.loc 1 239 2 view .LVU166
 240:../../LUFA-111009/LUFA/Drivers/USB/Core/DeviceStandardReq.c **** 
 518               		.loc 1 240 2 view .LVU167
 255:../../LUFA-111009/LUFA/Drivers/USB/Core/DeviceStandardReq.c **** 	                                                 &DescriptorPointer
 519               		.loc 1 255 2 view .LVU168
 255:../../LUFA-111009/LUFA/Drivers/USB/Core/DeviceStandardReq.c **** 	                                                 &DescriptorPointer
 520               		.loc 1 255 24 is_stmt 0 view .LVU169
 521 011e AE01      		movw r20,r28
 522 0120 4F5F      		subi r20,-1
 523 0122 5F4F      		sbci r21,-1
 524 0124 6091 0000 		lds r22,USB_ControlRequest+4
 525 0128 8091 0000 		lds r24,USB_ControlRequest+2
 526 012c 9091 0000 		lds r25,USB_ControlRequest+2+1
 527 0130 0E94 0000 		call CALLBACK_USB_GetDescriptor
 528               	.LVL34:
 255:../../LUFA-111009/LUFA/Drivers/USB/Core/DeviceStandardReq.c **** 	                                                 &DescriptorPointer
 529               		.loc 1 255 24 view .LVU170
 530 0134 BC01      		movw r22,r24
 531               	.LVL35:
 255:../../LUFA-111009/LUFA/Drivers/USB/Core/DeviceStandardReq.c **** 	                                                 &DescriptorPointer
 532               		.loc 1 255 5 view .LVU171
 533 0136 892B      		or r24,r25
 534 0138 01F4      		brne .+2
 535 013a 00C0      		rjmp .L3
 266:../../LUFA-111009/LUFA/Drivers/USB/Core/DeviceStandardReq.c **** 
 536               		.loc 1 266 2 is_stmt 1 view .LVU172
 537               	.LBB220:
 538               	.LBI220:
 502:../../LUFA-111009/LUFA/Drivers/USB/Core/AVR8/../AVR8/Endpoint_AVR8.h **** 			{
 539               		.loc 2 502 23 view .LVU173
 540               	.LBB221:
 504:../../LUFA-111009/LUFA/Drivers/USB/Core/AVR8/../AVR8/Endpoint_AVR8.h **** 			}
 541               		.loc 2 504 5 view .LVU174
 504:../../LUFA-111009/LUFA/Drivers/USB/Core/AVR8/../AVR8/Endpoint_AVR8.h **** 			}
 542               		.loc 2 504 12 is_stmt 0 view .LVU175
 543 013c 8091 E800 		lds r24,232
 544 0140 877F      		andi r24,lo8(-9)
 545 0142 8093 E800 		sts 232,r24
 546               	.LBE221:
 547               	.LBE220:
 269:../../LUFA-111009/LUFA/Drivers/USB/Core/DeviceStandardReq.c **** 	#elif defined(USE_EEPROM_DESCRIPTORS)
 548               		.loc 1 269 2 is_stmt 1 view .LVU176
 549 0146 8981      		ldd r24,Y+1
 550 0148 9A81      		ldd r25,Y+2
 551 014a 0E94 0000 		call Endpoint_Write_Control_Stream_LE
 552               	.LVL36:
 283:../../LUFA-111009/LUFA/Drivers/USB/Core/DeviceStandardReq.c **** }
 553               		.loc 1 283 2 view .LVU177
 554               	.LBB222:
 555               	.LBI222:
 528:../../LUFA-111009/LUFA/Drivers/USB/Core/AVR8/../AVR8/Endpoint_AVR8.h **** 			{
 556               		.loc 2 528 23 view .LVU178
 557               	.LBB223:
 531:../../LUFA-111009/LUFA/Drivers/USB/Core/AVR8/../AVR8/Endpoint_AVR8.h **** 				#else
 558               		.loc 2 531 6 view .LVU179
 531:../../LUFA-111009/LUFA/Drivers/USB/Core/AVR8/../AVR8/Endpoint_AVR8.h **** 				#else
 559               		.loc 2 531 13 is_stmt 0 view .LVU180
 560 014e 8091 E800 		lds r24,232
 561 0152 8B77      		andi r24,lo8(123)
 562 0154 8093 E800 		sts 232,r24
 563               	.LBE223:
 564               	.LBE222:
 565 0158 00C0      		rjmp .L3
 566               	.LVL37:
 567               	.L6:
 531:../../LUFA-111009/LUFA/Drivers/USB/Core/AVR8/../AVR8/Endpoint_AVR8.h **** 				#else
 568               		.loc 2 531 13 view .LVU181
 569               	.LBE219:
 570               	.LBE218:
 103:../../LUFA-111009/LUFA/Drivers/USB/Core/DeviceStandardReq.c **** 				  USB_Device_GetConfiguration();
 571               		.loc 1 103 5 is_stmt 1 view .LVU182
 103:../../LUFA-111009/LUFA/Drivers/USB/Core/DeviceStandardReq.c **** 				  USB_Device_GetConfiguration();
 572               		.loc 1 103 8 is_stmt 0 view .LVU183
 573 015a 8038      		cpi r24,lo8(-128)
 574 015c 01F0      		breq .+2
 575 015e 00C0      		rjmp .L3
 104:../../LUFA-111009/LUFA/Drivers/USB/Core/DeviceStandardReq.c **** 
 576               		.loc 1 104 7 is_stmt 1 view .LVU184
 577               	.LBB224:
 578               	.LBI169:
 206:../../LUFA-111009/LUFA/Drivers/USB/Core/DeviceStandardReq.c **** {
 579               		.loc 1 206 13 view .LVU185
 580               	.LBB179:
 208:../../LUFA-111009/LUFA/Drivers/USB/Core/DeviceStandardReq.c **** 
 581               		.loc 1 208 2 view .LVU186
 582               	.LBB174:
 583               	.LBI174:
 502:../../LUFA-111009/LUFA/Drivers/USB/Core/AVR8/../AVR8/Endpoint_AVR8.h **** 			{
 584               		.loc 2 502 23 view .LVU187
 585               	.LBB175:
 504:../../LUFA-111009/LUFA/Drivers/USB/Core/AVR8/../AVR8/Endpoint_AVR8.h **** 			}
 586               		.loc 2 504 5 view .LVU188
 504:../../LUFA-111009/LUFA/Drivers/USB/Core/AVR8/../AVR8/Endpoint_AVR8.h **** 			}
 587               		.loc 2 504 12 is_stmt 0 view .LVU189
 588 0160 8091 E800 		lds r24,232
 589               	.LVL38:
 504:../../LUFA-111009/LUFA/Drivers/USB/Core/AVR8/../AVR8/Endpoint_AVR8.h **** 			}
 590               		.loc 2 504 12 view .LVU190
 591 0164 877F      		andi r24,lo8(-9)
 592 0166 8093 E800 		sts 232,r24
 593               	.LVL39:
 504:../../LUFA-111009/LUFA/Drivers/USB/Core/AVR8/../AVR8/Endpoint_AVR8.h **** 			}
 594               		.loc 2 504 12 view .LVU191
 595               	.LBE175:
 596               	.LBE174:
 210:../../LUFA-111009/LUFA/Drivers/USB/Core/DeviceStandardReq.c **** 	Endpoint_ClearIN();
 597               		.loc 1 210 2 is_stmt 1 view .LVU192
 598 016a 8091 0000 		lds r24,USB_Device_ConfigurationNumber
 599               	.LVL40:
 600               	.LBB176:
 601               	.LBI176:
 622:../../LUFA-111009/LUFA/Drivers/USB/Core/AVR8/../AVR8/Endpoint_AVR8.h **** 			{
 602               		.loc 2 622 23 view .LVU193
 603               	.LBB177:
 624:../../LUFA-111009/LUFA/Drivers/USB/Core/AVR8/../AVR8/Endpoint_AVR8.h **** 			}
 604               		.loc 2 624 5 view .LVU194
 624:../../LUFA-111009/LUFA/Drivers/USB/Core/AVR8/../AVR8/Endpoint_AVR8.h **** 			}
 605               		.loc 2 624 12 is_stmt 0 view .LVU195
 606 016e 8093 F100 		sts 241,r24
 607 0172 00C0      		rjmp .L41
 608               	.LVL41:
 609               	.L4:
 624:../../LUFA-111009/LUFA/Drivers/USB/Core/AVR8/../AVR8/Endpoint_AVR8.h **** 			}
 610               		.loc 2 624 12 view .LVU196
 611               	.LBE177:
 612               	.LBE176:
 613               	.LBE179:
 614               	.LBE224:
 108:../../LUFA-111009/LUFA/Drivers/USB/Core/DeviceStandardReq.c **** 				  USB_Device_SetConfiguration();
 615               		.loc 1 108 5 is_stmt 1 view .LVU197
 108:../../LUFA-111009/LUFA/Drivers/USB/Core/DeviceStandardReq.c **** 				  USB_Device_SetConfiguration();
 616               		.loc 1 108 8 is_stmt 0 view .LVU198
 617 0174 8111      		cpse r24,__zero_reg__
 618 0176 00C0      		rjmp .L3
 109:../../LUFA-111009/LUFA/Drivers/USB/Core/DeviceStandardReq.c **** 
 619               		.loc 1 109 7 is_stmt 1 view .LVU199
 620               	.LBB225:
 621               	.LBI225:
 140:../../LUFA-111009/LUFA/Drivers/USB/Core/DeviceStandardReq.c **** {
 622               		.loc 1 140 13 view .LVU200
 623               	.LBB226:
 143:../../LUFA-111009/LUFA/Drivers/USB/Core/DeviceStandardReq.c **** 	  return;
 624               		.loc 1 143 2 view .LVU201
 143:../../LUFA-111009/LUFA/Drivers/USB/Core/DeviceStandardReq.c **** 	  return;
 625               		.loc 1 143 5 is_stmt 0 view .LVU202
 626 0178 9091 0000 		lds r25,USB_ControlRequest+2
 627 017c 9230      		cpi r25,lo8(2)
 628 017e 00F0      		brlo .+2
 629 0180 00C0      		rjmp .L3
 192:../../LUFA-111009/LUFA/Drivers/USB/Core/DeviceStandardReq.c **** 
 630               		.loc 1 192 2 is_stmt 1 view .LVU203
 631               	.LBB227:
 632               	.LBI227:
 502:../../LUFA-111009/LUFA/Drivers/USB/Core/AVR8/../AVR8/Endpoint_AVR8.h **** 			{
 633               		.loc 2 502 23 view .LVU204
 634               	.LBB228:
 504:../../LUFA-111009/LUFA/Drivers/USB/Core/AVR8/../AVR8/Endpoint_AVR8.h **** 			}
 635               		.loc 2 504 5 view .LVU205
 504:../../LUFA-111009/LUFA/Drivers/USB/Core/AVR8/../AVR8/Endpoint_AVR8.h **** 			}
 636               		.loc 2 504 12 is_stmt 0 view .LVU206
 637 0182 8091 E800 		lds r24,232
 638               	.LVL42:
 504:../../LUFA-111009/LUFA/Drivers/USB/Core/AVR8/../AVR8/Endpoint_AVR8.h **** 			}
 639               		.loc 2 504 12 view .LVU207
 640 0186 877F      		andi r24,lo8(-9)
 641 0188 8093 E800 		sts 232,r24
 642               	.LVL43:
 504:../../LUFA-111009/LUFA/Drivers/USB/Core/AVR8/../AVR8/Endpoint_AVR8.h **** 			}
 643               		.loc 2 504 12 view .LVU208
 644               	.LBE228:
 645               	.LBE227:
 194:../../LUFA-111009/LUFA/Drivers/USB/Core/DeviceStandardReq.c **** 
 646               		.loc 1 194 2 is_stmt 1 view .LVU209
 194:../../LUFA-111009/LUFA/Drivers/USB/Core/DeviceStandardReq.c **** 
 647               		.loc 1 194 35 is_stmt 0 view .LVU210
 648 018c 9093 0000 		sts USB_Device_ConfigurationNumber,r25
 196:../../LUFA-111009/LUFA/Drivers/USB/Core/DeviceStandardReq.c **** 
 649               		.loc 1 196 2 is_stmt 1 view .LVU211
 650 0190 0E94 0000 		call Endpoint_ClearStatusStage
 651               	.LVL44:
 198:../../LUFA-111009/LUFA/Drivers/USB/Core/DeviceStandardReq.c **** 	  USB_DeviceState = DEVICE_STATE_Configured;
 652               		.loc 1 198 2 view .LVU212
 198:../../LUFA-111009/LUFA/Drivers/USB/Core/DeviceStandardReq.c **** 	  USB_DeviceState = DEVICE_STATE_Configured;
 653               		.loc 1 198 5 is_stmt 0 view .LVU213
 654 0194 8091 0000 		lds r24,USB_Device_ConfigurationNumber
 655 0198 8823      		tst r24
 656 019a 01F0      		breq .L18
 657               	.L25:
 201:../../LUFA-111009/LUFA/Drivers/USB/Core/DeviceStandardReq.c **** 
 658               		.loc 1 201 20 view .LVU214
 659 019c 84E0      		ldi r24,lo8(4)
 660 019e 00C0      		rjmp .L20
 661               	.L18:
 201:../../LUFA-111009/LUFA/Drivers/USB/Core/DeviceStandardReq.c **** 
 662               		.loc 1 201 4 is_stmt 1 view .LVU215
 663               	.LBB229:
 664               	.LBI229:
 209:../../LUFA-111009/LUFA/Drivers/USB/Core/AVR8/../AVR8/Device_AVR8.h **** 			}
 210:../../LUFA-111009/LUFA/Drivers/USB/Core/AVR8/../AVR8/Device_AVR8.h **** 
 211:../../LUFA-111009/LUFA/Drivers/USB/Core/AVR8/../AVR8/Device_AVR8.h **** 			static inline bool USB_Device_IsAddressSet(void) ATTR_ALWAYS_INLINE ATTR_WARN_UNUSED_RESULT;
 212:../../LUFA-111009/LUFA/Drivers/USB/Core/AVR8/../AVR8/Device_AVR8.h **** 			static inline bool USB_Device_IsAddressSet(void)
 665               		.loc 4 212 23 view .LVU216
 666               	.LBB230:
 213:../../LUFA-111009/LUFA/Drivers/USB/Core/AVR8/../AVR8/Device_AVR8.h **** 			{
 214:../../LUFA-111009/LUFA/Drivers/USB/Core/AVR8/../AVR8/Device_AVR8.h **** 				return (UDADDR & (1 << ADDEN));
 667               		.loc 4 214 5 view .LVU217
 668               		.loc 4 214 13 is_stmt 0 view .LVU218
 669 01a0 8091 E300 		lds r24,227
 670               	.LBE230:
 671               	.LBE229:
 201:../../LUFA-111009/LUFA/Drivers/USB/Core/DeviceStandardReq.c **** 
 672               		.loc 1 201 20 view .LVU219
 673 01a4 87FD      		sbrc r24,7
 674 01a6 00C0      		rjmp .L25
 675 01a8 81E0      		ldi r24,lo8(1)
 676               	.L20:
 677 01aa 8EBB      		out 0x1e,r24
 203:../../LUFA-111009/LUFA/Drivers/USB/Core/DeviceStandardReq.c **** }
 678               		.loc 1 203 2 is_stmt 1 view .LVU220
 679 01ac 0E94 0000 		call EVENT_USB_Device_ConfigurationChanged
 680               	.LVL45:
 681 01b0 00C0      		rjmp .L3
 682               	.LVL46:
 683               	.L38:
 203:../../LUFA-111009/LUFA/Drivers/USB/Core/DeviceStandardReq.c **** }
 684               		.loc 1 203 2 is_stmt 0 view .LVU221
 685               	.LBE226:
 686               	.LBE225:
  85:../../LUFA-111009/LUFA/Drivers/USB/Core/DeviceStandardReq.c **** 				}
 687               		.loc 1 85 6 is_stmt 1 view .LVU222
 688               	.LBB231:
 689               	.LBI181:
 327:../../LUFA-111009/LUFA/Drivers/USB/Core/DeviceStandardReq.c **** {
 690               		.loc 1 327 13 view .LVU223
 691               	.LBB203:
 329:../../LUFA-111009/LUFA/Drivers/USB/Core/DeviceStandardReq.c **** 	{
 692               		.loc 1 329 2 view .LVU224
 342:../../LUFA-111009/LUFA/Drivers/USB/Core/DeviceStandardReq.c **** 			{
 693               		.loc 1 342 4 view .LVU225
 342:../../LUFA-111009/LUFA/Drivers/USB/Core/DeviceStandardReq.c **** 			{
 694               		.loc 1 342 7 is_stmt 0 view .LVU226
 695 01b2 8091 0000 		lds r24,USB_ControlRequest+2
 696               	.LVL47:
 342:../../LUFA-111009/LUFA/Drivers/USB/Core/DeviceStandardReq.c **** 			{
 697               		.loc 1 342 7 view .LVU227
 698 01b6 8111      		cpse r24,__zero_reg__
 699 01b8 00C0      		rjmp .L13
 700               	.LBB198:
 344:../../LUFA-111009/LUFA/Drivers/USB/Core/DeviceStandardReq.c **** 
 701               		.loc 1 344 5 is_stmt 1 view .LVU228
 344:../../LUFA-111009/LUFA/Drivers/USB/Core/DeviceStandardReq.c **** 
 702               		.loc 1 344 13 is_stmt 0 view .LVU229
 703 01ba 8091 0000 		lds r24,USB_ControlRequest+4
 704 01be 8770      		andi r24,lo8(7)
 705               	.LVL48:
 346:../../LUFA-111009/LUFA/Drivers/USB/Core/DeviceStandardReq.c **** 				  return;
 706               		.loc 1 346 5 is_stmt 1 view .LVU230
 346:../../LUFA-111009/LUFA/Drivers/USB/Core/DeviceStandardReq.c **** 				  return;
 707               		.loc 1 346 8 is_stmt 0 view .LVU231
 708 01c0 01F4      		brne .+2
 709 01c2 00C0      		rjmp .L3
 349:../../LUFA-111009/LUFA/Drivers/USB/Core/DeviceStandardReq.c **** 
 710               		.loc 1 349 5 is_stmt 1 view .LVU232
 711               	.LVL49:
 712               	.LBB191:
 713               	.LBI191:
 327:../../LUFA-111009/LUFA/Drivers/USB/Core/AVR8/../AVR8/Endpoint_AVR8.h **** 			{
 714               		.loc 2 327 23 view .LVU233
 715               	.LBB192:
 330:../../LUFA-111009/LUFA/Drivers/USB/Core/AVR8/../AVR8/Endpoint_AVR8.h **** 				#endif
 716               		.loc 2 330 6 view .LVU234
 330:../../LUFA-111009/LUFA/Drivers/USB/Core/AVR8/../AVR8/Endpoint_AVR8.h **** 				#endif
 717               		.loc 2 330 12 is_stmt 0 view .LVU235
 718 01c4 8093 E900 		sts 233,r24
 719               	.LVL50:
 330:../../LUFA-111009/LUFA/Drivers/USB/Core/AVR8/../AVR8/Endpoint_AVR8.h **** 				#endif
 720               		.loc 2 330 12 view .LVU236
 721               	.LBE192:
 722               	.LBE191:
 351:../../LUFA-111009/LUFA/Drivers/USB/Core/DeviceStandardReq.c **** 				{
 723               		.loc 1 351 5 is_stmt 1 view .LVU237
 724               	.LBB193:
 725               	.LBI193:
 371:../../LUFA-111009/LUFA/Drivers/USB/Core/AVR8/../AVR8/Endpoint_AVR8.h **** 			{
 726               		.loc 2 371 23 view .LVU238
 727               	.LBB194:
 373:../../LUFA-111009/LUFA/Drivers/USB/Core/AVR8/../AVR8/Endpoint_AVR8.h **** 			}
 728               		.loc 2 373 5 view .LVU239
 373:../../LUFA-111009/LUFA/Drivers/USB/Core/AVR8/../AVR8/Endpoint_AVR8.h **** 			}
 729               		.loc 2 373 14 is_stmt 0 view .LVU240
 730 01c8 2091 EB00 		lds r18,235
 731               	.LBE194:
 732               	.LBE193:
 351:../../LUFA-111009/LUFA/Drivers/USB/Core/DeviceStandardReq.c **** 				{
 733               		.loc 1 351 8 view .LVU241
 734 01cc 20FF      		sbrs r18,0
 735 01ce 00C0      		rjmp .L13
 353:../../LUFA-111009/LUFA/Drivers/USB/Core/DeviceStandardReq.c **** 					{
 736               		.loc 1 353 6 is_stmt 1 view .LVU242
 353:../../LUFA-111009/LUFA/Drivers/USB/Core/DeviceStandardReq.c **** 					{
 737               		.loc 1 353 9 is_stmt 0 view .LVU243
 738 01d0 9330      		cpi r25,lo8(3)
 739 01d2 01F0      		breq .+2
 740 01d4 00C0      		rjmp .L14
 355:../../LUFA-111009/LUFA/Drivers/USB/Core/DeviceStandardReq.c **** 					}
 741               		.loc 1 355 7 is_stmt 1 view .LVU244
 742               	.LBB195:
 743               	.LBI195:
 549:../../LUFA-111009/LUFA/Drivers/USB/Core/AVR8/../AVR8/Endpoint_AVR8.h **** 			{
 744               		.loc 2 549 23 view .LVU245
 745               	.LBB196:
 551:../../LUFA-111009/LUFA/Drivers/USB/Core/AVR8/../AVR8/Endpoint_AVR8.h **** 			}
 746               		.loc 2 551 5 view .LVU246
 551:../../LUFA-111009/LUFA/Drivers/USB/Core/AVR8/../AVR8/Endpoint_AVR8.h **** 			}
 747               		.loc 2 551 12 is_stmt 0 view .LVU247
 748 01d6 8091 EB00 		lds r24,235
 749               	.LVL51:
 551:../../LUFA-111009/LUFA/Drivers/USB/Core/AVR8/../AVR8/Endpoint_AVR8.h **** 			}
 750               		.loc 2 551 12 view .LVU248
 751 01da 8062      		ori r24,lo8(32)
 752               	.LVL52:
 753               	.L39:
 551:../../LUFA-111009/LUFA/Drivers/USB/Core/AVR8/../AVR8/Endpoint_AVR8.h **** 			}
 754               		.loc 2 551 12 view .LVU249
 755               	.LBE196:
 756               	.LBE195:
 757               	.LBB197:
 758               	.LBB190:
 580:../../LUFA-111009/LUFA/Drivers/USB/Core/AVR8/../AVR8/Endpoint_AVR8.h **** 			}
 759               		.loc 2 580 12 view .LVU250
 760 01dc 8093 EB00 		sts 235,r24
 761               	.LVL53:
 762               	.L13:
 580:../../LUFA-111009/LUFA/Drivers/USB/Core/AVR8/../AVR8/Endpoint_AVR8.h **** 			}
 763               		.loc 2 580 12 view .LVU251
 764               	.LBE190:
 765               	.LBE197:
 766               	.LBE198:
 362:../../LUFA-111009/LUFA/Drivers/USB/Core/DeviceStandardReq.c **** 					}
 363:../../LUFA-111009/LUFA/Drivers/USB/Core/DeviceStandardReq.c **** 				}
 364:../../LUFA-111009/LUFA/Drivers/USB/Core/DeviceStandardReq.c **** 			}
 365:../../LUFA-111009/LUFA/Drivers/USB/Core/DeviceStandardReq.c **** 
 366:../../LUFA-111009/LUFA/Drivers/USB/Core/DeviceStandardReq.c **** 			break;
 767               		.loc 1 366 4 is_stmt 1 view .LVU252
 367:../../LUFA-111009/LUFA/Drivers/USB/Core/DeviceStandardReq.c **** 		#endif
 368:../../LUFA-111009/LUFA/Drivers/USB/Core/DeviceStandardReq.c **** 		default:
 369:../../LUFA-111009/LUFA/Drivers/USB/Core/DeviceStandardReq.c **** 			return;
 370:../../LUFA-111009/LUFA/Drivers/USB/Core/DeviceStandardReq.c **** 	}
 371:../../LUFA-111009/LUFA/Drivers/USB/Core/DeviceStandardReq.c **** 
 372:../../LUFA-111009/LUFA/Drivers/USB/Core/DeviceStandardReq.c **** 	Endpoint_SelectEndpoint(ENDPOINT_CONTROLEP);
 768               		.loc 1 372 2 view .LVU253
 769               	.LBB199:
 770               	.LBI199:
 327:../../LUFA-111009/LUFA/Drivers/USB/Core/AVR8/../AVR8/Endpoint_AVR8.h **** 			{
 771               		.loc 2 327 23 view .LVU254
 772               	.LBB200:
 330:../../LUFA-111009/LUFA/Drivers/USB/Core/AVR8/../AVR8/Endpoint_AVR8.h **** 				#endif
 773               		.loc 2 330 6 view .LVU255
 330:../../LUFA-111009/LUFA/Drivers/USB/Core/AVR8/../AVR8/Endpoint_AVR8.h **** 				#endif
 774               		.loc 2 330 12 is_stmt 0 view .LVU256
 775 01e0 1092 E900 		sts 233,__zero_reg__
 776               	.LVL54:
 330:../../LUFA-111009/LUFA/Drivers/USB/Core/AVR8/../AVR8/Endpoint_AVR8.h **** 				#endif
 777               		.loc 2 330 12 view .LVU257
 778               	.LBE200:
 779               	.LBE199:
 373:../../LUFA-111009/LUFA/Drivers/USB/Core/DeviceStandardReq.c **** 
 374:../../LUFA-111009/LUFA/Drivers/USB/Core/DeviceStandardReq.c **** 	Endpoint_ClearSETUP();
 780               		.loc 1 374 2 is_stmt 1 view .LVU258
 781               	.LBB201:
 782               	.LBI201:
 502:../../LUFA-111009/LUFA/Drivers/USB/Core/AVR8/../AVR8/Endpoint_AVR8.h **** 			{
 783               		.loc 2 502 23 view .LVU259
 784               	.LBB202:
 504:../../LUFA-111009/LUFA/Drivers/USB/Core/AVR8/../AVR8/Endpoint_AVR8.h **** 			}
 785               		.loc 2 504 5 view .LVU260
 504:../../LUFA-111009/LUFA/Drivers/USB/Core/AVR8/../AVR8/Endpoint_AVR8.h **** 			}
 786               		.loc 2 504 12 is_stmt 0 view .LVU261
 787 01e4 8091 E800 		lds r24,232
 788 01e8 877F      		andi r24,lo8(-9)
 789               	.L40:
 790               	.LBE202:
 791               	.LBE201:
 792               	.LBE203:
 793               	.LBE231:
 794               	.LBB232:
 795               	.LBB180:
 796               	.LBB178:
 797               	.LBB173:
 516:../../LUFA-111009/LUFA/Drivers/USB/Core/AVR8/../AVR8/Endpoint_AVR8.h **** 				#else
 798               		.loc 2 516 13 view .LVU262
 799 01ea 8093 E800 		sts 232,r24
 800               	.LBE173:
 801               	.LBE178:
 213:../../LUFA-111009/LUFA/Drivers/USB/Core/DeviceStandardReq.c **** }
 802               		.loc 1 213 2 is_stmt 1 view .LVU263
 803 01ee 0E94 0000 		call Endpoint_ClearStatusStage
 804               	.LVL55:
 214:../../LUFA-111009/LUFA/Drivers/USB/Core/DeviceStandardReq.c **** 
 805               		.loc 1 214 1 is_stmt 0 view .LVU264
 806 01f2 00C0      		rjmp .L3
 807               	.LBE180:
 808               	.LBE232:
 809               	.LBE239:
 810               		.cfi_endproc
 811               	.LFE81:
 813               		.comm	USB_Device_ConfigurationNumber,1,1
 814               		.text
 815               	.Letext0:
 816               		.file 5 "/usr/local/Cellar/avr-gcc/9.2.0_1/avr/include/stdint.h"
 817               		.file 6 "../../LUFA-111009/LUFA/Drivers/USB/Core/StdRequestType.h"
 818               		.file 7 "../../LUFA-111009/LUFA/Drivers/USB/Core/AVR8/../Device.h"
 819               		.file 8 "../../LUFA-111009/LUFA/Drivers/USB/Core/USBTask.h"
 820               		.file 9 "../../LUFA-111009/LUFA/Drivers/USB/Core/DeviceStandardReq.h"
 821               		.file 10 "../../LUFA-111009/LUFA/Drivers/USB/Core/AVR8/../AVR8/EndpointStream_AVR8.h"
 822               		.file 11 "../../LUFA-111009/LUFA/Drivers/USB/Core/Events.h"