   1               		.file	"EndpointStream_AVR8.c"
   2               	__SP_H__ = 0x3e
   3               	__SP_L__ = 0x3d
   4               	__SREG__ = 0x3f
   5               	__tmp_reg__ = 0
   6               	__zero_reg__ = 1
   7               		.text
   8               	.Ltext0:
   9               		.cfi_sections	.debug_frame
  10               		.section	.text.Endpoint_Discard_Stream,"ax",@progbits
  11               	.global	Endpoint_Discard_Stream
  13               	Endpoint_Discard_Stream:
  14               	.LFB81:
  15               		.file 1 "../../LUFA-111009/LUFA/Drivers/USB/Core/AVR8/EndpointStream_AVR8.c"
   1:../../LUFA-111009/LUFA/Drivers/USB/Core/AVR8/EndpointStream_AVR8.c **** /*
   2:../../LUFA-111009/LUFA/Drivers/USB/Core/AVR8/EndpointStream_AVR8.c ****              LUFA Library
   3:../../LUFA-111009/LUFA/Drivers/USB/Core/AVR8/EndpointStream_AVR8.c ****      Copyright (C) Dean Camera, 2011.
   4:../../LUFA-111009/LUFA/Drivers/USB/Core/AVR8/EndpointStream_AVR8.c ****               
   5:../../LUFA-111009/LUFA/Drivers/USB/Core/AVR8/EndpointStream_AVR8.c ****   dean [at] fourwalledcubicle [dot] com
   6:../../LUFA-111009/LUFA/Drivers/USB/Core/AVR8/EndpointStream_AVR8.c ****            www.lufa-lib.org
   7:../../LUFA-111009/LUFA/Drivers/USB/Core/AVR8/EndpointStream_AVR8.c **** */
   8:../../LUFA-111009/LUFA/Drivers/USB/Core/AVR8/EndpointStream_AVR8.c **** 
   9:../../LUFA-111009/LUFA/Drivers/USB/Core/AVR8/EndpointStream_AVR8.c **** /*
  10:../../LUFA-111009/LUFA/Drivers/USB/Core/AVR8/EndpointStream_AVR8.c ****   Copyright 2011  Dean Camera (dean [at] fourwalledcubicle [dot] com)
  11:../../LUFA-111009/LUFA/Drivers/USB/Core/AVR8/EndpointStream_AVR8.c **** 
  12:../../LUFA-111009/LUFA/Drivers/USB/Core/AVR8/EndpointStream_AVR8.c ****   Permission to use, copy, modify, distribute, and sell this 
  13:../../LUFA-111009/LUFA/Drivers/USB/Core/AVR8/EndpointStream_AVR8.c ****   software and its documentation for any purpose is hereby granted
  14:../../LUFA-111009/LUFA/Drivers/USB/Core/AVR8/EndpointStream_AVR8.c ****   without fee, provided that the above copyright notice appear in 
  15:../../LUFA-111009/LUFA/Drivers/USB/Core/AVR8/EndpointStream_AVR8.c ****   all copies and that both that the copyright notice and this
  16:../../LUFA-111009/LUFA/Drivers/USB/Core/AVR8/EndpointStream_AVR8.c ****   permission notice and warranty disclaimer appear in supporting 
  17:../../LUFA-111009/LUFA/Drivers/USB/Core/AVR8/EndpointStream_AVR8.c ****   documentation, and that the name of the author not be used in 
  18:../../LUFA-111009/LUFA/Drivers/USB/Core/AVR8/EndpointStream_AVR8.c ****   advertising or publicity pertaining to distribution of the 
  19:../../LUFA-111009/LUFA/Drivers/USB/Core/AVR8/EndpointStream_AVR8.c ****   software without specific, written prior permission.
  20:../../LUFA-111009/LUFA/Drivers/USB/Core/AVR8/EndpointStream_AVR8.c **** 
  21:../../LUFA-111009/LUFA/Drivers/USB/Core/AVR8/EndpointStream_AVR8.c ****   The author disclaim all warranties with regard to this
  22:../../LUFA-111009/LUFA/Drivers/USB/Core/AVR8/EndpointStream_AVR8.c ****   software, including all implied warranties of merchantability
  23:../../LUFA-111009/LUFA/Drivers/USB/Core/AVR8/EndpointStream_AVR8.c ****   and fitness.  In no event shall the author be liable for any
  24:../../LUFA-111009/LUFA/Drivers/USB/Core/AVR8/EndpointStream_AVR8.c ****   special, indirect or consequential damages or any damages
  25:../../LUFA-111009/LUFA/Drivers/USB/Core/AVR8/EndpointStream_AVR8.c ****   whatsoever resulting from loss of use, data or profits, whether
  26:../../LUFA-111009/LUFA/Drivers/USB/Core/AVR8/EndpointStream_AVR8.c ****   in an action of contract, negligence or other tortious action,
  27:../../LUFA-111009/LUFA/Drivers/USB/Core/AVR8/EndpointStream_AVR8.c ****   arising out of or in connection with the use or performance of
  28:../../LUFA-111009/LUFA/Drivers/USB/Core/AVR8/EndpointStream_AVR8.c ****   this software.
  29:../../LUFA-111009/LUFA/Drivers/USB/Core/AVR8/EndpointStream_AVR8.c **** */
  30:../../LUFA-111009/LUFA/Drivers/USB/Core/AVR8/EndpointStream_AVR8.c **** 
  31:../../LUFA-111009/LUFA/Drivers/USB/Core/AVR8/EndpointStream_AVR8.c **** #define  __INCLUDE_FROM_USB_DRIVER
  32:../../LUFA-111009/LUFA/Drivers/USB/Core/AVR8/EndpointStream_AVR8.c **** #include "../USBMode.h"
  33:../../LUFA-111009/LUFA/Drivers/USB/Core/AVR8/EndpointStream_AVR8.c **** 
  34:../../LUFA-111009/LUFA/Drivers/USB/Core/AVR8/EndpointStream_AVR8.c **** #if defined(USB_CAN_BE_DEVICE)
  35:../../LUFA-111009/LUFA/Drivers/USB/Core/AVR8/EndpointStream_AVR8.c **** 
  36:../../LUFA-111009/LUFA/Drivers/USB/Core/AVR8/EndpointStream_AVR8.c **** #include "EndpointStream_AVR8.h"
  37:../../LUFA-111009/LUFA/Drivers/USB/Core/AVR8/EndpointStream_AVR8.c **** 
  38:../../LUFA-111009/LUFA/Drivers/USB/Core/AVR8/EndpointStream_AVR8.c **** #if !defined(CONTROL_ONLY_DEVICE)
  39:../../LUFA-111009/LUFA/Drivers/USB/Core/AVR8/EndpointStream_AVR8.c **** uint8_t Endpoint_Discard_Stream(uint16_t Length,
  40:../../LUFA-111009/LUFA/Drivers/USB/Core/AVR8/EndpointStream_AVR8.c ****                                 uint16_t* const BytesProcessed)
  41:../../LUFA-111009/LUFA/Drivers/USB/Core/AVR8/EndpointStream_AVR8.c **** {
  16               		.loc 1 41 0
  17               		.cfi_startproc
  18               	.LVL0:
  19 0000 EF92      		push r14
  20               	.LCFI0:
  21               		.cfi_def_cfa_offset 3
  22               		.cfi_offset 14, -2
  23 0002 FF92      		push r15
  24               	.LCFI1:
  25               		.cfi_def_cfa_offset 4
  26               		.cfi_offset 15, -3
  27 0004 0F93      		push r16
  28               	.LCFI2:
  29               		.cfi_def_cfa_offset 5
  30               		.cfi_offset 16, -4
  31 0006 1F93      		push r17
  32               	.LCFI3:
  33               		.cfi_def_cfa_offset 6
  34               		.cfi_offset 17, -5
  35 0008 CF93      		push r28
  36               	.LCFI4:
  37               		.cfi_def_cfa_offset 7
  38               		.cfi_offset 28, -6
  39 000a DF93      		push r29
  40               	.LCFI5:
  41               		.cfi_def_cfa_offset 8
  42               		.cfi_offset 29, -7
  43               	/* prologue: function */
  44               	/* frame size = 0 */
  45               	/* stack size = 6 */
  46               	.L__stack_usage = 6
  47 000c EC01      		movw r28,r24
  48 000e 8B01      		movw r16,r22
  49               	.LVL1:
  42:../../LUFA-111009/LUFA/Drivers/USB/Core/AVR8/EndpointStream_AVR8.c **** 	uint8_t  ErrorCode;
  43:../../LUFA-111009/LUFA/Drivers/USB/Core/AVR8/EndpointStream_AVR8.c **** 	uint16_t BytesInTransfer = 0;
  44:../../LUFA-111009/LUFA/Drivers/USB/Core/AVR8/EndpointStream_AVR8.c **** 	
  45:../../LUFA-111009/LUFA/Drivers/USB/Core/AVR8/EndpointStream_AVR8.c **** 	if ((ErrorCode = Endpoint_WaitUntilReady()))
  50               		.loc 1 45 0
  51 0010 0E94 0000 		call Endpoint_WaitUntilReady
  52               	.LVL2:
  53 0014 8111      		cpse r24,__zero_reg__
  54 0016 00C0      		rjmp .L2
  46:../../LUFA-111009/LUFA/Drivers/USB/Core/AVR8/EndpointStream_AVR8.c **** 	  return ErrorCode;
  47:../../LUFA-111009/LUFA/Drivers/USB/Core/AVR8/EndpointStream_AVR8.c **** 	  
  48:../../LUFA-111009/LUFA/Drivers/USB/Core/AVR8/EndpointStream_AVR8.c **** 	if (BytesProcessed != NULL)
  55               		.loc 1 48 0
  56 0018 0115      		cp r16,__zero_reg__
  57 001a 1105      		cpc r17,__zero_reg__
  58 001c 01F0      		breq .L3
  49:../../LUFA-111009/LUFA/Drivers/USB/Core/AVR8/EndpointStream_AVR8.c **** 	  Length -= *BytesProcessed;
  59               		.loc 1 49 0
  60 001e F801      		movw r30,r16
  61 0020 8081      		ld r24,Z
  62 0022 9181      		ldd r25,Z+1
  63               	.LVL3:
  64 0024 C81B      		sub r28,r24
  65 0026 D90B      		sbc r29,r25
  66               	.LVL4:
  67               	.L3:
  41:../../LUFA-111009/LUFA/Drivers/USB/Core/AVR8/EndpointStream_AVR8.c **** 	uint8_t  ErrorCode;
  68               		.loc 1 41 0
  69 0028 E12C      		mov r14,__zero_reg__
  70 002a F12C      		mov r15,__zero_reg__
  71               	.LVL5:
  72               	.L4:
  50:../../LUFA-111009/LUFA/Drivers/USB/Core/AVR8/EndpointStream_AVR8.c **** 
  51:../../LUFA-111009/LUFA/Drivers/USB/Core/AVR8/EndpointStream_AVR8.c **** 	while (Length)
  73               		.loc 1 51 0
  74 002c 2097      		sbiw r28,0
  75 002e 01F0      		breq .L15
  76               	.LBB256:
  77               	.LBB257:
  78               		.file 2 "../../LUFA-111009/LUFA/Drivers/USB/Core/AVR8/../AVR8/../AVR8/Endpoint_AVR8.h"
   1:../../LUFA-111009/LUFA/Drivers/USB/Core/AVR8/../AVR8/../AVR8/Endpoint_AVR8.h **** /*
   2:../../LUFA-111009/LUFA/Drivers/USB/Core/AVR8/../AVR8/../AVR8/Endpoint_AVR8.h ****              LUFA Library
   3:../../LUFA-111009/LUFA/Drivers/USB/Core/AVR8/../AVR8/../AVR8/Endpoint_AVR8.h ****      Copyright (C) Dean Camera, 2011.
   4:../../LUFA-111009/LUFA/Drivers/USB/Core/AVR8/../AVR8/../AVR8/Endpoint_AVR8.h **** 
   5:../../LUFA-111009/LUFA/Drivers/USB/Core/AVR8/../AVR8/../AVR8/Endpoint_AVR8.h ****   dean [at] fourwalledcubicle [dot] com
   6:../../LUFA-111009/LUFA/Drivers/USB/Core/AVR8/../AVR8/../AVR8/Endpoint_AVR8.h ****            www.lufa-lib.org
   7:../../LUFA-111009/LUFA/Drivers/USB/Core/AVR8/../AVR8/../AVR8/Endpoint_AVR8.h **** */
   8:../../LUFA-111009/LUFA/Drivers/USB/Core/AVR8/../AVR8/../AVR8/Endpoint_AVR8.h **** 
   9:../../LUFA-111009/LUFA/Drivers/USB/Core/AVR8/../AVR8/../AVR8/Endpoint_AVR8.h **** /*
  10:../../LUFA-111009/LUFA/Drivers/USB/Core/AVR8/../AVR8/../AVR8/Endpoint_AVR8.h ****   Copyright 2011  Dean Camera (dean [at] fourwalledcubicle [dot] com)
  11:../../LUFA-111009/LUFA/Drivers/USB/Core/AVR8/../AVR8/../AVR8/Endpoint_AVR8.h **** 
  12:../../LUFA-111009/LUFA/Drivers/USB/Core/AVR8/../AVR8/../AVR8/Endpoint_AVR8.h ****   Permission to use, copy, modify, distribute, and sell this
  13:../../LUFA-111009/LUFA/Drivers/USB/Core/AVR8/../AVR8/../AVR8/Endpoint_AVR8.h ****   software and its documentation for any purpose is hereby granted
  14:../../LUFA-111009/LUFA/Drivers/USB/Core/AVR8/../AVR8/../AVR8/Endpoint_AVR8.h ****   without fee, provided that the above copyright notice appear in
  15:../../LUFA-111009/LUFA/Drivers/USB/Core/AVR8/../AVR8/../AVR8/Endpoint_AVR8.h ****   all copies and that both that the copyright notice and this
  16:../../LUFA-111009/LUFA/Drivers/USB/Core/AVR8/../AVR8/../AVR8/Endpoint_AVR8.h ****   permission notice and warranty disclaimer appear in supporting
  17:../../LUFA-111009/LUFA/Drivers/USB/Core/AVR8/../AVR8/../AVR8/Endpoint_AVR8.h ****   documentation, and that the name of the author not be used in
  18:../../LUFA-111009/LUFA/Drivers/USB/Core/AVR8/../AVR8/../AVR8/Endpoint_AVR8.h ****   advertising or publicity pertaining to distribution of the
  19:../../LUFA-111009/LUFA/Drivers/USB/Core/AVR8/../AVR8/../AVR8/Endpoint_AVR8.h ****   software without specific, written prior permission.
  20:../../LUFA-111009/LUFA/Drivers/USB/Core/AVR8/../AVR8/../AVR8/Endpoint_AVR8.h **** 
  21:../../LUFA-111009/LUFA/Drivers/USB/Core/AVR8/../AVR8/../AVR8/Endpoint_AVR8.h ****   The author disclaim all warranties with regard to this
  22:../../LUFA-111009/LUFA/Drivers/USB/Core/AVR8/../AVR8/../AVR8/Endpoint_AVR8.h ****   software, including all implied warranties of merchantability
  23:../../LUFA-111009/LUFA/Drivers/USB/Core/AVR8/../AVR8/../AVR8/Endpoint_AVR8.h ****   and fitness.  In no event shall the author be liable for any
  24:../../LUFA-111009/LUFA/Drivers/USB/Core/AVR8/../AVR8/../AVR8/Endpoint_AVR8.h ****   special, indirect or consequential damages or any damages
  25:../../LUFA-111009/LUFA/Drivers/USB/Core/AVR8/../AVR8/../AVR8/Endpoint_AVR8.h ****   whatsoever resulting from loss of use, data or profits, whether
  26:../../LUFA-111009/LUFA/Drivers/USB/Core/AVR8/../AVR8/../AVR8/Endpoint_AVR8.h ****   in an action of contract, negligence or other tortious action,
  27:../../LUFA-111009/LUFA/Drivers/USB/Core/AVR8/../AVR8/../AVR8/Endpoint_AVR8.h ****   arising out of or in connection with the use or performance of
  28:../../LUFA-111009/LUFA/Drivers/USB/Core/AVR8/../AVR8/../AVR8/Endpoint_AVR8.h ****   this software.
  29:../../LUFA-111009/LUFA/Drivers/USB/Core/AVR8/../AVR8/../AVR8/Endpoint_AVR8.h **** */
  30:../../LUFA-111009/LUFA/Drivers/USB/Core/AVR8/../AVR8/../AVR8/Endpoint_AVR8.h **** 
  31:../../LUFA-111009/LUFA/Drivers/USB/Core/AVR8/../AVR8/../AVR8/Endpoint_AVR8.h **** /** \file
  32:../../LUFA-111009/LUFA/Drivers/USB/Core/AVR8/../AVR8/../AVR8/Endpoint_AVR8.h ****  *  \brief USB Endpoint definitions for the AVR8 microcontrollers.
  33:../../LUFA-111009/LUFA/Drivers/USB/Core/AVR8/../AVR8/../AVR8/Endpoint_AVR8.h ****  *  \copydetails Group_EndpointManagement_AVR8
  34:../../LUFA-111009/LUFA/Drivers/USB/Core/AVR8/../AVR8/../AVR8/Endpoint_AVR8.h ****  *
  35:../../LUFA-111009/LUFA/Drivers/USB/Core/AVR8/../AVR8/../AVR8/Endpoint_AVR8.h ****  *  \note This file should not be included directly. It is automatically included as needed by the 
  36:../../LUFA-111009/LUFA/Drivers/USB/Core/AVR8/../AVR8/../AVR8/Endpoint_AVR8.h ****  *        dispatch header located in LUFA/Drivers/USB/USB.h.
  37:../../LUFA-111009/LUFA/Drivers/USB/Core/AVR8/../AVR8/../AVR8/Endpoint_AVR8.h ****  */
  38:../../LUFA-111009/LUFA/Drivers/USB/Core/AVR8/../AVR8/../AVR8/Endpoint_AVR8.h **** 
  39:../../LUFA-111009/LUFA/Drivers/USB/Core/AVR8/../AVR8/../AVR8/Endpoint_AVR8.h **** /** \ingroup Group_EndpointRW
  40:../../LUFA-111009/LUFA/Drivers/USB/Core/AVR8/../AVR8/../AVR8/Endpoint_AVR8.h ****  *  \defgroup Group_EndpointRW_AVR8 Endpoint Data Reading and Writing (AVR8)
  41:../../LUFA-111009/LUFA/Drivers/USB/Core/AVR8/../AVR8/../AVR8/Endpoint_AVR8.h ****  *  \brief Endpoint data read/write definitions for the Atmel AVR8 architecture.
  42:../../LUFA-111009/LUFA/Drivers/USB/Core/AVR8/../AVR8/../AVR8/Endpoint_AVR8.h ****  *
  43:../../LUFA-111009/LUFA/Drivers/USB/Core/AVR8/../AVR8/../AVR8/Endpoint_AVR8.h ****  *  Functions, macros, variables, enums and types related to data reading and writing from and to e
  44:../../LUFA-111009/LUFA/Drivers/USB/Core/AVR8/../AVR8/../AVR8/Endpoint_AVR8.h ****  */
  45:../../LUFA-111009/LUFA/Drivers/USB/Core/AVR8/../AVR8/../AVR8/Endpoint_AVR8.h **** 
  46:../../LUFA-111009/LUFA/Drivers/USB/Core/AVR8/../AVR8/../AVR8/Endpoint_AVR8.h **** /** \ingroup Group_EndpointPrimitiveRW
  47:../../LUFA-111009/LUFA/Drivers/USB/Core/AVR8/../AVR8/../AVR8/Endpoint_AVR8.h ****  *  \defgroup Group_EndpointPrimitiveRW_AVR8 Read/Write of Primitive Data Types (AVR8)
  48:../../LUFA-111009/LUFA/Drivers/USB/Core/AVR8/../AVR8/../AVR8/Endpoint_AVR8.h ****  *  \brief Endpoint primitive read/write definitions for the Atmel AVR8 architecture.
  49:../../LUFA-111009/LUFA/Drivers/USB/Core/AVR8/../AVR8/../AVR8/Endpoint_AVR8.h ****  *
  50:../../LUFA-111009/LUFA/Drivers/USB/Core/AVR8/../AVR8/../AVR8/Endpoint_AVR8.h ****  *  Functions, macros, variables, enums and types related to data reading and writing of primitive 
  51:../../LUFA-111009/LUFA/Drivers/USB/Core/AVR8/../AVR8/../AVR8/Endpoint_AVR8.h ****  *  from and to endpoints.
  52:../../LUFA-111009/LUFA/Drivers/USB/Core/AVR8/../AVR8/../AVR8/Endpoint_AVR8.h ****  */
  53:../../LUFA-111009/LUFA/Drivers/USB/Core/AVR8/../AVR8/../AVR8/Endpoint_AVR8.h **** 
  54:../../LUFA-111009/LUFA/Drivers/USB/Core/AVR8/../AVR8/../AVR8/Endpoint_AVR8.h **** /** \ingroup Group_EndpointPacketManagement
  55:../../LUFA-111009/LUFA/Drivers/USB/Core/AVR8/../AVR8/../AVR8/Endpoint_AVR8.h ****  *  \defgroup Group_EndpointPacketManagement_AVR8 Endpoint Packet Management (AVR8)
  56:../../LUFA-111009/LUFA/Drivers/USB/Core/AVR8/../AVR8/../AVR8/Endpoint_AVR8.h ****  *  \brief Endpoint packet management definitions for the Atmel AVR8 architecture.
  57:../../LUFA-111009/LUFA/Drivers/USB/Core/AVR8/../AVR8/../AVR8/Endpoint_AVR8.h ****  *
  58:../../LUFA-111009/LUFA/Drivers/USB/Core/AVR8/../AVR8/../AVR8/Endpoint_AVR8.h ****  *  Functions, macros, variables, enums and types related to packet management of endpoints.
  59:../../LUFA-111009/LUFA/Drivers/USB/Core/AVR8/../AVR8/../AVR8/Endpoint_AVR8.h ****  */
  60:../../LUFA-111009/LUFA/Drivers/USB/Core/AVR8/../AVR8/../AVR8/Endpoint_AVR8.h **** 
  61:../../LUFA-111009/LUFA/Drivers/USB/Core/AVR8/../AVR8/../AVR8/Endpoint_AVR8.h **** /** \ingroup Group_EndpointManagement
  62:../../LUFA-111009/LUFA/Drivers/USB/Core/AVR8/../AVR8/../AVR8/Endpoint_AVR8.h ****  *  \defgroup Group_EndpointManagement_AVR8 Endpoint Management (AVR8)
  63:../../LUFA-111009/LUFA/Drivers/USB/Core/AVR8/../AVR8/../AVR8/Endpoint_AVR8.h ****  *  \brief Endpoint management definitions for the Atmel AVR8 architecture.
  64:../../LUFA-111009/LUFA/Drivers/USB/Core/AVR8/../AVR8/../AVR8/Endpoint_AVR8.h ****  *
  65:../../LUFA-111009/LUFA/Drivers/USB/Core/AVR8/../AVR8/../AVR8/Endpoint_AVR8.h ****  *  Functions, macros and enums related to endpoint management when in USB Device mode. This
  66:../../LUFA-111009/LUFA/Drivers/USB/Core/AVR8/../AVR8/../AVR8/Endpoint_AVR8.h ****  *  module contains the endpoint management macros, as well as endpoint interrupt and data
  67:../../LUFA-111009/LUFA/Drivers/USB/Core/AVR8/../AVR8/../AVR8/Endpoint_AVR8.h ****  *  send/receive functions for various data types.
  68:../../LUFA-111009/LUFA/Drivers/USB/Core/AVR8/../AVR8/../AVR8/Endpoint_AVR8.h ****  *
  69:../../LUFA-111009/LUFA/Drivers/USB/Core/AVR8/../AVR8/../AVR8/Endpoint_AVR8.h ****  *  @{
  70:../../LUFA-111009/LUFA/Drivers/USB/Core/AVR8/../AVR8/../AVR8/Endpoint_AVR8.h ****  */
  71:../../LUFA-111009/LUFA/Drivers/USB/Core/AVR8/../AVR8/../AVR8/Endpoint_AVR8.h **** 
  72:../../LUFA-111009/LUFA/Drivers/USB/Core/AVR8/../AVR8/../AVR8/Endpoint_AVR8.h **** #ifndef __ENDPOINT_AVR8_H__
  73:../../LUFA-111009/LUFA/Drivers/USB/Core/AVR8/../AVR8/../AVR8/Endpoint_AVR8.h **** #define __ENDPOINT_AVR8_H__
  74:../../LUFA-111009/LUFA/Drivers/USB/Core/AVR8/../AVR8/../AVR8/Endpoint_AVR8.h **** 
  75:../../LUFA-111009/LUFA/Drivers/USB/Core/AVR8/../AVR8/../AVR8/Endpoint_AVR8.h **** 	/* Includes: */
  76:../../LUFA-111009/LUFA/Drivers/USB/Core/AVR8/../AVR8/../AVR8/Endpoint_AVR8.h **** 		#include "../../../../Common/Common.h"
  77:../../LUFA-111009/LUFA/Drivers/USB/Core/AVR8/../AVR8/../AVR8/Endpoint_AVR8.h **** 		#include "../USBTask.h"
  78:../../LUFA-111009/LUFA/Drivers/USB/Core/AVR8/../AVR8/../AVR8/Endpoint_AVR8.h **** 		#include "../USBInterrupt.h"
  79:../../LUFA-111009/LUFA/Drivers/USB/Core/AVR8/../AVR8/../AVR8/Endpoint_AVR8.h **** 
  80:../../LUFA-111009/LUFA/Drivers/USB/Core/AVR8/../AVR8/../AVR8/Endpoint_AVR8.h **** 	/* Enable C linkage for C++ Compilers: */
  81:../../LUFA-111009/LUFA/Drivers/USB/Core/AVR8/../AVR8/../AVR8/Endpoint_AVR8.h **** 		#if defined(__cplusplus)
  82:../../LUFA-111009/LUFA/Drivers/USB/Core/AVR8/../AVR8/../AVR8/Endpoint_AVR8.h **** 			extern "C" {
  83:../../LUFA-111009/LUFA/Drivers/USB/Core/AVR8/../AVR8/../AVR8/Endpoint_AVR8.h **** 		#endif
  84:../../LUFA-111009/LUFA/Drivers/USB/Core/AVR8/../AVR8/../AVR8/Endpoint_AVR8.h **** 
  85:../../LUFA-111009/LUFA/Drivers/USB/Core/AVR8/../AVR8/../AVR8/Endpoint_AVR8.h **** 	/* Preprocessor Checks: */
  86:../../LUFA-111009/LUFA/Drivers/USB/Core/AVR8/../AVR8/../AVR8/Endpoint_AVR8.h **** 		#if !defined(__INCLUDE_FROM_USB_DRIVER)
  87:../../LUFA-111009/LUFA/Drivers/USB/Core/AVR8/../AVR8/../AVR8/Endpoint_AVR8.h **** 			#error Do not include this file directly. Include LUFA/Drivers/USB/USB.h instead.
  88:../../LUFA-111009/LUFA/Drivers/USB/Core/AVR8/../AVR8/../AVR8/Endpoint_AVR8.h **** 		#endif
  89:../../LUFA-111009/LUFA/Drivers/USB/Core/AVR8/../AVR8/../AVR8/Endpoint_AVR8.h **** 
  90:../../LUFA-111009/LUFA/Drivers/USB/Core/AVR8/../AVR8/../AVR8/Endpoint_AVR8.h **** 	/* Private Interface - For use in library only: */
  91:../../LUFA-111009/LUFA/Drivers/USB/Core/AVR8/../AVR8/../AVR8/Endpoint_AVR8.h **** 	#if !defined(__DOXYGEN__)
  92:../../LUFA-111009/LUFA/Drivers/USB/Core/AVR8/../AVR8/../AVR8/Endpoint_AVR8.h **** 		/* Macros: */
  93:../../LUFA-111009/LUFA/Drivers/USB/Core/AVR8/../AVR8/../AVR8/Endpoint_AVR8.h **** 			#define _ENDPOINT_GET_MAXSIZE(EPIndex)         _ENDPOINT_GET_MAXSIZE2(ENDPOINT_DETAILS_EP ## EPI
  94:../../LUFA-111009/LUFA/Drivers/USB/Core/AVR8/../AVR8/../AVR8/Endpoint_AVR8.h **** 			#define _ENDPOINT_GET_MAXSIZE2(EPDetails)      _ENDPOINT_GET_MAXSIZE3(EPDetails)
  95:../../LUFA-111009/LUFA/Drivers/USB/Core/AVR8/../AVR8/../AVR8/Endpoint_AVR8.h **** 			#define _ENDPOINT_GET_MAXSIZE3(MaxSize, Banks) (MaxSize)
  96:../../LUFA-111009/LUFA/Drivers/USB/Core/AVR8/../AVR8/../AVR8/Endpoint_AVR8.h **** 
  97:../../LUFA-111009/LUFA/Drivers/USB/Core/AVR8/../AVR8/../AVR8/Endpoint_AVR8.h **** 			#define _ENDPOINT_GET_BANKS(EPIndex)           _ENDPOINT_GET_BANKS2(ENDPOINT_DETAILS_EP ## EPInd
  98:../../LUFA-111009/LUFA/Drivers/USB/Core/AVR8/../AVR8/../AVR8/Endpoint_AVR8.h **** 			#define _ENDPOINT_GET_BANKS2(EPDetails)        _ENDPOINT_GET_BANKS3(EPDetails)
  99:../../LUFA-111009/LUFA/Drivers/USB/Core/AVR8/../AVR8/../AVR8/Endpoint_AVR8.h **** 			#define _ENDPOINT_GET_BANKS3(MaxSize, Banks)   (Banks)
 100:../../LUFA-111009/LUFA/Drivers/USB/Core/AVR8/../AVR8/../AVR8/Endpoint_AVR8.h **** 
 101:../../LUFA-111009/LUFA/Drivers/USB/Core/AVR8/../AVR8/../AVR8/Endpoint_AVR8.h **** 			#if defined(USB_SERIES_4_AVR) || defined(USB_SERIES_6_AVR) || defined(USB_SERIES_7_AVR)
 102:../../LUFA-111009/LUFA/Drivers/USB/Core/AVR8/../AVR8/../AVR8/Endpoint_AVR8.h **** 				#define ENDPOINT_DETAILS_MAXEP             7
 103:../../LUFA-111009/LUFA/Drivers/USB/Core/AVR8/../AVR8/../AVR8/Endpoint_AVR8.h **** 
 104:../../LUFA-111009/LUFA/Drivers/USB/Core/AVR8/../AVR8/../AVR8/Endpoint_AVR8.h **** 				#define ENDPOINT_DETAILS_EP0               64,  1
 105:../../LUFA-111009/LUFA/Drivers/USB/Core/AVR8/../AVR8/../AVR8/Endpoint_AVR8.h **** 				#define ENDPOINT_DETAILS_EP1               256, 2
 106:../../LUFA-111009/LUFA/Drivers/USB/Core/AVR8/../AVR8/../AVR8/Endpoint_AVR8.h **** 				#define ENDPOINT_DETAILS_EP2               64,  2
 107:../../LUFA-111009/LUFA/Drivers/USB/Core/AVR8/../AVR8/../AVR8/Endpoint_AVR8.h **** 				#define ENDPOINT_DETAILS_EP3               64,  2
 108:../../LUFA-111009/LUFA/Drivers/USB/Core/AVR8/../AVR8/../AVR8/Endpoint_AVR8.h **** 				#define ENDPOINT_DETAILS_EP4               64,  2
 109:../../LUFA-111009/LUFA/Drivers/USB/Core/AVR8/../AVR8/../AVR8/Endpoint_AVR8.h **** 				#define ENDPOINT_DETAILS_EP5               64,  2
 110:../../LUFA-111009/LUFA/Drivers/USB/Core/AVR8/../AVR8/../AVR8/Endpoint_AVR8.h **** 				#define ENDPOINT_DETAILS_EP6               64,  2
 111:../../LUFA-111009/LUFA/Drivers/USB/Core/AVR8/../AVR8/../AVR8/Endpoint_AVR8.h **** 			#else
 112:../../LUFA-111009/LUFA/Drivers/USB/Core/AVR8/../AVR8/../AVR8/Endpoint_AVR8.h **** 				#define ENDPOINT_DETAILS_MAXEP             5
 113:../../LUFA-111009/LUFA/Drivers/USB/Core/AVR8/../AVR8/../AVR8/Endpoint_AVR8.h **** 
 114:../../LUFA-111009/LUFA/Drivers/USB/Core/AVR8/../AVR8/../AVR8/Endpoint_AVR8.h **** 				#define ENDPOINT_DETAILS_EP0               64,  1
 115:../../LUFA-111009/LUFA/Drivers/USB/Core/AVR8/../AVR8/../AVR8/Endpoint_AVR8.h **** 				#define ENDPOINT_DETAILS_EP1               64,  1
 116:../../LUFA-111009/LUFA/Drivers/USB/Core/AVR8/../AVR8/../AVR8/Endpoint_AVR8.h **** 				#define ENDPOINT_DETAILS_EP2               64,  1
 117:../../LUFA-111009/LUFA/Drivers/USB/Core/AVR8/../AVR8/../AVR8/Endpoint_AVR8.h **** 				#define ENDPOINT_DETAILS_EP3               64,  2
 118:../../LUFA-111009/LUFA/Drivers/USB/Core/AVR8/../AVR8/../AVR8/Endpoint_AVR8.h **** 				#define ENDPOINT_DETAILS_EP4               64,  2
 119:../../LUFA-111009/LUFA/Drivers/USB/Core/AVR8/../AVR8/../AVR8/Endpoint_AVR8.h **** 			#endif
 120:../../LUFA-111009/LUFA/Drivers/USB/Core/AVR8/../AVR8/../AVR8/Endpoint_AVR8.h **** 
 121:../../LUFA-111009/LUFA/Drivers/USB/Core/AVR8/../AVR8/../AVR8/Endpoint_AVR8.h **** 		/* Inline Functions: */
 122:../../LUFA-111009/LUFA/Drivers/USB/Core/AVR8/../AVR8/../AVR8/Endpoint_AVR8.h **** 			static inline uint8_t Endpoint_BytesToEPSizeMask(const uint16_t Bytes) ATTR_WARN_UNUSED_RESULT A
 123:../../LUFA-111009/LUFA/Drivers/USB/Core/AVR8/../AVR8/../AVR8/Endpoint_AVR8.h **** 			                                                                       ATTR_ALWAYS_INLINE;
 124:../../LUFA-111009/LUFA/Drivers/USB/Core/AVR8/../AVR8/../AVR8/Endpoint_AVR8.h **** 			static inline uint8_t Endpoint_BytesToEPSizeMask(const uint16_t Bytes)
 125:../../LUFA-111009/LUFA/Drivers/USB/Core/AVR8/../AVR8/../AVR8/Endpoint_AVR8.h **** 			{
 126:../../LUFA-111009/LUFA/Drivers/USB/Core/AVR8/../AVR8/../AVR8/Endpoint_AVR8.h **** 				uint8_t  MaskVal    = 0;
 127:../../LUFA-111009/LUFA/Drivers/USB/Core/AVR8/../AVR8/../AVR8/Endpoint_AVR8.h **** 				uint16_t CheckBytes = 8;
 128:../../LUFA-111009/LUFA/Drivers/USB/Core/AVR8/../AVR8/../AVR8/Endpoint_AVR8.h **** 
 129:../../LUFA-111009/LUFA/Drivers/USB/Core/AVR8/../AVR8/../AVR8/Endpoint_AVR8.h **** 				while (CheckBytes < Bytes)
 130:../../LUFA-111009/LUFA/Drivers/USB/Core/AVR8/../AVR8/../AVR8/Endpoint_AVR8.h **** 				{
 131:../../LUFA-111009/LUFA/Drivers/USB/Core/AVR8/../AVR8/../AVR8/Endpoint_AVR8.h **** 					MaskVal++;
 132:../../LUFA-111009/LUFA/Drivers/USB/Core/AVR8/../AVR8/../AVR8/Endpoint_AVR8.h **** 					CheckBytes <<= 1;
 133:../../LUFA-111009/LUFA/Drivers/USB/Core/AVR8/../AVR8/../AVR8/Endpoint_AVR8.h **** 				}
 134:../../LUFA-111009/LUFA/Drivers/USB/Core/AVR8/../AVR8/../AVR8/Endpoint_AVR8.h **** 
 135:../../LUFA-111009/LUFA/Drivers/USB/Core/AVR8/../AVR8/../AVR8/Endpoint_AVR8.h **** 				return (MaskVal << EPSIZE0);
 136:../../LUFA-111009/LUFA/Drivers/USB/Core/AVR8/../AVR8/../AVR8/Endpoint_AVR8.h **** 			}
 137:../../LUFA-111009/LUFA/Drivers/USB/Core/AVR8/../AVR8/../AVR8/Endpoint_AVR8.h **** 
 138:../../LUFA-111009/LUFA/Drivers/USB/Core/AVR8/../AVR8/../AVR8/Endpoint_AVR8.h **** 		/* Function Prototypes: */
 139:../../LUFA-111009/LUFA/Drivers/USB/Core/AVR8/../AVR8/../AVR8/Endpoint_AVR8.h **** 			void Endpoint_ClearEndpoints(void);
 140:../../LUFA-111009/LUFA/Drivers/USB/Core/AVR8/../AVR8/../AVR8/Endpoint_AVR8.h **** 			bool Endpoint_ConfigureEndpoint_Prv(const uint8_t Number,
 141:../../LUFA-111009/LUFA/Drivers/USB/Core/AVR8/../AVR8/../AVR8/Endpoint_AVR8.h **** 			                                    const uint8_t UECFG0XData,
 142:../../LUFA-111009/LUFA/Drivers/USB/Core/AVR8/../AVR8/../AVR8/Endpoint_AVR8.h **** 			                                    const uint8_t UECFG1XData);
 143:../../LUFA-111009/LUFA/Drivers/USB/Core/AVR8/../AVR8/../AVR8/Endpoint_AVR8.h **** 
 144:../../LUFA-111009/LUFA/Drivers/USB/Core/AVR8/../AVR8/../AVR8/Endpoint_AVR8.h **** 	#endif
 145:../../LUFA-111009/LUFA/Drivers/USB/Core/AVR8/../AVR8/../AVR8/Endpoint_AVR8.h **** 
 146:../../LUFA-111009/LUFA/Drivers/USB/Core/AVR8/../AVR8/../AVR8/Endpoint_AVR8.h **** 	/* Public Interface - May be used in end-application: */
 147:../../LUFA-111009/LUFA/Drivers/USB/Core/AVR8/../AVR8/../AVR8/Endpoint_AVR8.h **** 		/* Macros: */			
 148:../../LUFA-111009/LUFA/Drivers/USB/Core/AVR8/../AVR8/../AVR8/Endpoint_AVR8.h **** 			/** \name Endpoint Bank Mode Masks */
 149:../../LUFA-111009/LUFA/Drivers/USB/Core/AVR8/../AVR8/../AVR8/Endpoint_AVR8.h **** 			//@{
 150:../../LUFA-111009/LUFA/Drivers/USB/Core/AVR8/../AVR8/../AVR8/Endpoint_AVR8.h **** 			/** Mask for the bank mode selection for the \ref Endpoint_ConfigureEndpoint() macro. This indic
 151:../../LUFA-111009/LUFA/Drivers/USB/Core/AVR8/../AVR8/../AVR8/Endpoint_AVR8.h **** 			 *  that the endpoint should have one single bank, which requires less USB FIFO memory but resul
 152:../../LUFA-111009/LUFA/Drivers/USB/Core/AVR8/../AVR8/../AVR8/Endpoint_AVR8.h **** 			 *  in slower transfers as only one USB device (the AVR or the host) can access the endpoint's
 153:../../LUFA-111009/LUFA/Drivers/USB/Core/AVR8/../AVR8/../AVR8/Endpoint_AVR8.h **** 			 *  bank at the one time.
 154:../../LUFA-111009/LUFA/Drivers/USB/Core/AVR8/../AVR8/../AVR8/Endpoint_AVR8.h **** 			 */
 155:../../LUFA-111009/LUFA/Drivers/USB/Core/AVR8/../AVR8/../AVR8/Endpoint_AVR8.h **** 			#define ENDPOINT_BANK_SINGLE                    (0 << EPBK0)
 156:../../LUFA-111009/LUFA/Drivers/USB/Core/AVR8/../AVR8/../AVR8/Endpoint_AVR8.h **** 
 157:../../LUFA-111009/LUFA/Drivers/USB/Core/AVR8/../AVR8/../AVR8/Endpoint_AVR8.h **** 			/** Mask for the bank mode selection for the \ref Endpoint_ConfigureEndpoint() macro. This indic
 158:../../LUFA-111009/LUFA/Drivers/USB/Core/AVR8/../AVR8/../AVR8/Endpoint_AVR8.h **** 			 *  that the endpoint should have two banks, which requires more USB FIFO memory but results
 159:../../LUFA-111009/LUFA/Drivers/USB/Core/AVR8/../AVR8/../AVR8/Endpoint_AVR8.h **** 			 *  in faster transfers as one USB device (the AVR or the host) can access one bank while the ot
 160:../../LUFA-111009/LUFA/Drivers/USB/Core/AVR8/../AVR8/../AVR8/Endpoint_AVR8.h **** 			 *  accesses the second bank.
 161:../../LUFA-111009/LUFA/Drivers/USB/Core/AVR8/../AVR8/../AVR8/Endpoint_AVR8.h **** 			 */
 162:../../LUFA-111009/LUFA/Drivers/USB/Core/AVR8/../AVR8/../AVR8/Endpoint_AVR8.h **** 			#define ENDPOINT_BANK_DOUBLE                    (1 << EPBK0)
 163:../../LUFA-111009/LUFA/Drivers/USB/Core/AVR8/../AVR8/../AVR8/Endpoint_AVR8.h **** 			//@}
 164:../../LUFA-111009/LUFA/Drivers/USB/Core/AVR8/../AVR8/../AVR8/Endpoint_AVR8.h **** 
 165:../../LUFA-111009/LUFA/Drivers/USB/Core/AVR8/../AVR8/../AVR8/Endpoint_AVR8.h **** 			#if (!defined(FIXED_CONTROL_ENDPOINT_SIZE) || defined(__DOXYGEN__))
 166:../../LUFA-111009/LUFA/Drivers/USB/Core/AVR8/../AVR8/../AVR8/Endpoint_AVR8.h **** 				/** Default size of the default control endpoint's bank, until altered by the control endpoint 
 167:../../LUFA-111009/LUFA/Drivers/USB/Core/AVR8/../AVR8/../AVR8/Endpoint_AVR8.h **** 				 *  value in the device descriptor. Not available if the \c FIXED_CONTROL_ENDPOINT_SIZE token i
 168:../../LUFA-111009/LUFA/Drivers/USB/Core/AVR8/../AVR8/../AVR8/Endpoint_AVR8.h **** 				 */
 169:../../LUFA-111009/LUFA/Drivers/USB/Core/AVR8/../AVR8/../AVR8/Endpoint_AVR8.h **** 				#define ENDPOINT_CONTROLEP_DEFAULT_SIZE     8
 170:../../LUFA-111009/LUFA/Drivers/USB/Core/AVR8/../AVR8/../AVR8/Endpoint_AVR8.h **** 			#endif
 171:../../LUFA-111009/LUFA/Drivers/USB/Core/AVR8/../AVR8/../AVR8/Endpoint_AVR8.h **** 
 172:../../LUFA-111009/LUFA/Drivers/USB/Core/AVR8/../AVR8/../AVR8/Endpoint_AVR8.h **** 			/** Retrieves the maximum bank size in bytes of a given endpoint.
 173:../../LUFA-111009/LUFA/Drivers/USB/Core/AVR8/../AVR8/../AVR8/Endpoint_AVR8.h **** 			 *
 174:../../LUFA-111009/LUFA/Drivers/USB/Core/AVR8/../AVR8/../AVR8/Endpoint_AVR8.h **** 			 *  \note This macro will only work correctly on endpoint indexes that are compile-time constant
 175:../../LUFA-111009/LUFA/Drivers/USB/Core/AVR8/../AVR8/../AVR8/Endpoint_AVR8.h **** 			 *        defined by the preprocessor.
 176:../../LUFA-111009/LUFA/Drivers/USB/Core/AVR8/../AVR8/../AVR8/Endpoint_AVR8.h **** 			 *
 177:../../LUFA-111009/LUFA/Drivers/USB/Core/AVR8/../AVR8/../AVR8/Endpoint_AVR8.h **** 			 *  \param[in] EPIndex  Endpoint number, a value between 0 and (\ref ENDPOINT_TOTAL_ENDPOINTS - 
 178:../../LUFA-111009/LUFA/Drivers/USB/Core/AVR8/../AVR8/../AVR8/Endpoint_AVR8.h **** 			 */
 179:../../LUFA-111009/LUFA/Drivers/USB/Core/AVR8/../AVR8/../AVR8/Endpoint_AVR8.h **** 			#define ENDPOINT_MAX_SIZE(EPIndex)              _ENDPOINT_GET_MAXSIZE(EPIndex)
 180:../../LUFA-111009/LUFA/Drivers/USB/Core/AVR8/../AVR8/../AVR8/Endpoint_AVR8.h **** 
 181:../../LUFA-111009/LUFA/Drivers/USB/Core/AVR8/../AVR8/../AVR8/Endpoint_AVR8.h **** 			/** Retrieves the total number of banks supported by the given endpoint.
 182:../../LUFA-111009/LUFA/Drivers/USB/Core/AVR8/../AVR8/../AVR8/Endpoint_AVR8.h **** 			 *
 183:../../LUFA-111009/LUFA/Drivers/USB/Core/AVR8/../AVR8/../AVR8/Endpoint_AVR8.h **** 			 *  \note This macro will only work correctly on endpoint indexes that are compile-time constant
 184:../../LUFA-111009/LUFA/Drivers/USB/Core/AVR8/../AVR8/../AVR8/Endpoint_AVR8.h **** 			 *        defined by the preprocessor.
 185:../../LUFA-111009/LUFA/Drivers/USB/Core/AVR8/../AVR8/../AVR8/Endpoint_AVR8.h **** 			 *
 186:../../LUFA-111009/LUFA/Drivers/USB/Core/AVR8/../AVR8/../AVR8/Endpoint_AVR8.h **** 			 *  \param[in] EPIndex  Endpoint number, a value between 0 and (\ref ENDPOINT_TOTAL_ENDPOINTS - 
 187:../../LUFA-111009/LUFA/Drivers/USB/Core/AVR8/../AVR8/../AVR8/Endpoint_AVR8.h **** 			 */
 188:../../LUFA-111009/LUFA/Drivers/USB/Core/AVR8/../AVR8/../AVR8/Endpoint_AVR8.h **** 			#define ENDPOINT_BANKS_SUPPORTED(EPIndex)       _ENDPOINT_GET_BANKS(EPIndex)
 189:../../LUFA-111009/LUFA/Drivers/USB/Core/AVR8/../AVR8/../AVR8/Endpoint_AVR8.h **** 
 190:../../LUFA-111009/LUFA/Drivers/USB/Core/AVR8/../AVR8/../AVR8/Endpoint_AVR8.h **** 			#if !defined(CONTROL_ONLY_DEVICE) || defined(__DOXYGEN__)
 191:../../LUFA-111009/LUFA/Drivers/USB/Core/AVR8/../AVR8/../AVR8/Endpoint_AVR8.h **** 				/** Total number of endpoints (including the default control endpoint at address 0) which may
 192:../../LUFA-111009/LUFA/Drivers/USB/Core/AVR8/../AVR8/../AVR8/Endpoint_AVR8.h **** 				 *  be used in the device. Different USB AVR models support different amounts of endpoints,
 193:../../LUFA-111009/LUFA/Drivers/USB/Core/AVR8/../AVR8/../AVR8/Endpoint_AVR8.h **** 				 *  this value reflects the maximum number of endpoints for the currently selected AVR model.
 194:../../LUFA-111009/LUFA/Drivers/USB/Core/AVR8/../AVR8/../AVR8/Endpoint_AVR8.h **** 				 */
 195:../../LUFA-111009/LUFA/Drivers/USB/Core/AVR8/../AVR8/../AVR8/Endpoint_AVR8.h **** 				#define ENDPOINT_TOTAL_ENDPOINTS            ENDPOINT_DETAILS_MAXEP
 196:../../LUFA-111009/LUFA/Drivers/USB/Core/AVR8/../AVR8/../AVR8/Endpoint_AVR8.h **** 			#else
 197:../../LUFA-111009/LUFA/Drivers/USB/Core/AVR8/../AVR8/../AVR8/Endpoint_AVR8.h **** 				#define ENDPOINT_TOTAL_ENDPOINTS            1
 198:../../LUFA-111009/LUFA/Drivers/USB/Core/AVR8/../AVR8/../AVR8/Endpoint_AVR8.h **** 			#endif
 199:../../LUFA-111009/LUFA/Drivers/USB/Core/AVR8/../AVR8/../AVR8/Endpoint_AVR8.h **** 
 200:../../LUFA-111009/LUFA/Drivers/USB/Core/AVR8/../AVR8/../AVR8/Endpoint_AVR8.h **** 		/* Enums: */
 201:../../LUFA-111009/LUFA/Drivers/USB/Core/AVR8/../AVR8/../AVR8/Endpoint_AVR8.h **** 			/** Enum for the possible error return codes of the \ref Endpoint_WaitUntilReady() function.
 202:../../LUFA-111009/LUFA/Drivers/USB/Core/AVR8/../AVR8/../AVR8/Endpoint_AVR8.h **** 			 *
 203:../../LUFA-111009/LUFA/Drivers/USB/Core/AVR8/../AVR8/../AVR8/Endpoint_AVR8.h **** 			 *  \ingroup Group_EndpointRW_AVR8
 204:../../LUFA-111009/LUFA/Drivers/USB/Core/AVR8/../AVR8/../AVR8/Endpoint_AVR8.h **** 			 */
 205:../../LUFA-111009/LUFA/Drivers/USB/Core/AVR8/../AVR8/../AVR8/Endpoint_AVR8.h **** 			enum Endpoint_WaitUntilReady_ErrorCodes_t
 206:../../LUFA-111009/LUFA/Drivers/USB/Core/AVR8/../AVR8/../AVR8/Endpoint_AVR8.h **** 			{
 207:../../LUFA-111009/LUFA/Drivers/USB/Core/AVR8/../AVR8/../AVR8/Endpoint_AVR8.h **** 				ENDPOINT_READYWAIT_NoError                 = 0, /**< Endpoint is ready for next packet, no erro
 208:../../LUFA-111009/LUFA/Drivers/USB/Core/AVR8/../AVR8/../AVR8/Endpoint_AVR8.h **** 				ENDPOINT_READYWAIT_EndpointStalled         = 1, /**< The endpoint was stalled during the stream
 209:../../LUFA-111009/LUFA/Drivers/USB/Core/AVR8/../AVR8/../AVR8/Endpoint_AVR8.h **** 				                                                 *   transfer by the host or device.
 210:../../LUFA-111009/LUFA/Drivers/USB/Core/AVR8/../AVR8/../AVR8/Endpoint_AVR8.h **** 				                                                 */
 211:../../LUFA-111009/LUFA/Drivers/USB/Core/AVR8/../AVR8/../AVR8/Endpoint_AVR8.h **** 				ENDPOINT_READYWAIT_DeviceDisconnected      = 2,	/**< Device was disconnected from the host whil
 212:../../LUFA-111009/LUFA/Drivers/USB/Core/AVR8/../AVR8/../AVR8/Endpoint_AVR8.h **** 				                                                 *   waiting for the endpoint to become ready.
 213:../../LUFA-111009/LUFA/Drivers/USB/Core/AVR8/../AVR8/../AVR8/Endpoint_AVR8.h **** 				                                                 */
 214:../../LUFA-111009/LUFA/Drivers/USB/Core/AVR8/../AVR8/../AVR8/Endpoint_AVR8.h **** 				ENDPOINT_READYWAIT_BusSuspended            = 3, /**< The USB bus has been suspended by the host
 215:../../LUFA-111009/LUFA/Drivers/USB/Core/AVR8/../AVR8/../AVR8/Endpoint_AVR8.h **** 				                                                 *   no USB endpoint traffic can occur until th
 216:../../LUFA-111009/LUFA/Drivers/USB/Core/AVR8/../AVR8/../AVR8/Endpoint_AVR8.h **** 				                                                 *   has resumed.
 217:../../LUFA-111009/LUFA/Drivers/USB/Core/AVR8/../AVR8/../AVR8/Endpoint_AVR8.h **** 				                                                 */
 218:../../LUFA-111009/LUFA/Drivers/USB/Core/AVR8/../AVR8/../AVR8/Endpoint_AVR8.h **** 				ENDPOINT_READYWAIT_Timeout                 = 4, /**< The host failed to accept or send the next
 219:../../LUFA-111009/LUFA/Drivers/USB/Core/AVR8/../AVR8/../AVR8/Endpoint_AVR8.h **** 				                                                 *   within the software timeout period set by 
 220:../../LUFA-111009/LUFA/Drivers/USB/Core/AVR8/../AVR8/../AVR8/Endpoint_AVR8.h **** 				                                                 *   \ref USB_STREAM_TIMEOUT_MS macro.
 221:../../LUFA-111009/LUFA/Drivers/USB/Core/AVR8/../AVR8/../AVR8/Endpoint_AVR8.h **** 				                                                 */
 222:../../LUFA-111009/LUFA/Drivers/USB/Core/AVR8/../AVR8/../AVR8/Endpoint_AVR8.h **** 			};
 223:../../LUFA-111009/LUFA/Drivers/USB/Core/AVR8/../AVR8/../AVR8/Endpoint_AVR8.h **** 
 224:../../LUFA-111009/LUFA/Drivers/USB/Core/AVR8/../AVR8/../AVR8/Endpoint_AVR8.h **** 		/* Inline Functions: */
 225:../../LUFA-111009/LUFA/Drivers/USB/Core/AVR8/../AVR8/../AVR8/Endpoint_AVR8.h **** 			/** Configures the specified endpoint number with the given endpoint type, direction, bank size
 226:../../LUFA-111009/LUFA/Drivers/USB/Core/AVR8/../AVR8/../AVR8/Endpoint_AVR8.h **** 			 *  and banking mode. Once configured, the endpoint may be read from or written to, depending
 227:../../LUFA-111009/LUFA/Drivers/USB/Core/AVR8/../AVR8/../AVR8/Endpoint_AVR8.h **** 			 *  on its direction.
 228:../../LUFA-111009/LUFA/Drivers/USB/Core/AVR8/../AVR8/../AVR8/Endpoint_AVR8.h **** 			 *
 229:../../LUFA-111009/LUFA/Drivers/USB/Core/AVR8/../AVR8/../AVR8/Endpoint_AVR8.h **** 			 *  \param[in] Number     Endpoint number to configure. This must be more than 0 and less than
 230:../../LUFA-111009/LUFA/Drivers/USB/Core/AVR8/../AVR8/../AVR8/Endpoint_AVR8.h **** 			 *                        \ref ENDPOINT_TOTAL_ENDPOINTS.
 231:../../LUFA-111009/LUFA/Drivers/USB/Core/AVR8/../AVR8/../AVR8/Endpoint_AVR8.h **** 			 *
 232:../../LUFA-111009/LUFA/Drivers/USB/Core/AVR8/../AVR8/../AVR8/Endpoint_AVR8.h **** 			 *  \param[in] Type       Type of endpoint to configure, a \c EP_TYPE_* mask. Not all endpoint t
 233:../../LUFA-111009/LUFA/Drivers/USB/Core/AVR8/../AVR8/../AVR8/Endpoint_AVR8.h **** 			 *                        are available on Low Speed USB devices - refer to the USB 2.0 specific
 234:../../LUFA-111009/LUFA/Drivers/USB/Core/AVR8/../AVR8/../AVR8/Endpoint_AVR8.h **** 			 *
 235:../../LUFA-111009/LUFA/Drivers/USB/Core/AVR8/../AVR8/../AVR8/Endpoint_AVR8.h **** 			 *  \param[in] Direction  Endpoint data direction, either \ref ENDPOINT_DIR_OUT or \ref ENDPOINT
 236:../../LUFA-111009/LUFA/Drivers/USB/Core/AVR8/../AVR8/../AVR8/Endpoint_AVR8.h **** 			 *                        All endpoints (except Control type) are unidirectional - data may only
 237:../../LUFA-111009/LUFA/Drivers/USB/Core/AVR8/../AVR8/../AVR8/Endpoint_AVR8.h **** 			 *                        from or written to the endpoint bank based on its direction, not both.
 238:../../LUFA-111009/LUFA/Drivers/USB/Core/AVR8/../AVR8/../AVR8/Endpoint_AVR8.h **** 			 *
 239:../../LUFA-111009/LUFA/Drivers/USB/Core/AVR8/../AVR8/../AVR8/Endpoint_AVR8.h **** 			 *  \param[in] Size       Size of the endpoint's bank, where packets are stored before they are 
 240:../../LUFA-111009/LUFA/Drivers/USB/Core/AVR8/../AVR8/../AVR8/Endpoint_AVR8.h **** 			 *                        to the USB host, or after they have been received from the USB host (d
 241:../../LUFA-111009/LUFA/Drivers/USB/Core/AVR8/../AVR8/../AVR8/Endpoint_AVR8.h **** 			 *                        the endpoint's data direction). The bank size must indicate the maximu
 242:../../LUFA-111009/LUFA/Drivers/USB/Core/AVR8/../AVR8/../AVR8/Endpoint_AVR8.h **** 			 *                        that the endpoint can handle.
 243:../../LUFA-111009/LUFA/Drivers/USB/Core/AVR8/../AVR8/../AVR8/Endpoint_AVR8.h **** 			 *
 244:../../LUFA-111009/LUFA/Drivers/USB/Core/AVR8/../AVR8/../AVR8/Endpoint_AVR8.h **** 			 *  \param[in] Banks      Number of banks to use for the endpoint being configured, an \c ENDPOI
 245:../../LUFA-111009/LUFA/Drivers/USB/Core/AVR8/../AVR8/../AVR8/Endpoint_AVR8.h **** 			 *                        More banks uses more USB DPRAM, but offers better performance. Isochro
 246:../../LUFA-111009/LUFA/Drivers/USB/Core/AVR8/../AVR8/../AVR8/Endpoint_AVR8.h **** 			 *                        endpoints <b>must</b> have at least two banks.
 247:../../LUFA-111009/LUFA/Drivers/USB/Core/AVR8/../AVR8/../AVR8/Endpoint_AVR8.h **** 			 *
 248:../../LUFA-111009/LUFA/Drivers/USB/Core/AVR8/../AVR8/../AVR8/Endpoint_AVR8.h **** 			 *  \note When the \c ORDERED_EP_CONFIG compile time option is used, Endpoints <b>must</b> be co
 249:../../LUFA-111009/LUFA/Drivers/USB/Core/AVR8/../AVR8/../AVR8/Endpoint_AVR8.h **** 			 *        ascending order, or bank corruption will occur.
 250:../../LUFA-111009/LUFA/Drivers/USB/Core/AVR8/../AVR8/../AVR8/Endpoint_AVR8.h **** 			 *        \n\n
 251:../../LUFA-111009/LUFA/Drivers/USB/Core/AVR8/../AVR8/../AVR8/Endpoint_AVR8.h **** 			 *
 252:../../LUFA-111009/LUFA/Drivers/USB/Core/AVR8/../AVR8/../AVR8/Endpoint_AVR8.h **** 			 *  \note Different endpoints may have different maximum packet sizes based on the endpoint's in
 253:../../LUFA-111009/LUFA/Drivers/USB/Core/AVR8/../AVR8/../AVR8/Endpoint_AVR8.h **** 			 *        the chosen microcontroller model's datasheet to determine the maximum bank size for ea
 254:../../LUFA-111009/LUFA/Drivers/USB/Core/AVR8/../AVR8/../AVR8/Endpoint_AVR8.h **** 			 *        \n\n
 255:../../LUFA-111009/LUFA/Drivers/USB/Core/AVR8/../AVR8/../AVR8/Endpoint_AVR8.h **** 			 *
 256:../../LUFA-111009/LUFA/Drivers/USB/Core/AVR8/../AVR8/../AVR8/Endpoint_AVR8.h **** 			 *  \note The default control endpoint should not be manually configured by the user application
 257:../../LUFA-111009/LUFA/Drivers/USB/Core/AVR8/../AVR8/../AVR8/Endpoint_AVR8.h **** 			 *        it is automatically configured by the library internally.
 258:../../LUFA-111009/LUFA/Drivers/USB/Core/AVR8/../AVR8/../AVR8/Endpoint_AVR8.h **** 			 *        \n\n
 259:../../LUFA-111009/LUFA/Drivers/USB/Core/AVR8/../AVR8/../AVR8/Endpoint_AVR8.h **** 			 *
 260:../../LUFA-111009/LUFA/Drivers/USB/Core/AVR8/../AVR8/../AVR8/Endpoint_AVR8.h **** 			 *  \note This routine will automatically select the specified endpoint upon success. Upon failu
 261:../../LUFA-111009/LUFA/Drivers/USB/Core/AVR8/../AVR8/../AVR8/Endpoint_AVR8.h **** 			 *        which failed to reconfigure correctly will be selected.
 262:../../LUFA-111009/LUFA/Drivers/USB/Core/AVR8/../AVR8/../AVR8/Endpoint_AVR8.h **** 			 *
 263:../../LUFA-111009/LUFA/Drivers/USB/Core/AVR8/../AVR8/../AVR8/Endpoint_AVR8.h **** 			 *  \return Boolean \c true if the configuration succeeded, \c false otherwise.
 264:../../LUFA-111009/LUFA/Drivers/USB/Core/AVR8/../AVR8/../AVR8/Endpoint_AVR8.h **** 			 */
 265:../../LUFA-111009/LUFA/Drivers/USB/Core/AVR8/../AVR8/../AVR8/Endpoint_AVR8.h **** 			static inline bool Endpoint_ConfigureEndpoint(const uint8_t Number,
 266:../../LUFA-111009/LUFA/Drivers/USB/Core/AVR8/../AVR8/../AVR8/Endpoint_AVR8.h **** 			                                              const uint8_t Type,
 267:../../LUFA-111009/LUFA/Drivers/USB/Core/AVR8/../AVR8/../AVR8/Endpoint_AVR8.h **** 			                                              const uint8_t Direction,
 268:../../LUFA-111009/LUFA/Drivers/USB/Core/AVR8/../AVR8/../AVR8/Endpoint_AVR8.h **** 			                                              const uint16_t Size,
 269:../../LUFA-111009/LUFA/Drivers/USB/Core/AVR8/../AVR8/../AVR8/Endpoint_AVR8.h **** 			                                              const uint8_t Banks) ATTR_ALWAYS_INLINE;
 270:../../LUFA-111009/LUFA/Drivers/USB/Core/AVR8/../AVR8/../AVR8/Endpoint_AVR8.h **** 			static inline bool Endpoint_ConfigureEndpoint(const uint8_t Number,
 271:../../LUFA-111009/LUFA/Drivers/USB/Core/AVR8/../AVR8/../AVR8/Endpoint_AVR8.h **** 			                                              const uint8_t Type,
 272:../../LUFA-111009/LUFA/Drivers/USB/Core/AVR8/../AVR8/../AVR8/Endpoint_AVR8.h **** 			                                              const uint8_t Direction,
 273:../../LUFA-111009/LUFA/Drivers/USB/Core/AVR8/../AVR8/../AVR8/Endpoint_AVR8.h **** 			                                              const uint16_t Size,
 274:../../LUFA-111009/LUFA/Drivers/USB/Core/AVR8/../AVR8/../AVR8/Endpoint_AVR8.h **** 			                                              const uint8_t Banks)
 275:../../LUFA-111009/LUFA/Drivers/USB/Core/AVR8/../AVR8/../AVR8/Endpoint_AVR8.h **** 			{
 276:../../LUFA-111009/LUFA/Drivers/USB/Core/AVR8/../AVR8/../AVR8/Endpoint_AVR8.h **** 				return Endpoint_ConfigureEndpoint_Prv(Number, ((Type << EPTYPE0) | (Direction ? (1 << EPDIR) : 
 277:../../LUFA-111009/LUFA/Drivers/USB/Core/AVR8/../AVR8/../AVR8/Endpoint_AVR8.h **** 				                                      ((1 << ALLOC) | Banks | Endpoint_BytesToEPSizeMask(Size))
 278:../../LUFA-111009/LUFA/Drivers/USB/Core/AVR8/../AVR8/../AVR8/Endpoint_AVR8.h **** 			}
 279:../../LUFA-111009/LUFA/Drivers/USB/Core/AVR8/../AVR8/../AVR8/Endpoint_AVR8.h **** 
 280:../../LUFA-111009/LUFA/Drivers/USB/Core/AVR8/../AVR8/../AVR8/Endpoint_AVR8.h **** 			/** Indicates the number of bytes currently stored in the current endpoint's selected bank.
 281:../../LUFA-111009/LUFA/Drivers/USB/Core/AVR8/../AVR8/../AVR8/Endpoint_AVR8.h **** 			 *
 282:../../LUFA-111009/LUFA/Drivers/USB/Core/AVR8/../AVR8/../AVR8/Endpoint_AVR8.h **** 			 *  \note The return width of this function may differ, depending on the maximum endpoint bank s
 283:../../LUFA-111009/LUFA/Drivers/USB/Core/AVR8/../AVR8/../AVR8/Endpoint_AVR8.h **** 			 *        of the selected AVR model.
 284:../../LUFA-111009/LUFA/Drivers/USB/Core/AVR8/../AVR8/../AVR8/Endpoint_AVR8.h **** 			 *
 285:../../LUFA-111009/LUFA/Drivers/USB/Core/AVR8/../AVR8/../AVR8/Endpoint_AVR8.h **** 			 *  \ingroup Group_EndpointRW_AVR8
 286:../../LUFA-111009/LUFA/Drivers/USB/Core/AVR8/../AVR8/../AVR8/Endpoint_AVR8.h **** 			 *
 287:../../LUFA-111009/LUFA/Drivers/USB/Core/AVR8/../AVR8/../AVR8/Endpoint_AVR8.h **** 			 *  \return Total number of bytes in the currently selected Endpoint's FIFO buffer.
 288:../../LUFA-111009/LUFA/Drivers/USB/Core/AVR8/../AVR8/../AVR8/Endpoint_AVR8.h **** 			 */
 289:../../LUFA-111009/LUFA/Drivers/USB/Core/AVR8/../AVR8/../AVR8/Endpoint_AVR8.h **** 			static inline uint16_t Endpoint_BytesInEndpoint(void) ATTR_WARN_UNUSED_RESULT ATTR_ALWAYS_INLINE
 290:../../LUFA-111009/LUFA/Drivers/USB/Core/AVR8/../AVR8/../AVR8/Endpoint_AVR8.h **** 			static inline uint16_t Endpoint_BytesInEndpoint(void)
 291:../../LUFA-111009/LUFA/Drivers/USB/Core/AVR8/../AVR8/../AVR8/Endpoint_AVR8.h **** 			{
 292:../../LUFA-111009/LUFA/Drivers/USB/Core/AVR8/../AVR8/../AVR8/Endpoint_AVR8.h **** 				#if defined(USB_SERIES_6_AVR) || defined(USB_SERIES_7_AVR)
 293:../../LUFA-111009/LUFA/Drivers/USB/Core/AVR8/../AVR8/../AVR8/Endpoint_AVR8.h **** 					return UEBCX;
 294:../../LUFA-111009/LUFA/Drivers/USB/Core/AVR8/../AVR8/../AVR8/Endpoint_AVR8.h **** 				#elif defined(USB_SERIES_4_AVR)
 295:../../LUFA-111009/LUFA/Drivers/USB/Core/AVR8/../AVR8/../AVR8/Endpoint_AVR8.h **** 					return (((uint16_t)UEBCHX << 8) | UEBCLX);
 296:../../LUFA-111009/LUFA/Drivers/USB/Core/AVR8/../AVR8/../AVR8/Endpoint_AVR8.h **** 				#elif defined(USB_SERIES_2_AVR)
 297:../../LUFA-111009/LUFA/Drivers/USB/Core/AVR8/../AVR8/../AVR8/Endpoint_AVR8.h **** 					return UEBCLX;
 298:../../LUFA-111009/LUFA/Drivers/USB/Core/AVR8/../AVR8/../AVR8/Endpoint_AVR8.h **** 				#endif
 299:../../LUFA-111009/LUFA/Drivers/USB/Core/AVR8/../AVR8/../AVR8/Endpoint_AVR8.h **** 			}
 300:../../LUFA-111009/LUFA/Drivers/USB/Core/AVR8/../AVR8/../AVR8/Endpoint_AVR8.h **** 
 301:../../LUFA-111009/LUFA/Drivers/USB/Core/AVR8/../AVR8/../AVR8/Endpoint_AVR8.h **** 			/** Get the endpoint address of the currently selected endpoint. This is typically used to save
 302:../../LUFA-111009/LUFA/Drivers/USB/Core/AVR8/../AVR8/../AVR8/Endpoint_AVR8.h **** 			 *  the currently selected endpoint number so that it can be restored after another endpoint has
 303:../../LUFA-111009/LUFA/Drivers/USB/Core/AVR8/../AVR8/../AVR8/Endpoint_AVR8.h **** 			 *  been manipulated.
 304:../../LUFA-111009/LUFA/Drivers/USB/Core/AVR8/../AVR8/../AVR8/Endpoint_AVR8.h **** 			 *
 305:../../LUFA-111009/LUFA/Drivers/USB/Core/AVR8/../AVR8/../AVR8/Endpoint_AVR8.h **** 			 *  \return Index of the currently selected endpoint.
 306:../../LUFA-111009/LUFA/Drivers/USB/Core/AVR8/../AVR8/../AVR8/Endpoint_AVR8.h **** 			 */
 307:../../LUFA-111009/LUFA/Drivers/USB/Core/AVR8/../AVR8/../AVR8/Endpoint_AVR8.h **** 			static inline uint8_t Endpoint_GetCurrentEndpoint(void) ATTR_WARN_UNUSED_RESULT ATTR_ALWAYS_INLI
 308:../../LUFA-111009/LUFA/Drivers/USB/Core/AVR8/../AVR8/../AVR8/Endpoint_AVR8.h **** 			static inline uint8_t Endpoint_GetCurrentEndpoint(void)
 309:../../LUFA-111009/LUFA/Drivers/USB/Core/AVR8/../AVR8/../AVR8/Endpoint_AVR8.h **** 			{
 310:../../LUFA-111009/LUFA/Drivers/USB/Core/AVR8/../AVR8/../AVR8/Endpoint_AVR8.h **** 				#if !defined(CONTROL_ONLY_DEVICE)
 311:../../LUFA-111009/LUFA/Drivers/USB/Core/AVR8/../AVR8/../AVR8/Endpoint_AVR8.h **** 					return (UENUM & ENDPOINT_EPNUM_MASK);
 312:../../LUFA-111009/LUFA/Drivers/USB/Core/AVR8/../AVR8/../AVR8/Endpoint_AVR8.h **** 				#else
 313:../../LUFA-111009/LUFA/Drivers/USB/Core/AVR8/../AVR8/../AVR8/Endpoint_AVR8.h **** 					return ENDPOINT_CONTROLEP;
 314:../../LUFA-111009/LUFA/Drivers/USB/Core/AVR8/../AVR8/../AVR8/Endpoint_AVR8.h **** 				#endif
 315:../../LUFA-111009/LUFA/Drivers/USB/Core/AVR8/../AVR8/../AVR8/Endpoint_AVR8.h **** 			}
 316:../../LUFA-111009/LUFA/Drivers/USB/Core/AVR8/../AVR8/../AVR8/Endpoint_AVR8.h **** 
 317:../../LUFA-111009/LUFA/Drivers/USB/Core/AVR8/../AVR8/../AVR8/Endpoint_AVR8.h **** 			/** Selects the given endpoint number. If the address from the device descriptors is used, the
 318:../../LUFA-111009/LUFA/Drivers/USB/Core/AVR8/../AVR8/../AVR8/Endpoint_AVR8.h **** 			 *  value should be masked with the \ref ENDPOINT_EPNUM_MASK constant to extract only the endpoi
 319:../../LUFA-111009/LUFA/Drivers/USB/Core/AVR8/../AVR8/../AVR8/Endpoint_AVR8.h **** 			 *  number (and discarding the endpoint direction bit).
 320:../../LUFA-111009/LUFA/Drivers/USB/Core/AVR8/../AVR8/../AVR8/Endpoint_AVR8.h **** 			 *
 321:../../LUFA-111009/LUFA/Drivers/USB/Core/AVR8/../AVR8/../AVR8/Endpoint_AVR8.h **** 			 *  Any endpoint operations which do not require the endpoint number to be indicated will operat
 322:../../LUFA-111009/LUFA/Drivers/USB/Core/AVR8/../AVR8/../AVR8/Endpoint_AVR8.h **** 			 *  the currently selected endpoint.
 323:../../LUFA-111009/LUFA/Drivers/USB/Core/AVR8/../AVR8/../AVR8/Endpoint_AVR8.h **** 			 *
 324:../../LUFA-111009/LUFA/Drivers/USB/Core/AVR8/../AVR8/../AVR8/Endpoint_AVR8.h **** 			 *  \param[in] EndpointNumber Endpoint number to select.
 325:../../LUFA-111009/LUFA/Drivers/USB/Core/AVR8/../AVR8/../AVR8/Endpoint_AVR8.h **** 			 */
 326:../../LUFA-111009/LUFA/Drivers/USB/Core/AVR8/../AVR8/../AVR8/Endpoint_AVR8.h **** 			static inline void Endpoint_SelectEndpoint(const uint8_t EndpointNumber) ATTR_ALWAYS_INLINE;
 327:../../LUFA-111009/LUFA/Drivers/USB/Core/AVR8/../AVR8/../AVR8/Endpoint_AVR8.h **** 			static inline void Endpoint_SelectEndpoint(const uint8_t EndpointNumber)
 328:../../LUFA-111009/LUFA/Drivers/USB/Core/AVR8/../AVR8/../AVR8/Endpoint_AVR8.h **** 			{
 329:../../LUFA-111009/LUFA/Drivers/USB/Core/AVR8/../AVR8/../AVR8/Endpoint_AVR8.h **** 				#if !defined(CONTROL_ONLY_DEVICE)
 330:../../LUFA-111009/LUFA/Drivers/USB/Core/AVR8/../AVR8/../AVR8/Endpoint_AVR8.h **** 					UENUM = EndpointNumber;
 331:../../LUFA-111009/LUFA/Drivers/USB/Core/AVR8/../AVR8/../AVR8/Endpoint_AVR8.h **** 				#endif
 332:../../LUFA-111009/LUFA/Drivers/USB/Core/AVR8/../AVR8/../AVR8/Endpoint_AVR8.h **** 			}
 333:../../LUFA-111009/LUFA/Drivers/USB/Core/AVR8/../AVR8/../AVR8/Endpoint_AVR8.h **** 
 334:../../LUFA-111009/LUFA/Drivers/USB/Core/AVR8/../AVR8/../AVR8/Endpoint_AVR8.h **** 			/** Resets the endpoint bank FIFO. This clears all the endpoint banks and resets the USB control
 335:../../LUFA-111009/LUFA/Drivers/USB/Core/AVR8/../AVR8/../AVR8/Endpoint_AVR8.h **** 			 *  data In and Out pointers to the bank's contents.
 336:../../LUFA-111009/LUFA/Drivers/USB/Core/AVR8/../AVR8/../AVR8/Endpoint_AVR8.h **** 			 *
 337:../../LUFA-111009/LUFA/Drivers/USB/Core/AVR8/../AVR8/../AVR8/Endpoint_AVR8.h **** 			 *  \param[in] EndpointNumber Endpoint number whose FIFO buffers are to be reset.
 338:../../LUFA-111009/LUFA/Drivers/USB/Core/AVR8/../AVR8/../AVR8/Endpoint_AVR8.h **** 			 */
 339:../../LUFA-111009/LUFA/Drivers/USB/Core/AVR8/../AVR8/../AVR8/Endpoint_AVR8.h **** 			static inline void Endpoint_ResetEndpoint(const uint8_t EndpointNumber) ATTR_ALWAYS_INLINE;
 340:../../LUFA-111009/LUFA/Drivers/USB/Core/AVR8/../AVR8/../AVR8/Endpoint_AVR8.h **** 			static inline void Endpoint_ResetEndpoint(const uint8_t EndpointNumber)
 341:../../LUFA-111009/LUFA/Drivers/USB/Core/AVR8/../AVR8/../AVR8/Endpoint_AVR8.h **** 			{
 342:../../LUFA-111009/LUFA/Drivers/USB/Core/AVR8/../AVR8/../AVR8/Endpoint_AVR8.h **** 				UERST = (1 << EndpointNumber);
 343:../../LUFA-111009/LUFA/Drivers/USB/Core/AVR8/../AVR8/../AVR8/Endpoint_AVR8.h **** 				UERST = 0;
 344:../../LUFA-111009/LUFA/Drivers/USB/Core/AVR8/../AVR8/../AVR8/Endpoint_AVR8.h **** 			}
 345:../../LUFA-111009/LUFA/Drivers/USB/Core/AVR8/../AVR8/../AVR8/Endpoint_AVR8.h **** 
 346:../../LUFA-111009/LUFA/Drivers/USB/Core/AVR8/../AVR8/../AVR8/Endpoint_AVR8.h **** 			/** Enables the currently selected endpoint so that data can be sent and received through it to
 347:../../LUFA-111009/LUFA/Drivers/USB/Core/AVR8/../AVR8/../AVR8/Endpoint_AVR8.h **** 			 *  and from a host.
 348:../../LUFA-111009/LUFA/Drivers/USB/Core/AVR8/../AVR8/../AVR8/Endpoint_AVR8.h **** 			 *
 349:../../LUFA-111009/LUFA/Drivers/USB/Core/AVR8/../AVR8/../AVR8/Endpoint_AVR8.h **** 			 *  \note Endpoints must first be configured properly via \ref Endpoint_ConfigureEndpoint().
 350:../../LUFA-111009/LUFA/Drivers/USB/Core/AVR8/../AVR8/../AVR8/Endpoint_AVR8.h **** 			 */
 351:../../LUFA-111009/LUFA/Drivers/USB/Core/AVR8/../AVR8/../AVR8/Endpoint_AVR8.h **** 			static inline void Endpoint_EnableEndpoint(void) ATTR_ALWAYS_INLINE;
 352:../../LUFA-111009/LUFA/Drivers/USB/Core/AVR8/../AVR8/../AVR8/Endpoint_AVR8.h **** 			static inline void Endpoint_EnableEndpoint(void)
 353:../../LUFA-111009/LUFA/Drivers/USB/Core/AVR8/../AVR8/../AVR8/Endpoint_AVR8.h **** 			{
 354:../../LUFA-111009/LUFA/Drivers/USB/Core/AVR8/../AVR8/../AVR8/Endpoint_AVR8.h **** 				UECONX |= (1 << EPEN);
 355:../../LUFA-111009/LUFA/Drivers/USB/Core/AVR8/../AVR8/../AVR8/Endpoint_AVR8.h **** 			}
 356:../../LUFA-111009/LUFA/Drivers/USB/Core/AVR8/../AVR8/../AVR8/Endpoint_AVR8.h **** 
 357:../../LUFA-111009/LUFA/Drivers/USB/Core/AVR8/../AVR8/../AVR8/Endpoint_AVR8.h **** 			/** Disables the currently selected endpoint so that data cannot be sent and received through it
 358:../../LUFA-111009/LUFA/Drivers/USB/Core/AVR8/../AVR8/../AVR8/Endpoint_AVR8.h **** 			 *  to and from a host.
 359:../../LUFA-111009/LUFA/Drivers/USB/Core/AVR8/../AVR8/../AVR8/Endpoint_AVR8.h **** 			 */
 360:../../LUFA-111009/LUFA/Drivers/USB/Core/AVR8/../AVR8/../AVR8/Endpoint_AVR8.h **** 			static inline void Endpoint_DisableEndpoint(void) ATTR_ALWAYS_INLINE;
 361:../../LUFA-111009/LUFA/Drivers/USB/Core/AVR8/../AVR8/../AVR8/Endpoint_AVR8.h **** 			static inline void Endpoint_DisableEndpoint(void)
 362:../../LUFA-111009/LUFA/Drivers/USB/Core/AVR8/../AVR8/../AVR8/Endpoint_AVR8.h **** 			{
 363:../../LUFA-111009/LUFA/Drivers/USB/Core/AVR8/../AVR8/../AVR8/Endpoint_AVR8.h **** 				UECONX &= ~(1 << EPEN);
 364:../../LUFA-111009/LUFA/Drivers/USB/Core/AVR8/../AVR8/../AVR8/Endpoint_AVR8.h **** 			}
 365:../../LUFA-111009/LUFA/Drivers/USB/Core/AVR8/../AVR8/../AVR8/Endpoint_AVR8.h **** 
 366:../../LUFA-111009/LUFA/Drivers/USB/Core/AVR8/../AVR8/../AVR8/Endpoint_AVR8.h **** 			/** Determines if the currently selected endpoint is enabled, but not necessarily configured.
 367:../../LUFA-111009/LUFA/Drivers/USB/Core/AVR8/../AVR8/../AVR8/Endpoint_AVR8.h **** 			 *
 368:../../LUFA-111009/LUFA/Drivers/USB/Core/AVR8/../AVR8/../AVR8/Endpoint_AVR8.h **** 			 * \return Boolean \c true if the currently selected endpoint is enabled, \c false otherwise.
 369:../../LUFA-111009/LUFA/Drivers/USB/Core/AVR8/../AVR8/../AVR8/Endpoint_AVR8.h **** 			 */
 370:../../LUFA-111009/LUFA/Drivers/USB/Core/AVR8/../AVR8/../AVR8/Endpoint_AVR8.h **** 			static inline bool Endpoint_IsEnabled(void) ATTR_WARN_UNUSED_RESULT ATTR_ALWAYS_INLINE;
 371:../../LUFA-111009/LUFA/Drivers/USB/Core/AVR8/../AVR8/../AVR8/Endpoint_AVR8.h **** 			static inline bool Endpoint_IsEnabled(void)
 372:../../LUFA-111009/LUFA/Drivers/USB/Core/AVR8/../AVR8/../AVR8/Endpoint_AVR8.h **** 			{
 373:../../LUFA-111009/LUFA/Drivers/USB/Core/AVR8/../AVR8/../AVR8/Endpoint_AVR8.h **** 				return ((UECONX & (1 << EPEN)) ? true : false);
 374:../../LUFA-111009/LUFA/Drivers/USB/Core/AVR8/../AVR8/../AVR8/Endpoint_AVR8.h **** 			}
 375:../../LUFA-111009/LUFA/Drivers/USB/Core/AVR8/../AVR8/../AVR8/Endpoint_AVR8.h **** 
 376:../../LUFA-111009/LUFA/Drivers/USB/Core/AVR8/../AVR8/../AVR8/Endpoint_AVR8.h **** 			/** Retrieves the number of busy banks in the currently selected endpoint, which have been queue
 377:../../LUFA-111009/LUFA/Drivers/USB/Core/AVR8/../AVR8/../AVR8/Endpoint_AVR8.h **** 			 *  transmission via the \ref Endpoint_ClearIN() command, or are awaiting acknowledgement via th
 378:../../LUFA-111009/LUFA/Drivers/USB/Core/AVR8/../AVR8/../AVR8/Endpoint_AVR8.h **** 			 *  \ref Endpoint_ClearOUT() command.
 379:../../LUFA-111009/LUFA/Drivers/USB/Core/AVR8/../AVR8/../AVR8/Endpoint_AVR8.h **** 			 *
 380:../../LUFA-111009/LUFA/Drivers/USB/Core/AVR8/../AVR8/../AVR8/Endpoint_AVR8.h **** 			 *  \ingroup Group_EndpointPacketManagement_AVR8
 381:../../LUFA-111009/LUFA/Drivers/USB/Core/AVR8/../AVR8/../AVR8/Endpoint_AVR8.h **** 			 *
 382:../../LUFA-111009/LUFA/Drivers/USB/Core/AVR8/../AVR8/../AVR8/Endpoint_AVR8.h **** 			 *  \return Total number of busy banks in the selected endpoint.
 383:../../LUFA-111009/LUFA/Drivers/USB/Core/AVR8/../AVR8/../AVR8/Endpoint_AVR8.h **** 			 */
 384:../../LUFA-111009/LUFA/Drivers/USB/Core/AVR8/../AVR8/../AVR8/Endpoint_AVR8.h **** 			static inline uint8_t Endpoint_GetBusyBanks(void) ATTR_ALWAYS_INLINE ATTR_WARN_UNUSED_RESULT;
 385:../../LUFA-111009/LUFA/Drivers/USB/Core/AVR8/../AVR8/../AVR8/Endpoint_AVR8.h **** 			static inline uint8_t Endpoint_GetBusyBanks(void)
 386:../../LUFA-111009/LUFA/Drivers/USB/Core/AVR8/../AVR8/../AVR8/Endpoint_AVR8.h **** 			{
 387:../../LUFA-111009/LUFA/Drivers/USB/Core/AVR8/../AVR8/../AVR8/Endpoint_AVR8.h **** 				return (UESTA0X & (0x03 << NBUSYBK0));
 388:../../LUFA-111009/LUFA/Drivers/USB/Core/AVR8/../AVR8/../AVR8/Endpoint_AVR8.h **** 			}
 389:../../LUFA-111009/LUFA/Drivers/USB/Core/AVR8/../AVR8/../AVR8/Endpoint_AVR8.h **** 
 390:../../LUFA-111009/LUFA/Drivers/USB/Core/AVR8/../AVR8/../AVR8/Endpoint_AVR8.h **** 			/** Aborts all pending IN transactions on the currently selected endpoint, once the bank
 391:../../LUFA-111009/LUFA/Drivers/USB/Core/AVR8/../AVR8/../AVR8/Endpoint_AVR8.h **** 			 *  has been queued for transmission to the host via \ref Endpoint_ClearIN(). This function
 392:../../LUFA-111009/LUFA/Drivers/USB/Core/AVR8/../AVR8/../AVR8/Endpoint_AVR8.h **** 			 *  will terminate all queued transactions, resetting the endpoint banks ready for a new
 393:../../LUFA-111009/LUFA/Drivers/USB/Core/AVR8/../AVR8/../AVR8/Endpoint_AVR8.h **** 			 *  packet.
 394:../../LUFA-111009/LUFA/Drivers/USB/Core/AVR8/../AVR8/../AVR8/Endpoint_AVR8.h **** 			 *
 395:../../LUFA-111009/LUFA/Drivers/USB/Core/AVR8/../AVR8/../AVR8/Endpoint_AVR8.h **** 			 *  \ingroup Group_EndpointPacketManagement_AVR8
 396:../../LUFA-111009/LUFA/Drivers/USB/Core/AVR8/../AVR8/../AVR8/Endpoint_AVR8.h **** 			 */
 397:../../LUFA-111009/LUFA/Drivers/USB/Core/AVR8/../AVR8/../AVR8/Endpoint_AVR8.h **** 			static inline void Endpoint_AbortPendingIN(void)
 398:../../LUFA-111009/LUFA/Drivers/USB/Core/AVR8/../AVR8/../AVR8/Endpoint_AVR8.h **** 			{
 399:../../LUFA-111009/LUFA/Drivers/USB/Core/AVR8/../AVR8/../AVR8/Endpoint_AVR8.h **** 				while (Endpoint_GetBusyBanks() != 0)
 400:../../LUFA-111009/LUFA/Drivers/USB/Core/AVR8/../AVR8/../AVR8/Endpoint_AVR8.h **** 				{
 401:../../LUFA-111009/LUFA/Drivers/USB/Core/AVR8/../AVR8/../AVR8/Endpoint_AVR8.h **** 					UEINTX |= (1 << RXOUTI);
 402:../../LUFA-111009/LUFA/Drivers/USB/Core/AVR8/../AVR8/../AVR8/Endpoint_AVR8.h **** 					while (UEINTX & (1 << RXOUTI));
 403:../../LUFA-111009/LUFA/Drivers/USB/Core/AVR8/../AVR8/../AVR8/Endpoint_AVR8.h **** 				}
 404:../../LUFA-111009/LUFA/Drivers/USB/Core/AVR8/../AVR8/../AVR8/Endpoint_AVR8.h **** 			}
 405:../../LUFA-111009/LUFA/Drivers/USB/Core/AVR8/../AVR8/../AVR8/Endpoint_AVR8.h **** 
 406:../../LUFA-111009/LUFA/Drivers/USB/Core/AVR8/../AVR8/../AVR8/Endpoint_AVR8.h **** 			/** Determines if the currently selected endpoint may be read from (if data is waiting in the en
 407:../../LUFA-111009/LUFA/Drivers/USB/Core/AVR8/../AVR8/../AVR8/Endpoint_AVR8.h **** 			 *  bank and the endpoint is an OUT direction, or if the bank is not yet full if the endpoint is
 408:../../LUFA-111009/LUFA/Drivers/USB/Core/AVR8/../AVR8/../AVR8/Endpoint_AVR8.h **** 			 *  direction). This function will return false if an error has occurred in the endpoint, if the
 409:../../LUFA-111009/LUFA/Drivers/USB/Core/AVR8/../AVR8/../AVR8/Endpoint_AVR8.h **** 			 *  is an OUT direction and no packet (or an empty packet) has been received, or if the endpoint
 410:../../LUFA-111009/LUFA/Drivers/USB/Core/AVR8/../AVR8/../AVR8/Endpoint_AVR8.h **** 			 *  direction and the endpoint bank is full.
 411:../../LUFA-111009/LUFA/Drivers/USB/Core/AVR8/../AVR8/../AVR8/Endpoint_AVR8.h **** 			 *
 412:../../LUFA-111009/LUFA/Drivers/USB/Core/AVR8/../AVR8/../AVR8/Endpoint_AVR8.h **** 			 *  \ingroup Group_EndpointPacketManagement_AVR8
 413:../../LUFA-111009/LUFA/Drivers/USB/Core/AVR8/../AVR8/../AVR8/Endpoint_AVR8.h **** 			 *
 414:../../LUFA-111009/LUFA/Drivers/USB/Core/AVR8/../AVR8/../AVR8/Endpoint_AVR8.h **** 			 *  \return Boolean \c true if the currently selected endpoint may be read from or written to, d
 415:../../LUFA-111009/LUFA/Drivers/USB/Core/AVR8/../AVR8/../AVR8/Endpoint_AVR8.h **** 			 *          on its direction.
 416:../../LUFA-111009/LUFA/Drivers/USB/Core/AVR8/../AVR8/../AVR8/Endpoint_AVR8.h **** 			 */
 417:../../LUFA-111009/LUFA/Drivers/USB/Core/AVR8/../AVR8/../AVR8/Endpoint_AVR8.h **** 			static inline bool Endpoint_IsReadWriteAllowed(void) ATTR_WARN_UNUSED_RESULT ATTR_ALWAYS_INLINE;
 418:../../LUFA-111009/LUFA/Drivers/USB/Core/AVR8/../AVR8/../AVR8/Endpoint_AVR8.h **** 			static inline bool Endpoint_IsReadWriteAllowed(void)
 419:../../LUFA-111009/LUFA/Drivers/USB/Core/AVR8/../AVR8/../AVR8/Endpoint_AVR8.h **** 			{
 420:../../LUFA-111009/LUFA/Drivers/USB/Core/AVR8/../AVR8/../AVR8/Endpoint_AVR8.h **** 				return ((UEINTX & (1 << RWAL)) ? true : false);
  79               		.loc 2 420 0
  80 0030 8091 E800 		lds r24,232
  81               	.LBE257:
  82               	.LBE256:
  52:../../LUFA-111009/LUFA/Drivers/USB/Core/AVR8/EndpointStream_AVR8.c **** 	{
  53:../../LUFA-111009/LUFA/Drivers/USB/Core/AVR8/EndpointStream_AVR8.c **** 		if (!(Endpoint_IsReadWriteAllowed()))
  83               		.loc 1 53 0
  84 0034 85FD      		sbrc r24,5
  85 0036 00C0      		rjmp .L5
  86               	.LBB258:
  87               	.LBB259:
 421:../../LUFA-111009/LUFA/Drivers/USB/Core/AVR8/../AVR8/../AVR8/Endpoint_AVR8.h **** 			}
 422:../../LUFA-111009/LUFA/Drivers/USB/Core/AVR8/../AVR8/../AVR8/Endpoint_AVR8.h **** 
 423:../../LUFA-111009/LUFA/Drivers/USB/Core/AVR8/../AVR8/../AVR8/Endpoint_AVR8.h **** 			/** Determines if the currently selected endpoint is configured.
 424:../../LUFA-111009/LUFA/Drivers/USB/Core/AVR8/../AVR8/../AVR8/Endpoint_AVR8.h **** 			 *
 425:../../LUFA-111009/LUFA/Drivers/USB/Core/AVR8/../AVR8/../AVR8/Endpoint_AVR8.h **** 			 *  \return Boolean \c true if the currently selected endpoint has been configured, \c false oth
 426:../../LUFA-111009/LUFA/Drivers/USB/Core/AVR8/../AVR8/../AVR8/Endpoint_AVR8.h **** 			 */
 427:../../LUFA-111009/LUFA/Drivers/USB/Core/AVR8/../AVR8/../AVR8/Endpoint_AVR8.h **** 			static inline bool Endpoint_IsConfigured(void) ATTR_WARN_UNUSED_RESULT ATTR_ALWAYS_INLINE;
 428:../../LUFA-111009/LUFA/Drivers/USB/Core/AVR8/../AVR8/../AVR8/Endpoint_AVR8.h **** 			static inline bool Endpoint_IsConfigured(void)
 429:../../LUFA-111009/LUFA/Drivers/USB/Core/AVR8/../AVR8/../AVR8/Endpoint_AVR8.h **** 			{
 430:../../LUFA-111009/LUFA/Drivers/USB/Core/AVR8/../AVR8/../AVR8/Endpoint_AVR8.h **** 				return ((UESTA0X & (1 << CFGOK)) ? true : false);
 431:../../LUFA-111009/LUFA/Drivers/USB/Core/AVR8/../AVR8/../AVR8/Endpoint_AVR8.h **** 			}
 432:../../LUFA-111009/LUFA/Drivers/USB/Core/AVR8/../AVR8/../AVR8/Endpoint_AVR8.h **** 
 433:../../LUFA-111009/LUFA/Drivers/USB/Core/AVR8/../AVR8/../AVR8/Endpoint_AVR8.h **** 			/** Returns a mask indicating which INTERRUPT type endpoints have interrupted - i.e. their
 434:../../LUFA-111009/LUFA/Drivers/USB/Core/AVR8/../AVR8/../AVR8/Endpoint_AVR8.h **** 			 *  interrupt duration has elapsed. Which endpoints have interrupted can be determined by
 435:../../LUFA-111009/LUFA/Drivers/USB/Core/AVR8/../AVR8/../AVR8/Endpoint_AVR8.h **** 			 *  masking the return value against <tt>(1 << <i>{Endpoint Number}</i>)</tt>.
 436:../../LUFA-111009/LUFA/Drivers/USB/Core/AVR8/../AVR8/../AVR8/Endpoint_AVR8.h **** 			 *
 437:../../LUFA-111009/LUFA/Drivers/USB/Core/AVR8/../AVR8/../AVR8/Endpoint_AVR8.h **** 			 *  \return Mask whose bits indicate which endpoints have interrupted.
 438:../../LUFA-111009/LUFA/Drivers/USB/Core/AVR8/../AVR8/../AVR8/Endpoint_AVR8.h **** 			 */
 439:../../LUFA-111009/LUFA/Drivers/USB/Core/AVR8/../AVR8/../AVR8/Endpoint_AVR8.h **** 			static inline uint8_t Endpoint_GetEndpointInterrupts(void) ATTR_WARN_UNUSED_RESULT ATTR_ALWAYS_I
 440:../../LUFA-111009/LUFA/Drivers/USB/Core/AVR8/../AVR8/../AVR8/Endpoint_AVR8.h **** 			static inline uint8_t Endpoint_GetEndpointInterrupts(void)
 441:../../LUFA-111009/LUFA/Drivers/USB/Core/AVR8/../AVR8/../AVR8/Endpoint_AVR8.h **** 			{
 442:../../LUFA-111009/LUFA/Drivers/USB/Core/AVR8/../AVR8/../AVR8/Endpoint_AVR8.h **** 				return UEINT;
 443:../../LUFA-111009/LUFA/Drivers/USB/Core/AVR8/../AVR8/../AVR8/Endpoint_AVR8.h **** 			}
 444:../../LUFA-111009/LUFA/Drivers/USB/Core/AVR8/../AVR8/../AVR8/Endpoint_AVR8.h **** 
 445:../../LUFA-111009/LUFA/Drivers/USB/Core/AVR8/../AVR8/../AVR8/Endpoint_AVR8.h **** 			/** Determines if the specified endpoint number has interrupted (valid only for INTERRUPT type
 446:../../LUFA-111009/LUFA/Drivers/USB/Core/AVR8/../AVR8/../AVR8/Endpoint_AVR8.h **** 			 *  endpoints).
 447:../../LUFA-111009/LUFA/Drivers/USB/Core/AVR8/../AVR8/../AVR8/Endpoint_AVR8.h **** 			 *
 448:../../LUFA-111009/LUFA/Drivers/USB/Core/AVR8/../AVR8/../AVR8/Endpoint_AVR8.h **** 			 *  \param[in] EndpointNumber  Index of the endpoint whose interrupt flag should be tested.
 449:../../LUFA-111009/LUFA/Drivers/USB/Core/AVR8/../AVR8/../AVR8/Endpoint_AVR8.h **** 			 *
 450:../../LUFA-111009/LUFA/Drivers/USB/Core/AVR8/../AVR8/../AVR8/Endpoint_AVR8.h **** 			 *  \return Boolean \c true if the specified endpoint has interrupted, \c false otherwise.
 451:../../LUFA-111009/LUFA/Drivers/USB/Core/AVR8/../AVR8/../AVR8/Endpoint_AVR8.h **** 			 */
 452:../../LUFA-111009/LUFA/Drivers/USB/Core/AVR8/../AVR8/../AVR8/Endpoint_AVR8.h **** 			static inline bool Endpoint_HasEndpointInterrupted(const uint8_t EndpointNumber) ATTR_WARN_UNUSE
 453:../../LUFA-111009/LUFA/Drivers/USB/Core/AVR8/../AVR8/../AVR8/Endpoint_AVR8.h **** 			static inline bool Endpoint_HasEndpointInterrupted(const uint8_t EndpointNumber)
 454:../../LUFA-111009/LUFA/Drivers/USB/Core/AVR8/../AVR8/../AVR8/Endpoint_AVR8.h **** 			{
 455:../../LUFA-111009/LUFA/Drivers/USB/Core/AVR8/../AVR8/../AVR8/Endpoint_AVR8.h **** 				return ((Endpoint_GetEndpointInterrupts() & (1 << EndpointNumber)) ? true : false);
 456:../../LUFA-111009/LUFA/Drivers/USB/Core/AVR8/../AVR8/../AVR8/Endpoint_AVR8.h **** 			}
 457:../../LUFA-111009/LUFA/Drivers/USB/Core/AVR8/../AVR8/../AVR8/Endpoint_AVR8.h **** 
 458:../../LUFA-111009/LUFA/Drivers/USB/Core/AVR8/../AVR8/../AVR8/Endpoint_AVR8.h **** 			/** Determines if the selected IN endpoint is ready for a new packet to be sent to the host.
 459:../../LUFA-111009/LUFA/Drivers/USB/Core/AVR8/../AVR8/../AVR8/Endpoint_AVR8.h **** 			 *
 460:../../LUFA-111009/LUFA/Drivers/USB/Core/AVR8/../AVR8/../AVR8/Endpoint_AVR8.h **** 			 *  \ingroup Group_EndpointPacketManagement_AVR8
 461:../../LUFA-111009/LUFA/Drivers/USB/Core/AVR8/../AVR8/../AVR8/Endpoint_AVR8.h **** 			 *
 462:../../LUFA-111009/LUFA/Drivers/USB/Core/AVR8/../AVR8/../AVR8/Endpoint_AVR8.h **** 			 *  \return Boolean \c true if the current endpoint is ready for an IN packet, \c false otherwis
 463:../../LUFA-111009/LUFA/Drivers/USB/Core/AVR8/../AVR8/../AVR8/Endpoint_AVR8.h **** 			 */
 464:../../LUFA-111009/LUFA/Drivers/USB/Core/AVR8/../AVR8/../AVR8/Endpoint_AVR8.h **** 			static inline bool Endpoint_IsINReady(void) ATTR_WARN_UNUSED_RESULT ATTR_ALWAYS_INLINE;
 465:../../LUFA-111009/LUFA/Drivers/USB/Core/AVR8/../AVR8/../AVR8/Endpoint_AVR8.h **** 			static inline bool Endpoint_IsINReady(void)
 466:../../LUFA-111009/LUFA/Drivers/USB/Core/AVR8/../AVR8/../AVR8/Endpoint_AVR8.h **** 			{
 467:../../LUFA-111009/LUFA/Drivers/USB/Core/AVR8/../AVR8/../AVR8/Endpoint_AVR8.h **** 				return ((UEINTX & (1 << TXINI)) ? true : false);
 468:../../LUFA-111009/LUFA/Drivers/USB/Core/AVR8/../AVR8/../AVR8/Endpoint_AVR8.h **** 			}
 469:../../LUFA-111009/LUFA/Drivers/USB/Core/AVR8/../AVR8/../AVR8/Endpoint_AVR8.h **** 
 470:../../LUFA-111009/LUFA/Drivers/USB/Core/AVR8/../AVR8/../AVR8/Endpoint_AVR8.h **** 			/** Determines if the selected OUT endpoint has received new packet from the host.
 471:../../LUFA-111009/LUFA/Drivers/USB/Core/AVR8/../AVR8/../AVR8/Endpoint_AVR8.h **** 			 *
 472:../../LUFA-111009/LUFA/Drivers/USB/Core/AVR8/../AVR8/../AVR8/Endpoint_AVR8.h **** 			 *  \ingroup Group_EndpointPacketManagement_AVR8
 473:../../LUFA-111009/LUFA/Drivers/USB/Core/AVR8/../AVR8/../AVR8/Endpoint_AVR8.h **** 			 *
 474:../../LUFA-111009/LUFA/Drivers/USB/Core/AVR8/../AVR8/../AVR8/Endpoint_AVR8.h **** 			 *  \return Boolean \c true if current endpoint is has received an OUT packet, \c false otherwis
 475:../../LUFA-111009/LUFA/Drivers/USB/Core/AVR8/../AVR8/../AVR8/Endpoint_AVR8.h **** 			 */
 476:../../LUFA-111009/LUFA/Drivers/USB/Core/AVR8/../AVR8/../AVR8/Endpoint_AVR8.h **** 			static inline bool Endpoint_IsOUTReceived(void) ATTR_WARN_UNUSED_RESULT ATTR_ALWAYS_INLINE;
 477:../../LUFA-111009/LUFA/Drivers/USB/Core/AVR8/../AVR8/../AVR8/Endpoint_AVR8.h **** 			static inline bool Endpoint_IsOUTReceived(void)
 478:../../LUFA-111009/LUFA/Drivers/USB/Core/AVR8/../AVR8/../AVR8/Endpoint_AVR8.h **** 			{
 479:../../LUFA-111009/LUFA/Drivers/USB/Core/AVR8/../AVR8/../AVR8/Endpoint_AVR8.h **** 				return ((UEINTX & (1 << RXOUTI)) ? true : false);
 480:../../LUFA-111009/LUFA/Drivers/USB/Core/AVR8/../AVR8/../AVR8/Endpoint_AVR8.h **** 			}
 481:../../LUFA-111009/LUFA/Drivers/USB/Core/AVR8/../AVR8/../AVR8/Endpoint_AVR8.h **** 
 482:../../LUFA-111009/LUFA/Drivers/USB/Core/AVR8/../AVR8/../AVR8/Endpoint_AVR8.h **** 			/** Determines if the current CONTROL type endpoint has received a SETUP packet.
 483:../../LUFA-111009/LUFA/Drivers/USB/Core/AVR8/../AVR8/../AVR8/Endpoint_AVR8.h **** 			 *
 484:../../LUFA-111009/LUFA/Drivers/USB/Core/AVR8/../AVR8/../AVR8/Endpoint_AVR8.h **** 			 *  \ingroup Group_EndpointPacketManagement_AVR8
 485:../../LUFA-111009/LUFA/Drivers/USB/Core/AVR8/../AVR8/../AVR8/Endpoint_AVR8.h **** 			 *
 486:../../LUFA-111009/LUFA/Drivers/USB/Core/AVR8/../AVR8/../AVR8/Endpoint_AVR8.h **** 			 *  \return Boolean \c true if the selected endpoint has received a SETUP packet, \c false other
 487:../../LUFA-111009/LUFA/Drivers/USB/Core/AVR8/../AVR8/../AVR8/Endpoint_AVR8.h **** 			 */
 488:../../LUFA-111009/LUFA/Drivers/USB/Core/AVR8/../AVR8/../AVR8/Endpoint_AVR8.h **** 			static inline bool Endpoint_IsSETUPReceived(void) ATTR_WARN_UNUSED_RESULT ATTR_ALWAYS_INLINE;
 489:../../LUFA-111009/LUFA/Drivers/USB/Core/AVR8/../AVR8/../AVR8/Endpoint_AVR8.h **** 			static inline bool Endpoint_IsSETUPReceived(void)
 490:../../LUFA-111009/LUFA/Drivers/USB/Core/AVR8/../AVR8/../AVR8/Endpoint_AVR8.h **** 			{
 491:../../LUFA-111009/LUFA/Drivers/USB/Core/AVR8/../AVR8/../AVR8/Endpoint_AVR8.h **** 				return ((UEINTX & (1 << RXSTPI)) ? true : false);
 492:../../LUFA-111009/LUFA/Drivers/USB/Core/AVR8/../AVR8/../AVR8/Endpoint_AVR8.h **** 			}
 493:../../LUFA-111009/LUFA/Drivers/USB/Core/AVR8/../AVR8/../AVR8/Endpoint_AVR8.h **** 
 494:../../LUFA-111009/LUFA/Drivers/USB/Core/AVR8/../AVR8/../AVR8/Endpoint_AVR8.h **** 			/** Clears a received SETUP packet on the currently selected CONTROL type endpoint, freeing up t
 495:../../LUFA-111009/LUFA/Drivers/USB/Core/AVR8/../AVR8/../AVR8/Endpoint_AVR8.h **** 			 *  endpoint for the next packet.
 496:../../LUFA-111009/LUFA/Drivers/USB/Core/AVR8/../AVR8/../AVR8/Endpoint_AVR8.h **** 			 *
 497:../../LUFA-111009/LUFA/Drivers/USB/Core/AVR8/../AVR8/../AVR8/Endpoint_AVR8.h **** 			 *  \ingroup Group_EndpointPacketManagement_AVR8
 498:../../LUFA-111009/LUFA/Drivers/USB/Core/AVR8/../AVR8/../AVR8/Endpoint_AVR8.h **** 			 *
 499:../../LUFA-111009/LUFA/Drivers/USB/Core/AVR8/../AVR8/../AVR8/Endpoint_AVR8.h **** 			 *  \note This is not applicable for non CONTROL type endpoints.
 500:../../LUFA-111009/LUFA/Drivers/USB/Core/AVR8/../AVR8/../AVR8/Endpoint_AVR8.h **** 			 */
 501:../../LUFA-111009/LUFA/Drivers/USB/Core/AVR8/../AVR8/../AVR8/Endpoint_AVR8.h **** 			static inline void Endpoint_ClearSETUP(void) ATTR_ALWAYS_INLINE;
 502:../../LUFA-111009/LUFA/Drivers/USB/Core/AVR8/../AVR8/../AVR8/Endpoint_AVR8.h **** 			static inline void Endpoint_ClearSETUP(void)
 503:../../LUFA-111009/LUFA/Drivers/USB/Core/AVR8/../AVR8/../AVR8/Endpoint_AVR8.h **** 			{
 504:../../LUFA-111009/LUFA/Drivers/USB/Core/AVR8/../AVR8/../AVR8/Endpoint_AVR8.h **** 				UEINTX &= ~(1 << RXSTPI);
 505:../../LUFA-111009/LUFA/Drivers/USB/Core/AVR8/../AVR8/../AVR8/Endpoint_AVR8.h **** 			}
 506:../../LUFA-111009/LUFA/Drivers/USB/Core/AVR8/../AVR8/../AVR8/Endpoint_AVR8.h **** 
 507:../../LUFA-111009/LUFA/Drivers/USB/Core/AVR8/../AVR8/../AVR8/Endpoint_AVR8.h **** 			/** Sends an IN packet to the host on the currently selected endpoint, freeing up the endpoint f
 508:../../LUFA-111009/LUFA/Drivers/USB/Core/AVR8/../AVR8/../AVR8/Endpoint_AVR8.h **** 			 *  next packet and switching to the alternative endpoint bank if double banked.
 509:../../LUFA-111009/LUFA/Drivers/USB/Core/AVR8/../AVR8/../AVR8/Endpoint_AVR8.h **** 			 *
 510:../../LUFA-111009/LUFA/Drivers/USB/Core/AVR8/../AVR8/../AVR8/Endpoint_AVR8.h **** 			 *  \ingroup Group_EndpointPacketManagement_AVR8
 511:../../LUFA-111009/LUFA/Drivers/USB/Core/AVR8/../AVR8/../AVR8/Endpoint_AVR8.h **** 			 */
 512:../../LUFA-111009/LUFA/Drivers/USB/Core/AVR8/../AVR8/../AVR8/Endpoint_AVR8.h **** 			static inline void Endpoint_ClearIN(void) ATTR_ALWAYS_INLINE;
 513:../../LUFA-111009/LUFA/Drivers/USB/Core/AVR8/../AVR8/../AVR8/Endpoint_AVR8.h **** 			static inline void Endpoint_ClearIN(void)
 514:../../LUFA-111009/LUFA/Drivers/USB/Core/AVR8/../AVR8/../AVR8/Endpoint_AVR8.h **** 			{
 515:../../LUFA-111009/LUFA/Drivers/USB/Core/AVR8/../AVR8/../AVR8/Endpoint_AVR8.h **** 				#if !defined(CONTROL_ONLY_DEVICE)
 516:../../LUFA-111009/LUFA/Drivers/USB/Core/AVR8/../AVR8/../AVR8/Endpoint_AVR8.h **** 					UEINTX &= ~((1 << TXINI) | (1 << FIFOCON));
 517:../../LUFA-111009/LUFA/Drivers/USB/Core/AVR8/../AVR8/../AVR8/Endpoint_AVR8.h **** 				#else
 518:../../LUFA-111009/LUFA/Drivers/USB/Core/AVR8/../AVR8/../AVR8/Endpoint_AVR8.h **** 					UEINTX &= ~(1 << TXINI);
 519:../../LUFA-111009/LUFA/Drivers/USB/Core/AVR8/../AVR8/../AVR8/Endpoint_AVR8.h **** 				#endif
 520:../../LUFA-111009/LUFA/Drivers/USB/Core/AVR8/../AVR8/../AVR8/Endpoint_AVR8.h **** 			}
 521:../../LUFA-111009/LUFA/Drivers/USB/Core/AVR8/../AVR8/../AVR8/Endpoint_AVR8.h **** 
 522:../../LUFA-111009/LUFA/Drivers/USB/Core/AVR8/../AVR8/../AVR8/Endpoint_AVR8.h **** 			/** Acknowledges an OUT packet to the host on the currently selected endpoint, freeing up the en
 523:../../LUFA-111009/LUFA/Drivers/USB/Core/AVR8/../AVR8/../AVR8/Endpoint_AVR8.h **** 			 *  for the next packet and switching to the alternative endpoint bank if double banked.
 524:../../LUFA-111009/LUFA/Drivers/USB/Core/AVR8/../AVR8/../AVR8/Endpoint_AVR8.h **** 			 *
 525:../../LUFA-111009/LUFA/Drivers/USB/Core/AVR8/../AVR8/../AVR8/Endpoint_AVR8.h **** 			 *  \ingroup Group_EndpointPacketManagement_AVR8
 526:../../LUFA-111009/LUFA/Drivers/USB/Core/AVR8/../AVR8/../AVR8/Endpoint_AVR8.h **** 			 */
 527:../../LUFA-111009/LUFA/Drivers/USB/Core/AVR8/../AVR8/../AVR8/Endpoint_AVR8.h **** 			static inline void Endpoint_ClearOUT(void) ATTR_ALWAYS_INLINE;
 528:../../LUFA-111009/LUFA/Drivers/USB/Core/AVR8/../AVR8/../AVR8/Endpoint_AVR8.h **** 			static inline void Endpoint_ClearOUT(void)
 529:../../LUFA-111009/LUFA/Drivers/USB/Core/AVR8/../AVR8/../AVR8/Endpoint_AVR8.h **** 			{
 530:../../LUFA-111009/LUFA/Drivers/USB/Core/AVR8/../AVR8/../AVR8/Endpoint_AVR8.h **** 				#if !defined(CONTROL_ONLY_DEVICE)
 531:../../LUFA-111009/LUFA/Drivers/USB/Core/AVR8/../AVR8/../AVR8/Endpoint_AVR8.h **** 					UEINTX &= ~((1 << RXOUTI) | (1 << FIFOCON));
  88               		.loc 2 531 0
  89 0038 8091 E800 		lds r24,232
  90 003c 8B77      		andi r24,lo8(123)
  91 003e 8093 E800 		sts 232,r24
  92               	.LBE259:
  93               	.LBE258:
  54:../../LUFA-111009/LUFA/Drivers/USB/Core/AVR8/EndpointStream_AVR8.c **** 		{
  55:../../LUFA-111009/LUFA/Drivers/USB/Core/AVR8/EndpointStream_AVR8.c **** 			Endpoint_ClearOUT();
  56:../../LUFA-111009/LUFA/Drivers/USB/Core/AVR8/EndpointStream_AVR8.c **** 
  57:../../LUFA-111009/LUFA/Drivers/USB/Core/AVR8/EndpointStream_AVR8.c **** 			if (BytesProcessed != NULL)
  94               		.loc 1 57 0
  95 0042 0115      		cp r16,__zero_reg__
  96 0044 1105      		cpc r17,__zero_reg__
  97 0046 01F0      		breq .L6
  58:../../LUFA-111009/LUFA/Drivers/USB/Core/AVR8/EndpointStream_AVR8.c **** 			{
  59:../../LUFA-111009/LUFA/Drivers/USB/Core/AVR8/EndpointStream_AVR8.c **** 				*BytesProcessed += BytesInTransfer;
  98               		.loc 1 59 0
  99 0048 F801      		movw r30,r16
 100 004a 8081      		ld r24,Z
 101 004c 9181      		ldd r25,Z+1
 102 004e E80E      		add r14,r24
 103 0050 F91E      		adc r15,r25
 104               	.LVL6:
 105 0052 F182      		std Z+1,r15
 106 0054 E082      		st Z,r14
  60:../../LUFA-111009/LUFA/Drivers/USB/Core/AVR8/EndpointStream_AVR8.c **** 				return ENDPOINT_RWSTREAM_IncompleteTransfer;
 107               		.loc 1 60 0
 108 0056 85E0      		ldi r24,lo8(5)
 109 0058 00C0      		rjmp .L2
 110               	.LVL7:
 111               	.L6:
  61:../../LUFA-111009/LUFA/Drivers/USB/Core/AVR8/EndpointStream_AVR8.c **** 			}
  62:../../LUFA-111009/LUFA/Drivers/USB/Core/AVR8/EndpointStream_AVR8.c **** 
  63:../../LUFA-111009/LUFA/Drivers/USB/Core/AVR8/EndpointStream_AVR8.c **** 			if ((ErrorCode = Endpoint_WaitUntilReady()))
 112               		.loc 1 63 0
 113 005a 0E94 0000 		call Endpoint_WaitUntilReady
 114               	.LVL8:
 115 005e 8823      		tst r24
 116 0060 01F0      		breq .L4
 117 0062 00C0      		rjmp .L2
 118               	.LVL9:
 119               	.L5:
 120               	.LBB260:
 121               	.LBB261:
 532:../../LUFA-111009/LUFA/Drivers/USB/Core/AVR8/../AVR8/../AVR8/Endpoint_AVR8.h **** 				#else
 533:../../LUFA-111009/LUFA/Drivers/USB/Core/AVR8/../AVR8/../AVR8/Endpoint_AVR8.h **** 					UEINTX &= ~(1 << RXOUTI);
 534:../../LUFA-111009/LUFA/Drivers/USB/Core/AVR8/../AVR8/../AVR8/Endpoint_AVR8.h **** 				#endif
 535:../../LUFA-111009/LUFA/Drivers/USB/Core/AVR8/../AVR8/../AVR8/Endpoint_AVR8.h **** 			}
 536:../../LUFA-111009/LUFA/Drivers/USB/Core/AVR8/../AVR8/../AVR8/Endpoint_AVR8.h **** 
 537:../../LUFA-111009/LUFA/Drivers/USB/Core/AVR8/../AVR8/../AVR8/Endpoint_AVR8.h **** 			/** Stalls the current endpoint, indicating to the host that a logical problem occurred with the
 538:../../LUFA-111009/LUFA/Drivers/USB/Core/AVR8/../AVR8/../AVR8/Endpoint_AVR8.h **** 			 *  indicated endpoint and that the current transfer sequence should be aborted. This provides a
 539:../../LUFA-111009/LUFA/Drivers/USB/Core/AVR8/../AVR8/../AVR8/Endpoint_AVR8.h **** 			 *  way for devices to indicate invalid commands to the host so that the current transfer can be
 540:../../LUFA-111009/LUFA/Drivers/USB/Core/AVR8/../AVR8/../AVR8/Endpoint_AVR8.h **** 			 *  aborted and the host can begin its own recovery sequence.
 541:../../LUFA-111009/LUFA/Drivers/USB/Core/AVR8/../AVR8/../AVR8/Endpoint_AVR8.h **** 			 *
 542:../../LUFA-111009/LUFA/Drivers/USB/Core/AVR8/../AVR8/../AVR8/Endpoint_AVR8.h **** 			 *  The currently selected endpoint remains stalled until either the \ref Endpoint_ClearStall() 
 543:../../LUFA-111009/LUFA/Drivers/USB/Core/AVR8/../AVR8/../AVR8/Endpoint_AVR8.h **** 			 *  is called, or the host issues a CLEAR FEATURE request to the device for the currently select
 544:../../LUFA-111009/LUFA/Drivers/USB/Core/AVR8/../AVR8/../AVR8/Endpoint_AVR8.h **** 			 *  endpoint.
 545:../../LUFA-111009/LUFA/Drivers/USB/Core/AVR8/../AVR8/../AVR8/Endpoint_AVR8.h **** 			 *
 546:../../LUFA-111009/LUFA/Drivers/USB/Core/AVR8/../AVR8/../AVR8/Endpoint_AVR8.h **** 			 *  \ingroup Group_EndpointPacketManagement_AVR8
 547:../../LUFA-111009/LUFA/Drivers/USB/Core/AVR8/../AVR8/../AVR8/Endpoint_AVR8.h **** 			 */
 548:../../LUFA-111009/LUFA/Drivers/USB/Core/AVR8/../AVR8/../AVR8/Endpoint_AVR8.h **** 			static inline void Endpoint_StallTransaction(void) ATTR_ALWAYS_INLINE;
 549:../../LUFA-111009/LUFA/Drivers/USB/Core/AVR8/../AVR8/../AVR8/Endpoint_AVR8.h **** 			static inline void Endpoint_StallTransaction(void)
 550:../../LUFA-111009/LUFA/Drivers/USB/Core/AVR8/../AVR8/../AVR8/Endpoint_AVR8.h **** 			{
 551:../../LUFA-111009/LUFA/Drivers/USB/Core/AVR8/../AVR8/../AVR8/Endpoint_AVR8.h **** 				UECONX |= (1 << STALLRQ);
 552:../../LUFA-111009/LUFA/Drivers/USB/Core/AVR8/../AVR8/../AVR8/Endpoint_AVR8.h **** 			}
 553:../../LUFA-111009/LUFA/Drivers/USB/Core/AVR8/../AVR8/../AVR8/Endpoint_AVR8.h **** 
 554:../../LUFA-111009/LUFA/Drivers/USB/Core/AVR8/../AVR8/../AVR8/Endpoint_AVR8.h **** 			/** Clears the STALL condition on the currently selected endpoint.
 555:../../LUFA-111009/LUFA/Drivers/USB/Core/AVR8/../AVR8/../AVR8/Endpoint_AVR8.h **** 			 *
 556:../../LUFA-111009/LUFA/Drivers/USB/Core/AVR8/../AVR8/../AVR8/Endpoint_AVR8.h **** 			 *  \ingroup Group_EndpointPacketManagement_AVR8
 557:../../LUFA-111009/LUFA/Drivers/USB/Core/AVR8/../AVR8/../AVR8/Endpoint_AVR8.h **** 			 */
 558:../../LUFA-111009/LUFA/Drivers/USB/Core/AVR8/../AVR8/../AVR8/Endpoint_AVR8.h **** 			static inline void Endpoint_ClearStall(void) ATTR_ALWAYS_INLINE;
 559:../../LUFA-111009/LUFA/Drivers/USB/Core/AVR8/../AVR8/../AVR8/Endpoint_AVR8.h **** 			static inline void Endpoint_ClearStall(void)
 560:../../LUFA-111009/LUFA/Drivers/USB/Core/AVR8/../AVR8/../AVR8/Endpoint_AVR8.h **** 			{
 561:../../LUFA-111009/LUFA/Drivers/USB/Core/AVR8/../AVR8/../AVR8/Endpoint_AVR8.h **** 				UECONX |= (1 << STALLRQC);
 562:../../LUFA-111009/LUFA/Drivers/USB/Core/AVR8/../AVR8/../AVR8/Endpoint_AVR8.h **** 			}
 563:../../LUFA-111009/LUFA/Drivers/USB/Core/AVR8/../AVR8/../AVR8/Endpoint_AVR8.h **** 
 564:../../LUFA-111009/LUFA/Drivers/USB/Core/AVR8/../AVR8/../AVR8/Endpoint_AVR8.h **** 			/** Determines if the currently selected endpoint is stalled, false otherwise.
 565:../../LUFA-111009/LUFA/Drivers/USB/Core/AVR8/../AVR8/../AVR8/Endpoint_AVR8.h **** 			 *
 566:../../LUFA-111009/LUFA/Drivers/USB/Core/AVR8/../AVR8/../AVR8/Endpoint_AVR8.h **** 			 *  \ingroup Group_EndpointPacketManagement_AVR8
 567:../../LUFA-111009/LUFA/Drivers/USB/Core/AVR8/../AVR8/../AVR8/Endpoint_AVR8.h **** 			 *
 568:../../LUFA-111009/LUFA/Drivers/USB/Core/AVR8/../AVR8/../AVR8/Endpoint_AVR8.h **** 			 *  \return Boolean \c true if the currently selected endpoint is stalled, \c false otherwise.
 569:../../LUFA-111009/LUFA/Drivers/USB/Core/AVR8/../AVR8/../AVR8/Endpoint_AVR8.h **** 			 */
 570:../../LUFA-111009/LUFA/Drivers/USB/Core/AVR8/../AVR8/../AVR8/Endpoint_AVR8.h **** 			static inline bool Endpoint_IsStalled(void) ATTR_WARN_UNUSED_RESULT ATTR_ALWAYS_INLINE;
 571:../../LUFA-111009/LUFA/Drivers/USB/Core/AVR8/../AVR8/../AVR8/Endpoint_AVR8.h **** 			static inline bool Endpoint_IsStalled(void)
 572:../../LUFA-111009/LUFA/Drivers/USB/Core/AVR8/../AVR8/../AVR8/Endpoint_AVR8.h **** 			{
 573:../../LUFA-111009/LUFA/Drivers/USB/Core/AVR8/../AVR8/../AVR8/Endpoint_AVR8.h **** 				return ((UECONX & (1 << STALLRQ)) ? true : false);
 574:../../LUFA-111009/LUFA/Drivers/USB/Core/AVR8/../AVR8/../AVR8/Endpoint_AVR8.h **** 			}
 575:../../LUFA-111009/LUFA/Drivers/USB/Core/AVR8/../AVR8/../AVR8/Endpoint_AVR8.h **** 
 576:../../LUFA-111009/LUFA/Drivers/USB/Core/AVR8/../AVR8/../AVR8/Endpoint_AVR8.h **** 			/** Resets the data toggle of the currently selected endpoint. */
 577:../../LUFA-111009/LUFA/Drivers/USB/Core/AVR8/../AVR8/../AVR8/Endpoint_AVR8.h **** 			static inline void Endpoint_ResetDataToggle(void) ATTR_ALWAYS_INLINE;
 578:../../LUFA-111009/LUFA/Drivers/USB/Core/AVR8/../AVR8/../AVR8/Endpoint_AVR8.h **** 			static inline void Endpoint_ResetDataToggle(void)
 579:../../LUFA-111009/LUFA/Drivers/USB/Core/AVR8/../AVR8/../AVR8/Endpoint_AVR8.h **** 			{
 580:../../LUFA-111009/LUFA/Drivers/USB/Core/AVR8/../AVR8/../AVR8/Endpoint_AVR8.h **** 				UECONX |= (1 << RSTDT);
 581:../../LUFA-111009/LUFA/Drivers/USB/Core/AVR8/../AVR8/../AVR8/Endpoint_AVR8.h **** 			}
 582:../../LUFA-111009/LUFA/Drivers/USB/Core/AVR8/../AVR8/../AVR8/Endpoint_AVR8.h **** 
 583:../../LUFA-111009/LUFA/Drivers/USB/Core/AVR8/../AVR8/../AVR8/Endpoint_AVR8.h **** 			/** Determines the currently selected endpoint's direction.
 584:../../LUFA-111009/LUFA/Drivers/USB/Core/AVR8/../AVR8/../AVR8/Endpoint_AVR8.h **** 			 *
 585:../../LUFA-111009/LUFA/Drivers/USB/Core/AVR8/../AVR8/../AVR8/Endpoint_AVR8.h **** 			 *  \return The currently selected endpoint's direction, as a \c ENDPOINT_DIR_* mask.
 586:../../LUFA-111009/LUFA/Drivers/USB/Core/AVR8/../AVR8/../AVR8/Endpoint_AVR8.h **** 			 */
 587:../../LUFA-111009/LUFA/Drivers/USB/Core/AVR8/../AVR8/../AVR8/Endpoint_AVR8.h **** 			static inline uint8_t Endpoint_GetEndpointDirection(void) ATTR_WARN_UNUSED_RESULT ATTR_ALWAYS_IN
 588:../../LUFA-111009/LUFA/Drivers/USB/Core/AVR8/../AVR8/../AVR8/Endpoint_AVR8.h **** 			static inline uint8_t Endpoint_GetEndpointDirection(void)
 589:../../LUFA-111009/LUFA/Drivers/USB/Core/AVR8/../AVR8/../AVR8/Endpoint_AVR8.h **** 			{
 590:../../LUFA-111009/LUFA/Drivers/USB/Core/AVR8/../AVR8/../AVR8/Endpoint_AVR8.h **** 				return (UECFG0X & (1 << EPDIR)) ? ENDPOINT_DIR_IN : ENDPOINT_DIR_OUT;
 591:../../LUFA-111009/LUFA/Drivers/USB/Core/AVR8/../AVR8/../AVR8/Endpoint_AVR8.h **** 			}
 592:../../LUFA-111009/LUFA/Drivers/USB/Core/AVR8/../AVR8/../AVR8/Endpoint_AVR8.h **** 
 593:../../LUFA-111009/LUFA/Drivers/USB/Core/AVR8/../AVR8/../AVR8/Endpoint_AVR8.h **** 			/** Sets the direction of the currently selected endpoint.
 594:../../LUFA-111009/LUFA/Drivers/USB/Core/AVR8/../AVR8/../AVR8/Endpoint_AVR8.h **** 			 *
 595:../../LUFA-111009/LUFA/Drivers/USB/Core/AVR8/../AVR8/../AVR8/Endpoint_AVR8.h **** 			 *  \param[in] DirectionMask  New endpoint direction, as a \c ENDPOINT_DIR_* mask.
 596:../../LUFA-111009/LUFA/Drivers/USB/Core/AVR8/../AVR8/../AVR8/Endpoint_AVR8.h **** 			 */
 597:../../LUFA-111009/LUFA/Drivers/USB/Core/AVR8/../AVR8/../AVR8/Endpoint_AVR8.h **** 			static inline void Endpoint_SetEndpointDirection(const uint8_t DirectionMask) ATTR_ALWAYS_INLINE
 598:../../LUFA-111009/LUFA/Drivers/USB/Core/AVR8/../AVR8/../AVR8/Endpoint_AVR8.h **** 			static inline void Endpoint_SetEndpointDirection(const uint8_t DirectionMask)
 599:../../LUFA-111009/LUFA/Drivers/USB/Core/AVR8/../AVR8/../AVR8/Endpoint_AVR8.h **** 			{
 600:../../LUFA-111009/LUFA/Drivers/USB/Core/AVR8/../AVR8/../AVR8/Endpoint_AVR8.h **** 				UECFG0X = ((UECFG0X & ~(1 << EPDIR)) | (DirectionMask ? (1 << EPDIR) : 0));
 601:../../LUFA-111009/LUFA/Drivers/USB/Core/AVR8/../AVR8/../AVR8/Endpoint_AVR8.h **** 			}
 602:../../LUFA-111009/LUFA/Drivers/USB/Core/AVR8/../AVR8/../AVR8/Endpoint_AVR8.h **** 
 603:../../LUFA-111009/LUFA/Drivers/USB/Core/AVR8/../AVR8/../AVR8/Endpoint_AVR8.h **** 			/** Reads one byte from the currently selected endpoint's bank, for OUT direction endpoints.
 604:../../LUFA-111009/LUFA/Drivers/USB/Core/AVR8/../AVR8/../AVR8/Endpoint_AVR8.h **** 			 *
 605:../../LUFA-111009/LUFA/Drivers/USB/Core/AVR8/../AVR8/../AVR8/Endpoint_AVR8.h **** 			 *  \ingroup Group_EndpointPrimitiveRW_AVR8
 606:../../LUFA-111009/LUFA/Drivers/USB/Core/AVR8/../AVR8/../AVR8/Endpoint_AVR8.h **** 			 *
 607:../../LUFA-111009/LUFA/Drivers/USB/Core/AVR8/../AVR8/../AVR8/Endpoint_AVR8.h **** 			 *  \return Next byte in the currently selected endpoint's FIFO buffer.
 608:../../LUFA-111009/LUFA/Drivers/USB/Core/AVR8/../AVR8/../AVR8/Endpoint_AVR8.h **** 			 */
 609:../../LUFA-111009/LUFA/Drivers/USB/Core/AVR8/../AVR8/../AVR8/Endpoint_AVR8.h **** 			static inline uint8_t Endpoint_Read_8(void) ATTR_WARN_UNUSED_RESULT ATTR_ALWAYS_INLINE;
 610:../../LUFA-111009/LUFA/Drivers/USB/Core/AVR8/../AVR8/../AVR8/Endpoint_AVR8.h **** 			static inline uint8_t Endpoint_Read_8(void)
 611:../../LUFA-111009/LUFA/Drivers/USB/Core/AVR8/../AVR8/../AVR8/Endpoint_AVR8.h **** 			{
 612:../../LUFA-111009/LUFA/Drivers/USB/Core/AVR8/../AVR8/../AVR8/Endpoint_AVR8.h **** 				return UEDATX;
 613:../../LUFA-111009/LUFA/Drivers/USB/Core/AVR8/../AVR8/../AVR8/Endpoint_AVR8.h **** 			}
 614:../../LUFA-111009/LUFA/Drivers/USB/Core/AVR8/../AVR8/../AVR8/Endpoint_AVR8.h **** 
 615:../../LUFA-111009/LUFA/Drivers/USB/Core/AVR8/../AVR8/../AVR8/Endpoint_AVR8.h **** 			/** Writes one byte to the currently selected endpoint's bank, for IN direction endpoints.
 616:../../LUFA-111009/LUFA/Drivers/USB/Core/AVR8/../AVR8/../AVR8/Endpoint_AVR8.h **** 			 *
 617:../../LUFA-111009/LUFA/Drivers/USB/Core/AVR8/../AVR8/../AVR8/Endpoint_AVR8.h **** 			 *  \ingroup Group_EndpointPrimitiveRW_AVR8
 618:../../LUFA-111009/LUFA/Drivers/USB/Core/AVR8/../AVR8/../AVR8/Endpoint_AVR8.h **** 			 *
 619:../../LUFA-111009/LUFA/Drivers/USB/Core/AVR8/../AVR8/../AVR8/Endpoint_AVR8.h **** 			 *  \param[in] Data  Data to write into the the currently selected endpoint's FIFO buffer.
 620:../../LUFA-111009/LUFA/Drivers/USB/Core/AVR8/../AVR8/../AVR8/Endpoint_AVR8.h **** 			 */
 621:../../LUFA-111009/LUFA/Drivers/USB/Core/AVR8/../AVR8/../AVR8/Endpoint_AVR8.h **** 			static inline void Endpoint_Write_8(const uint8_t Data) ATTR_ALWAYS_INLINE;
 622:../../LUFA-111009/LUFA/Drivers/USB/Core/AVR8/../AVR8/../AVR8/Endpoint_AVR8.h **** 			static inline void Endpoint_Write_8(const uint8_t Data)
 623:../../LUFA-111009/LUFA/Drivers/USB/Core/AVR8/../AVR8/../AVR8/Endpoint_AVR8.h **** 			{
 624:../../LUFA-111009/LUFA/Drivers/USB/Core/AVR8/../AVR8/../AVR8/Endpoint_AVR8.h **** 				UEDATX = Data;
 625:../../LUFA-111009/LUFA/Drivers/USB/Core/AVR8/../AVR8/../AVR8/Endpoint_AVR8.h **** 			}
 626:../../LUFA-111009/LUFA/Drivers/USB/Core/AVR8/../AVR8/../AVR8/Endpoint_AVR8.h **** 
 627:../../LUFA-111009/LUFA/Drivers/USB/Core/AVR8/../AVR8/../AVR8/Endpoint_AVR8.h **** 			/** Discards one byte from the currently selected endpoint's bank, for OUT direction endpoints.
 628:../../LUFA-111009/LUFA/Drivers/USB/Core/AVR8/../AVR8/../AVR8/Endpoint_AVR8.h **** 			 *
 629:../../LUFA-111009/LUFA/Drivers/USB/Core/AVR8/../AVR8/../AVR8/Endpoint_AVR8.h **** 			 *  \ingroup Group_EndpointPrimitiveRW_AVR8
 630:../../LUFA-111009/LUFA/Drivers/USB/Core/AVR8/../AVR8/../AVR8/Endpoint_AVR8.h **** 			 */
 631:../../LUFA-111009/LUFA/Drivers/USB/Core/AVR8/../AVR8/../AVR8/Endpoint_AVR8.h **** 			static inline void Endpoint_Discard_8(void) ATTR_ALWAYS_INLINE;
 632:../../LUFA-111009/LUFA/Drivers/USB/Core/AVR8/../AVR8/../AVR8/Endpoint_AVR8.h **** 			static inline void Endpoint_Discard_8(void)
 633:../../LUFA-111009/LUFA/Drivers/USB/Core/AVR8/../AVR8/../AVR8/Endpoint_AVR8.h **** 			{
 634:../../LUFA-111009/LUFA/Drivers/USB/Core/AVR8/../AVR8/../AVR8/Endpoint_AVR8.h **** 				uint8_t Dummy;
 635:../../LUFA-111009/LUFA/Drivers/USB/Core/AVR8/../AVR8/../AVR8/Endpoint_AVR8.h **** 
 636:../../LUFA-111009/LUFA/Drivers/USB/Core/AVR8/../AVR8/../AVR8/Endpoint_AVR8.h **** 				Dummy = UEDATX;
 122               		.loc 2 636 0
 123 0064 8091 F100 		lds r24,241
 124               	.LBE261:
 125               	.LBE260:
  64:../../LUFA-111009/LUFA/Drivers/USB/Core/AVR8/EndpointStream_AVR8.c **** 			  return ErrorCode;
  65:../../LUFA-111009/LUFA/Drivers/USB/Core/AVR8/EndpointStream_AVR8.c **** 		}
  66:../../LUFA-111009/LUFA/Drivers/USB/Core/AVR8/EndpointStream_AVR8.c **** 		else
  67:../../LUFA-111009/LUFA/Drivers/USB/Core/AVR8/EndpointStream_AVR8.c **** 		{
  68:../../LUFA-111009/LUFA/Drivers/USB/Core/AVR8/EndpointStream_AVR8.c **** 			Endpoint_Discard_8();
  69:../../LUFA-111009/LUFA/Drivers/USB/Core/AVR8/EndpointStream_AVR8.c **** 
  70:../../LUFA-111009/LUFA/Drivers/USB/Core/AVR8/EndpointStream_AVR8.c **** 			Length--;
 126               		.loc 1 70 0
 127 0068 2197      		sbiw r28,1
 128               	.LVL10:
  71:../../LUFA-111009/LUFA/Drivers/USB/Core/AVR8/EndpointStream_AVR8.c **** 			BytesInTransfer++;
 129               		.loc 1 71 0
 130 006a FFEF      		ldi r31,-1
 131 006c EF1A      		sub r14,r31
 132 006e FF0A      		sbc r15,r31
 133               	.LVL11:
 134 0070 00C0      		rjmp .L4
 135               	.L15:
  72:../../LUFA-111009/LUFA/Drivers/USB/Core/AVR8/EndpointStream_AVR8.c **** 		}
  73:../../LUFA-111009/LUFA/Drivers/USB/Core/AVR8/EndpointStream_AVR8.c **** 	}
  74:../../LUFA-111009/LUFA/Drivers/USB/Core/AVR8/EndpointStream_AVR8.c **** 	
  75:../../LUFA-111009/LUFA/Drivers/USB/Core/AVR8/EndpointStream_AVR8.c **** 	return ENDPOINT_RWSTREAM_NoError;
 136               		.loc 1 75 0
 137 0072 80E0      		ldi r24,0
 138               	.LVL12:
 139               	.L2:
 140               	/* epilogue start */
  76:../../LUFA-111009/LUFA/Drivers/USB/Core/AVR8/EndpointStream_AVR8.c **** }
 141               		.loc 1 76 0
 142 0074 DF91      		pop r29
 143 0076 CF91      		pop r28
 144               	.LVL13:
 145 0078 1F91      		pop r17
 146 007a 0F91      		pop r16
 147               	.LVL14:
 148 007c FF90      		pop r15
 149 007e EF90      		pop r14
 150 0080 0895      		ret
 151               		.cfi_endproc
 152               	.LFE81:
 154               		.section	.text.Endpoint_Null_Stream,"ax",@progbits
 155               	.global	Endpoint_Null_Stream
 157               	Endpoint_Null_Stream:
 158               	.LFB82:
  77:../../LUFA-111009/LUFA/Drivers/USB/Core/AVR8/EndpointStream_AVR8.c **** 
  78:../../LUFA-111009/LUFA/Drivers/USB/Core/AVR8/EndpointStream_AVR8.c **** uint8_t Endpoint_Null_Stream(uint16_t Length,
  79:../../LUFA-111009/LUFA/Drivers/USB/Core/AVR8/EndpointStream_AVR8.c ****                              uint16_t* const BytesProcessed)
  80:../../LUFA-111009/LUFA/Drivers/USB/Core/AVR8/EndpointStream_AVR8.c **** {
 159               		.loc 1 80 0
 160               		.cfi_startproc
 161               	.LVL15:
 162 0000 EF92      		push r14
 163               	.LCFI6:
 164               		.cfi_def_cfa_offset 3
 165               		.cfi_offset 14, -2
 166 0002 FF92      		push r15
 167               	.LCFI7:
 168               		.cfi_def_cfa_offset 4
 169               		.cfi_offset 15, -3
 170 0004 0F93      		push r16
 171               	.LCFI8:
 172               		.cfi_def_cfa_offset 5
 173               		.cfi_offset 16, -4
 174 0006 1F93      		push r17
 175               	.LCFI9:
 176               		.cfi_def_cfa_offset 6
 177               		.cfi_offset 17, -5
 178 0008 CF93      		push r28
 179               	.LCFI10:
 180               		.cfi_def_cfa_offset 7
 181               		.cfi_offset 28, -6
 182 000a DF93      		push r29
 183               	.LCFI11:
 184               		.cfi_def_cfa_offset 8
 185               		.cfi_offset 29, -7
 186               	/* prologue: function */
 187               	/* frame size = 0 */
 188               	/* stack size = 6 */
 189               	.L__stack_usage = 6
 190 000c EC01      		movw r28,r24
 191 000e 8B01      		movw r16,r22
 192               	.LVL16:
  81:../../LUFA-111009/LUFA/Drivers/USB/Core/AVR8/EndpointStream_AVR8.c **** 	uint8_t  ErrorCode;
  82:../../LUFA-111009/LUFA/Drivers/USB/Core/AVR8/EndpointStream_AVR8.c **** 	uint16_t BytesInTransfer = 0;
  83:../../LUFA-111009/LUFA/Drivers/USB/Core/AVR8/EndpointStream_AVR8.c **** 	
  84:../../LUFA-111009/LUFA/Drivers/USB/Core/AVR8/EndpointStream_AVR8.c **** 	if ((ErrorCode = Endpoint_WaitUntilReady()))
 193               		.loc 1 84 0
 194 0010 0E94 0000 		call Endpoint_WaitUntilReady
 195               	.LVL17:
 196 0014 8111      		cpse r24,__zero_reg__
 197 0016 00C0      		rjmp .L17
  85:../../LUFA-111009/LUFA/Drivers/USB/Core/AVR8/EndpointStream_AVR8.c **** 	  return ErrorCode;
  86:../../LUFA-111009/LUFA/Drivers/USB/Core/AVR8/EndpointStream_AVR8.c **** 	  
  87:../../LUFA-111009/LUFA/Drivers/USB/Core/AVR8/EndpointStream_AVR8.c **** 	if (BytesProcessed != NULL)
 198               		.loc 1 87 0
 199 0018 0115      		cp r16,__zero_reg__
 200 001a 1105      		cpc r17,__zero_reg__
 201 001c 01F0      		breq .L18
  88:../../LUFA-111009/LUFA/Drivers/USB/Core/AVR8/EndpointStream_AVR8.c **** 	  Length -= *BytesProcessed;
 202               		.loc 1 88 0
 203 001e F801      		movw r30,r16
 204 0020 8081      		ld r24,Z
 205 0022 9181      		ldd r25,Z+1
 206               	.LVL18:
 207 0024 C81B      		sub r28,r24
 208 0026 D90B      		sbc r29,r25
 209               	.LVL19:
 210               	.L18:
  80:../../LUFA-111009/LUFA/Drivers/USB/Core/AVR8/EndpointStream_AVR8.c **** 	uint8_t  ErrorCode;
 211               		.loc 1 80 0
 212 0028 E12C      		mov r14,__zero_reg__
 213 002a F12C      		mov r15,__zero_reg__
 214               	.LVL20:
 215               	.L19:
  89:../../LUFA-111009/LUFA/Drivers/USB/Core/AVR8/EndpointStream_AVR8.c **** 
  90:../../LUFA-111009/LUFA/Drivers/USB/Core/AVR8/EndpointStream_AVR8.c **** 	while (Length)
 216               		.loc 1 90 0
 217 002c 2097      		sbiw r28,0
 218 002e 01F0      		breq .L29
 219               	.LBB262:
 220               	.LBB263:
 420:../../LUFA-111009/LUFA/Drivers/USB/Core/AVR8/../AVR8/../AVR8/Endpoint_AVR8.h **** 			}
 221               		.loc 2 420 0
 222 0030 8091 E800 		lds r24,232
 223               	.LBE263:
 224               	.LBE262:
  91:../../LUFA-111009/LUFA/Drivers/USB/Core/AVR8/EndpointStream_AVR8.c **** 	{
  92:../../LUFA-111009/LUFA/Drivers/USB/Core/AVR8/EndpointStream_AVR8.c **** 		if (!(Endpoint_IsReadWriteAllowed()))
 225               		.loc 1 92 0
 226 0034 85FD      		sbrc r24,5
 227 0036 00C0      		rjmp .L20
 228               	.LBB264:
 229               	.LBB265:
 516:../../LUFA-111009/LUFA/Drivers/USB/Core/AVR8/../AVR8/../AVR8/Endpoint_AVR8.h **** 				#else
 230               		.loc 2 516 0
 231 0038 8091 E800 		lds r24,232
 232 003c 8E77      		andi r24,lo8(126)
 233 003e 8093 E800 		sts 232,r24
 234               	.LBE265:
 235               	.LBE264:
  93:../../LUFA-111009/LUFA/Drivers/USB/Core/AVR8/EndpointStream_AVR8.c **** 		{
  94:../../LUFA-111009/LUFA/Drivers/USB/Core/AVR8/EndpointStream_AVR8.c **** 			Endpoint_ClearIN();
  95:../../LUFA-111009/LUFA/Drivers/USB/Core/AVR8/EndpointStream_AVR8.c **** 
  96:../../LUFA-111009/LUFA/Drivers/USB/Core/AVR8/EndpointStream_AVR8.c **** 			if (BytesProcessed != NULL)
 236               		.loc 1 96 0
 237 0042 0115      		cp r16,__zero_reg__
 238 0044 1105      		cpc r17,__zero_reg__
 239 0046 01F0      		breq .L21
  97:../../LUFA-111009/LUFA/Drivers/USB/Core/AVR8/EndpointStream_AVR8.c **** 			{
  98:../../LUFA-111009/LUFA/Drivers/USB/Core/AVR8/EndpointStream_AVR8.c **** 				*BytesProcessed += BytesInTransfer;
 240               		.loc 1 98 0
 241 0048 F801      		movw r30,r16
 242 004a 8081      		ld r24,Z
 243 004c 9181      		ldd r25,Z+1
 244 004e E80E      		add r14,r24
 245 0050 F91E      		adc r15,r25
 246               	.LVL21:
 247 0052 F182      		std Z+1,r15
 248 0054 E082      		st Z,r14
  99:../../LUFA-111009/LUFA/Drivers/USB/Core/AVR8/EndpointStream_AVR8.c **** 				return ENDPOINT_RWSTREAM_IncompleteTransfer;
 249               		.loc 1 99 0
 250 0056 85E0      		ldi r24,lo8(5)
 251 0058 00C0      		rjmp .L17
 252               	.LVL22:
 253               	.L21:
 100:../../LUFA-111009/LUFA/Drivers/USB/Core/AVR8/EndpointStream_AVR8.c **** 			}
 101:../../LUFA-111009/LUFA/Drivers/USB/Core/AVR8/EndpointStream_AVR8.c **** 
 102:../../LUFA-111009/LUFA/Drivers/USB/Core/AVR8/EndpointStream_AVR8.c **** 			if ((ErrorCode = Endpoint_WaitUntilReady()))
 254               		.loc 1 102 0
 255 005a 0E94 0000 		call Endpoint_WaitUntilReady
 256               	.LVL23:
 257 005e 8823      		tst r24
 258 0060 01F0      		breq .L19
 259 0062 00C0      		rjmp .L17
 260               	.LVL24:
 261               	.L20:
 262               	.LBB266:
 263               	.LBB267:
 624:../../LUFA-111009/LUFA/Drivers/USB/Core/AVR8/../AVR8/../AVR8/Endpoint_AVR8.h **** 			}
 264               		.loc 2 624 0
 265 0064 1092 F100 		sts 241,__zero_reg__
 266               	.LVL25:
 267               	.LBE267:
 268               	.LBE266:
 103:../../LUFA-111009/LUFA/Drivers/USB/Core/AVR8/EndpointStream_AVR8.c **** 			  return ErrorCode;
 104:../../LUFA-111009/LUFA/Drivers/USB/Core/AVR8/EndpointStream_AVR8.c **** 		}
 105:../../LUFA-111009/LUFA/Drivers/USB/Core/AVR8/EndpointStream_AVR8.c **** 		else
 106:../../LUFA-111009/LUFA/Drivers/USB/Core/AVR8/EndpointStream_AVR8.c **** 		{
 107:../../LUFA-111009/LUFA/Drivers/USB/Core/AVR8/EndpointStream_AVR8.c **** 			Endpoint_Write_8(0);
 108:../../LUFA-111009/LUFA/Drivers/USB/Core/AVR8/EndpointStream_AVR8.c **** 
 109:../../LUFA-111009/LUFA/Drivers/USB/Core/AVR8/EndpointStream_AVR8.c **** 			Length--;
 269               		.loc 1 109 0
 270 0068 2197      		sbiw r28,1
 271               	.LVL26:
 110:../../LUFA-111009/LUFA/Drivers/USB/Core/AVR8/EndpointStream_AVR8.c **** 			BytesInTransfer++;
 272               		.loc 1 110 0
 273 006a FFEF      		ldi r31,-1
 274 006c EF1A      		sub r14,r31
 275 006e FF0A      		sbc r15,r31
 276               	.LVL27:
 277 0070 00C0      		rjmp .L19
 278               	.L29:
 111:../../LUFA-111009/LUFA/Drivers/USB/Core/AVR8/EndpointStream_AVR8.c **** 		}
 112:../../LUFA-111009/LUFA/Drivers/USB/Core/AVR8/EndpointStream_AVR8.c **** 	}
 113:../../LUFA-111009/LUFA/Drivers/USB/Core/AVR8/EndpointStream_AVR8.c **** 	
 114:../../LUFA-111009/LUFA/Drivers/USB/Core/AVR8/EndpointStream_AVR8.c **** 	return ENDPOINT_RWSTREAM_NoError;
 279               		.loc 1 114 0
 280 0072 80E0      		ldi r24,0
 281               	.LVL28:
 282               	.L17:
 283               	/* epilogue start */
 115:../../LUFA-111009/LUFA/Drivers/USB/Core/AVR8/EndpointStream_AVR8.c **** }
 284               		.loc 1 115 0
 285 0074 DF91      		pop r29
 286 0076 CF91      		pop r28
 287               	.LVL29:
 288 0078 1F91      		pop r17
 289 007a 0F91      		pop r16
 290               	.LVL30:
 291 007c FF90      		pop r15
 292 007e EF90      		pop r14
 293 0080 0895      		ret
 294               		.cfi_endproc
 295               	.LFE82:
 297               		.section	.text.Endpoint_Write_Stream_LE,"ax",@progbits
 298               	.global	Endpoint_Write_Stream_LE
 300               	Endpoint_Write_Stream_LE:
 301               	.LFB83:
 302               		.file 3 "../../LUFA-111009/LUFA/Drivers/USB/Core/AVR8/Template/Template_Endpoint_RW.c"
   1:../../LUFA-111009/LUFA/Drivers/USB/Core/AVR8/Template/Template_Endpoint_RW.c **** /*
   2:../../LUFA-111009/LUFA/Drivers/USB/Core/AVR8/Template/Template_Endpoint_RW.c ****              LUFA Library
   3:../../LUFA-111009/LUFA/Drivers/USB/Core/AVR8/Template/Template_Endpoint_RW.c ****      Copyright (C) Dean Camera, 2011.
   4:../../LUFA-111009/LUFA/Drivers/USB/Core/AVR8/Template/Template_Endpoint_RW.c **** 
   5:../../LUFA-111009/LUFA/Drivers/USB/Core/AVR8/Template/Template_Endpoint_RW.c ****   dean [at] fourwalledcubicle [dot] com
   6:../../LUFA-111009/LUFA/Drivers/USB/Core/AVR8/Template/Template_Endpoint_RW.c ****            www.lufa-lib.org
   7:../../LUFA-111009/LUFA/Drivers/USB/Core/AVR8/Template/Template_Endpoint_RW.c **** */
   8:../../LUFA-111009/LUFA/Drivers/USB/Core/AVR8/Template/Template_Endpoint_RW.c **** 
   9:../../LUFA-111009/LUFA/Drivers/USB/Core/AVR8/Template/Template_Endpoint_RW.c **** /*
  10:../../LUFA-111009/LUFA/Drivers/USB/Core/AVR8/Template/Template_Endpoint_RW.c ****   Copyright 2011  Dean Camera (dean [at] fourwalledcubicle [dot] com)
  11:../../LUFA-111009/LUFA/Drivers/USB/Core/AVR8/Template/Template_Endpoint_RW.c **** 
  12:../../LUFA-111009/LUFA/Drivers/USB/Core/AVR8/Template/Template_Endpoint_RW.c ****   Permission to use, copy, modify, distribute, and sell this
  13:../../LUFA-111009/LUFA/Drivers/USB/Core/AVR8/Template/Template_Endpoint_RW.c ****   software and its documentation for any purpose is hereby granted
  14:../../LUFA-111009/LUFA/Drivers/USB/Core/AVR8/Template/Template_Endpoint_RW.c ****   without fee, provided that the above copyright notice appear in
  15:../../LUFA-111009/LUFA/Drivers/USB/Core/AVR8/Template/Template_Endpoint_RW.c ****   all copies and that both that the copyright notice and this
  16:../../LUFA-111009/LUFA/Drivers/USB/Core/AVR8/Template/Template_Endpoint_RW.c ****   permission notice and warranty disclaimer appear in supporting
  17:../../LUFA-111009/LUFA/Drivers/USB/Core/AVR8/Template/Template_Endpoint_RW.c ****   documentation, and that the name of the author not be used in
  18:../../LUFA-111009/LUFA/Drivers/USB/Core/AVR8/Template/Template_Endpoint_RW.c ****   advertising or publicity pertaining to distribution of the
  19:../../LUFA-111009/LUFA/Drivers/USB/Core/AVR8/Template/Template_Endpoint_RW.c ****   software without specific, written prior permission.
  20:../../LUFA-111009/LUFA/Drivers/USB/Core/AVR8/Template/Template_Endpoint_RW.c **** 
  21:../../LUFA-111009/LUFA/Drivers/USB/Core/AVR8/Template/Template_Endpoint_RW.c ****   The author disclaim all warranties with regard to this
  22:../../LUFA-111009/LUFA/Drivers/USB/Core/AVR8/Template/Template_Endpoint_RW.c ****   software, including all implied warranties of merchantability
  23:../../LUFA-111009/LUFA/Drivers/USB/Core/AVR8/Template/Template_Endpoint_RW.c ****   and fitness.  In no event shall the author be liable for any
  24:../../LUFA-111009/LUFA/Drivers/USB/Core/AVR8/Template/Template_Endpoint_RW.c ****   special, indirect or consequential damages or any damages
  25:../../LUFA-111009/LUFA/Drivers/USB/Core/AVR8/Template/Template_Endpoint_RW.c ****   whatsoever resulting from loss of use, data or profits, whether
  26:../../LUFA-111009/LUFA/Drivers/USB/Core/AVR8/Template/Template_Endpoint_RW.c ****   in an action of contract, negligence or other tortious action,
  27:../../LUFA-111009/LUFA/Drivers/USB/Core/AVR8/Template/Template_Endpoint_RW.c ****   arising out of or in connection with the use or performance of
  28:../../LUFA-111009/LUFA/Drivers/USB/Core/AVR8/Template/Template_Endpoint_RW.c ****   this software.
  29:../../LUFA-111009/LUFA/Drivers/USB/Core/AVR8/Template/Template_Endpoint_RW.c **** */
  30:../../LUFA-111009/LUFA/Drivers/USB/Core/AVR8/Template/Template_Endpoint_RW.c **** 
  31:../../LUFA-111009/LUFA/Drivers/USB/Core/AVR8/Template/Template_Endpoint_RW.c **** #if defined(TEMPLATE_FUNC_NAME)
  32:../../LUFA-111009/LUFA/Drivers/USB/Core/AVR8/Template/Template_Endpoint_RW.c **** 
  33:../../LUFA-111009/LUFA/Drivers/USB/Core/AVR8/Template/Template_Endpoint_RW.c **** uint8_t TEMPLATE_FUNC_NAME (TEMPLATE_BUFFER_TYPE const Buffer,
  34:../../LUFA-111009/LUFA/Drivers/USB/Core/AVR8/Template/Template_Endpoint_RW.c ****                             uint16_t Length,
  35:../../LUFA-111009/LUFA/Drivers/USB/Core/AVR8/Template/Template_Endpoint_RW.c ****                             uint16_t* const BytesProcessed)
  36:../../LUFA-111009/LUFA/Drivers/USB/Core/AVR8/Template/Template_Endpoint_RW.c **** {
 303               		.loc 3 36 0
 304               		.cfi_startproc
 305               	.LVL31:
 306 0000 CF92      		push r12
 307               	.LCFI12:
 308               		.cfi_def_cfa_offset 3
 309               		.cfi_offset 12, -2
 310 0002 DF92      		push r13
 311               	.LCFI13:
 312               		.cfi_def_cfa_offset 4
 313               		.cfi_offset 13, -3
 314 0004 EF92      		push r14
 315               	.LCFI14:
 316               		.cfi_def_cfa_offset 5
 317               		.cfi_offset 14, -4
 318 0006 FF92      		push r15
 319               	.LCFI15:
 320               		.cfi_def_cfa_offset 6
 321               		.cfi_offset 15, -5
 322 0008 0F93      		push r16
 323               	.LCFI16:
 324               		.cfi_def_cfa_offset 7
 325               		.cfi_offset 16, -6
 326 000a 1F93      		push r17
 327               	.LCFI17:
 328               		.cfi_def_cfa_offset 8
 329               		.cfi_offset 17, -7
 330 000c CF93      		push r28
 331               	.LCFI18:
 332               		.cfi_def_cfa_offset 9
 333               		.cfi_offset 28, -8
 334 000e DF93      		push r29
 335               	.LCFI19:
 336               		.cfi_def_cfa_offset 10
 337               		.cfi_offset 29, -9
 338               	/* prologue: function */
 339               	/* frame size = 0 */
 340               	/* stack size = 8 */
 341               	.L__stack_usage = 8
 342 0010 EC01      		movw r28,r24
 343 0012 8B01      		movw r16,r22
 344 0014 7A01      		movw r14,r20
 345               	.LVL32:
  37:../../LUFA-111009/LUFA/Drivers/USB/Core/AVR8/Template/Template_Endpoint_RW.c **** 	uint8_t* DataStream      = ((uint8_t*)Buffer + TEMPLATE_BUFFER_OFFSET(Length));
  38:../../LUFA-111009/LUFA/Drivers/USB/Core/AVR8/Template/Template_Endpoint_RW.c **** 	uint16_t BytesInTransfer = 0;
  39:../../LUFA-111009/LUFA/Drivers/USB/Core/AVR8/Template/Template_Endpoint_RW.c **** 	uint8_t  ErrorCode;
  40:../../LUFA-111009/LUFA/Drivers/USB/Core/AVR8/Template/Template_Endpoint_RW.c **** 
  41:../../LUFA-111009/LUFA/Drivers/USB/Core/AVR8/Template/Template_Endpoint_RW.c **** 	if ((ErrorCode = Endpoint_WaitUntilReady()))
 346               		.loc 3 41 0
 347 0016 0E94 0000 		call Endpoint_WaitUntilReady
 348               	.LVL33:
 349 001a 8111      		cpse r24,__zero_reg__
 350 001c 00C0      		rjmp .L31
  42:../../LUFA-111009/LUFA/Drivers/USB/Core/AVR8/Template/Template_Endpoint_RW.c **** 	  return ErrorCode;
  43:../../LUFA-111009/LUFA/Drivers/USB/Core/AVR8/Template/Template_Endpoint_RW.c **** 
  44:../../LUFA-111009/LUFA/Drivers/USB/Core/AVR8/Template/Template_Endpoint_RW.c **** 	if (BytesProcessed != NULL)
 351               		.loc 3 44 0
 352 001e E114      		cp r14,__zero_reg__
 353 0020 F104      		cpc r15,__zero_reg__
 354 0022 01F0      		breq .L32
  45:../../LUFA-111009/LUFA/Drivers/USB/Core/AVR8/Template/Template_Endpoint_RW.c **** 	{
  46:../../LUFA-111009/LUFA/Drivers/USB/Core/AVR8/Template/Template_Endpoint_RW.c **** 		Length -= *BytesProcessed;
 355               		.loc 3 46 0
 356 0024 F701      		movw r30,r14
 357 0026 8081      		ld r24,Z
 358 0028 9181      		ldd r25,Z+1
 359               	.LVL34:
 360 002a 081B      		sub r16,r24
 361 002c 190B      		sbc r17,r25
 362               	.LVL35:
  47:../../LUFA-111009/LUFA/Drivers/USB/Core/AVR8/Template/Template_Endpoint_RW.c **** 		TEMPLATE_BUFFER_MOVE(DataStream, *BytesProcessed);
 363               		.loc 3 47 0
 364 002e C80F      		add r28,r24
 365 0030 D91F      		adc r29,r25
 366               	.LVL36:
 367               	.L32:
  37:../../LUFA-111009/LUFA/Drivers/USB/Core/AVR8/Template/Template_Endpoint_RW.c **** 	uint16_t BytesInTransfer = 0;
 368               		.loc 3 37 0
 369 0032 C12C      		mov r12,__zero_reg__
 370 0034 D12C      		mov r13,__zero_reg__
 371               	.LVL37:
 372               	.L33:
  48:../../LUFA-111009/LUFA/Drivers/USB/Core/AVR8/Template/Template_Endpoint_RW.c **** 	}
  49:../../LUFA-111009/LUFA/Drivers/USB/Core/AVR8/Template/Template_Endpoint_RW.c **** 
  50:../../LUFA-111009/LUFA/Drivers/USB/Core/AVR8/Template/Template_Endpoint_RW.c **** 	while (Length)
 373               		.loc 3 50 0
 374 0036 0115      		cp r16,__zero_reg__
 375 0038 1105      		cpc r17,__zero_reg__
 376 003a 01F0      		breq .L41
 377               	.LBB268:
 378               	.LBB269:
 420:../../LUFA-111009/LUFA/Drivers/USB/Core/AVR8/../AVR8/../AVR8/Endpoint_AVR8.h **** 			}
 379               		.loc 2 420 0
 380 003c 8091 E800 		lds r24,232
 381               	.LBE269:
 382               	.LBE268:
  51:../../LUFA-111009/LUFA/Drivers/USB/Core/AVR8/Template/Template_Endpoint_RW.c **** 	{
  52:../../LUFA-111009/LUFA/Drivers/USB/Core/AVR8/Template/Template_Endpoint_RW.c **** 		if (!(Endpoint_IsReadWriteAllowed()))
 383               		.loc 3 52 0
 384 0040 85FD      		sbrc r24,5
 385 0042 00C0      		rjmp .L34
 386               	.LBB270:
 387               	.LBB271:
 516:../../LUFA-111009/LUFA/Drivers/USB/Core/AVR8/../AVR8/../AVR8/Endpoint_AVR8.h **** 				#else
 388               		.loc 2 516 0
 389 0044 8091 E800 		lds r24,232
 390 0048 8E77      		andi r24,lo8(126)
 391 004a 8093 E800 		sts 232,r24
 392               	.LBE271:
 393               	.LBE270:
  53:../../LUFA-111009/LUFA/Drivers/USB/Core/AVR8/Template/Template_Endpoint_RW.c **** 		{
  54:../../LUFA-111009/LUFA/Drivers/USB/Core/AVR8/Template/Template_Endpoint_RW.c **** 			TEMPLATE_CLEAR_ENDPOINT();
  55:../../LUFA-111009/LUFA/Drivers/USB/Core/AVR8/Template/Template_Endpoint_RW.c **** 
  56:../../LUFA-111009/LUFA/Drivers/USB/Core/AVR8/Template/Template_Endpoint_RW.c **** 			#if !defined(INTERRUPT_CONTROL_ENDPOINT)
  57:../../LUFA-111009/LUFA/Drivers/USB/Core/AVR8/Template/Template_Endpoint_RW.c **** 			USB_USBTask();
 394               		.loc 3 57 0
 395 004e 0E94 0000 		call USB_USBTask
 396               	.LVL38:
  58:../../LUFA-111009/LUFA/Drivers/USB/Core/AVR8/Template/Template_Endpoint_RW.c **** 			#endif
  59:../../LUFA-111009/LUFA/Drivers/USB/Core/AVR8/Template/Template_Endpoint_RW.c **** 
  60:../../LUFA-111009/LUFA/Drivers/USB/Core/AVR8/Template/Template_Endpoint_RW.c **** 			if (BytesProcessed != NULL)
 397               		.loc 3 60 0
 398 0052 E114      		cp r14,__zero_reg__
 399 0054 F104      		cpc r15,__zero_reg__
 400 0056 01F0      		breq .L35
  61:../../LUFA-111009/LUFA/Drivers/USB/Core/AVR8/Template/Template_Endpoint_RW.c **** 			{
  62:../../LUFA-111009/LUFA/Drivers/USB/Core/AVR8/Template/Template_Endpoint_RW.c **** 				*BytesProcessed += BytesInTransfer;
 401               		.loc 3 62 0
 402 0058 F701      		movw r30,r14
 403 005a 8081      		ld r24,Z
 404 005c 9181      		ldd r25,Z+1
 405 005e C80E      		add r12,r24
 406 0060 D91E      		adc r13,r25
 407               	.LVL39:
 408 0062 D182      		std Z+1,r13
 409 0064 C082      		st Z,r12
  63:../../LUFA-111009/LUFA/Drivers/USB/Core/AVR8/Template/Template_Endpoint_RW.c **** 				return ENDPOINT_RWSTREAM_IncompleteTransfer;
 410               		.loc 3 63 0
 411 0066 85E0      		ldi r24,lo8(5)
 412 0068 00C0      		rjmp .L31
 413               	.LVL40:
 414               	.L35:
  64:../../LUFA-111009/LUFA/Drivers/USB/Core/AVR8/Template/Template_Endpoint_RW.c **** 			}
  65:../../LUFA-111009/LUFA/Drivers/USB/Core/AVR8/Template/Template_Endpoint_RW.c **** 
  66:../../LUFA-111009/LUFA/Drivers/USB/Core/AVR8/Template/Template_Endpoint_RW.c **** 			if ((ErrorCode = Endpoint_WaitUntilReady()))
 415               		.loc 3 66 0
 416 006a 0E94 0000 		call Endpoint_WaitUntilReady
 417               	.LVL41:
 418 006e 8823      		tst r24
 419 0070 01F0      		breq .L33
 420 0072 00C0      		rjmp .L31
 421               	.LVL42:
 422               	.L34:
  67:../../LUFA-111009/LUFA/Drivers/USB/Core/AVR8/Template/Template_Endpoint_RW.c **** 			  return ErrorCode;
  68:../../LUFA-111009/LUFA/Drivers/USB/Core/AVR8/Template/Template_Endpoint_RW.c **** 		}
  69:../../LUFA-111009/LUFA/Drivers/USB/Core/AVR8/Template/Template_Endpoint_RW.c **** 		else
  70:../../LUFA-111009/LUFA/Drivers/USB/Core/AVR8/Template/Template_Endpoint_RW.c **** 		{
  71:../../LUFA-111009/LUFA/Drivers/USB/Core/AVR8/Template/Template_Endpoint_RW.c **** 			TEMPLATE_TRANSFER_BYTE(DataStream);
 423               		.loc 3 71 0
 424 0074 8991      		ld r24,Y+
 425               	.LVL43:
 426               	.LBB272:
 427               	.LBB273:
 624:../../LUFA-111009/LUFA/Drivers/USB/Core/AVR8/../AVR8/../AVR8/Endpoint_AVR8.h **** 			}
 428               		.loc 2 624 0
 429 0076 8093 F100 		sts 241,r24
 430               	.LVL44:
 431               	.LBE273:
 432               	.LBE272:
  72:../../LUFA-111009/LUFA/Drivers/USB/Core/AVR8/Template/Template_Endpoint_RW.c **** 			TEMPLATE_BUFFER_MOVE(DataStream, 1);
  73:../../LUFA-111009/LUFA/Drivers/USB/Core/AVR8/Template/Template_Endpoint_RW.c **** 			Length--;
 433               		.loc 3 73 0
 434 007a 0150      		subi r16,1
 435 007c 1109      		sbc r17,__zero_reg__
 436               	.LVL45:
  74:../../LUFA-111009/LUFA/Drivers/USB/Core/AVR8/Template/Template_Endpoint_RW.c **** 			BytesInTransfer++;
 437               		.loc 3 74 0
 438 007e FFEF      		ldi r31,-1
 439 0080 CF1A      		sub r12,r31
 440 0082 DF0A      		sbc r13,r31
 441               	.LVL46:
 442 0084 00C0      		rjmp .L33
 443               	.L41:
  75:../../LUFA-111009/LUFA/Drivers/USB/Core/AVR8/Template/Template_Endpoint_RW.c **** 		}
  76:../../LUFA-111009/LUFA/Drivers/USB/Core/AVR8/Template/Template_Endpoint_RW.c **** 	}
  77:../../LUFA-111009/LUFA/Drivers/USB/Core/AVR8/Template/Template_Endpoint_RW.c **** 
  78:../../LUFA-111009/LUFA/Drivers/USB/Core/AVR8/Template/Template_Endpoint_RW.c **** 	return ENDPOINT_RWSTREAM_NoError;
 444               		.loc 3 78 0
 445 0086 80E0      		ldi r24,0
 446               	.LVL47:
 447               	.L31:
 448               	/* epilogue start */
  79:../../LUFA-111009/LUFA/Drivers/USB/Core/AVR8/Template/Template_Endpoint_RW.c **** }
 449               		.loc 3 79 0
 450 0088 DF91      		pop r29
 451 008a CF91      		pop r28
 452               	.LVL48:
 453 008c 1F91      		pop r17
 454 008e 0F91      		pop r16
 455               	.LVL49:
 456 0090 FF90      		pop r15
 457 0092 EF90      		pop r14
 458               	.LVL50:
 459 0094 DF90      		pop r13
 460 0096 CF90      		pop r12
 461 0098 0895      		ret
 462               		.cfi_endproc
 463               	.LFE83:
 465               		.section	.text.Endpoint_Write_Stream_BE,"ax",@progbits
 466               	.global	Endpoint_Write_Stream_BE
 468               	Endpoint_Write_Stream_BE:
 469               	.LFB84:
  36:../../LUFA-111009/LUFA/Drivers/USB/Core/AVR8/Template/Template_Endpoint_RW.c **** 	uint8_t* DataStream      = ((uint8_t*)Buffer + TEMPLATE_BUFFER_OFFSET(Length));
 470               		.loc 3 36 0
 471               		.cfi_startproc
 472               	.LVL51:
 473 0000 CF92      		push r12
 474               	.LCFI20:
 475               		.cfi_def_cfa_offset 3
 476               		.cfi_offset 12, -2
 477 0002 DF92      		push r13
 478               	.LCFI21:
 479               		.cfi_def_cfa_offset 4
 480               		.cfi_offset 13, -3
 481 0004 EF92      		push r14
 482               	.LCFI22:
 483               		.cfi_def_cfa_offset 5
 484               		.cfi_offset 14, -4
 485 0006 FF92      		push r15
 486               	.LCFI23:
 487               		.cfi_def_cfa_offset 6
 488               		.cfi_offset 15, -5
 489 0008 0F93      		push r16
 490               	.LCFI24:
 491               		.cfi_def_cfa_offset 7
 492               		.cfi_offset 16, -6
 493 000a 1F93      		push r17
 494               	.LCFI25:
 495               		.cfi_def_cfa_offset 8
 496               		.cfi_offset 17, -7
 497 000c CF93      		push r28
 498               	.LCFI26:
 499               		.cfi_def_cfa_offset 9
 500               		.cfi_offset 28, -8
 501 000e DF93      		push r29
 502               	.LCFI27:
 503               		.cfi_def_cfa_offset 10
 504               		.cfi_offset 29, -9
 505               	/* prologue: function */
 506               	/* frame size = 0 */
 507               	/* stack size = 8 */
 508               	.L__stack_usage = 8
 509 0010 EC01      		movw r28,r24
 510 0012 8B01      		movw r16,r22
 511 0014 7A01      		movw r14,r20
 512               	.LVL52:
  41:../../LUFA-111009/LUFA/Drivers/USB/Core/AVR8/Template/Template_Endpoint_RW.c **** 	  return ErrorCode;
 513               		.loc 3 41 0
 514 0016 0E94 0000 		call Endpoint_WaitUntilReady
 515               	.LVL53:
 516 001a 8111      		cpse r24,__zero_reg__
 517 001c 00C0      		rjmp .L43
  37:../../LUFA-111009/LUFA/Drivers/USB/Core/AVR8/Template/Template_Endpoint_RW.c **** 	uint16_t BytesInTransfer = 0;
 518               		.loc 3 37 0
 519 001e C801      		movw r24,r16
 520               	.LVL54:
 521 0020 0197      		sbiw r24,1
 522               	.LVL55:
 523 0022 C80F      		add r28,r24
 524 0024 D91F      		adc r29,r25
 525               	.LVL56:
  44:../../LUFA-111009/LUFA/Drivers/USB/Core/AVR8/Template/Template_Endpoint_RW.c **** 	{
 526               		.loc 3 44 0
 527 0026 E114      		cp r14,__zero_reg__
 528 0028 F104      		cpc r15,__zero_reg__
 529 002a 01F0      		breq .L44
  46:../../LUFA-111009/LUFA/Drivers/USB/Core/AVR8/Template/Template_Endpoint_RW.c **** 		TEMPLATE_BUFFER_MOVE(DataStream, *BytesProcessed);
 530               		.loc 3 46 0
 531 002c F701      		movw r30,r14
 532 002e 8081      		ld r24,Z
 533 0030 9181      		ldd r25,Z+1
 534               	.LVL57:
 535 0032 081B      		sub r16,r24
 536 0034 190B      		sbc r17,r25
 537               	.LVL58:
  47:../../LUFA-111009/LUFA/Drivers/USB/Core/AVR8/Template/Template_Endpoint_RW.c **** 	}
 538               		.loc 3 47 0
 539 0036 C81B      		sub r28,r24
 540 0038 D90B      		sbc r29,r25
 541               	.LVL59:
 542               	.L44:
  36:../../LUFA-111009/LUFA/Drivers/USB/Core/AVR8/Template/Template_Endpoint_RW.c **** 	uint8_t* DataStream      = ((uint8_t*)Buffer + TEMPLATE_BUFFER_OFFSET(Length));
 543               		.loc 3 36 0
 544 003a C12C      		mov r12,__zero_reg__
 545 003c D12C      		mov r13,__zero_reg__
 546               	.LVL60:
 547               	.L45:
  50:../../LUFA-111009/LUFA/Drivers/USB/Core/AVR8/Template/Template_Endpoint_RW.c **** 	{
 548               		.loc 3 50 0
 549 003e 0115      		cp r16,__zero_reg__
 550 0040 1105      		cpc r17,__zero_reg__
 551 0042 01F0      		breq .L55
 552               	.LBB274:
 553               	.LBB275:
 420:../../LUFA-111009/LUFA/Drivers/USB/Core/AVR8/../AVR8/../AVR8/Endpoint_AVR8.h **** 			}
 554               		.loc 2 420 0
 555 0044 8091 E800 		lds r24,232
 556               	.LBE275:
 557               	.LBE274:
  52:../../LUFA-111009/LUFA/Drivers/USB/Core/AVR8/Template/Template_Endpoint_RW.c **** 		{
 558               		.loc 3 52 0
 559 0048 85FD      		sbrc r24,5
 560 004a 00C0      		rjmp .L46
 561               	.LBB276:
 562               	.LBB277:
 516:../../LUFA-111009/LUFA/Drivers/USB/Core/AVR8/../AVR8/../AVR8/Endpoint_AVR8.h **** 				#else
 563               		.loc 2 516 0
 564 004c 8091 E800 		lds r24,232
 565 0050 8E77      		andi r24,lo8(126)
 566 0052 8093 E800 		sts 232,r24
 567               	.LBE277:
 568               	.LBE276:
  57:../../LUFA-111009/LUFA/Drivers/USB/Core/AVR8/Template/Template_Endpoint_RW.c **** 			#endif
 569               		.loc 3 57 0
 570 0056 0E94 0000 		call USB_USBTask
 571               	.LVL61:
  60:../../LUFA-111009/LUFA/Drivers/USB/Core/AVR8/Template/Template_Endpoint_RW.c **** 			{
 572               		.loc 3 60 0
 573 005a E114      		cp r14,__zero_reg__
 574 005c F104      		cpc r15,__zero_reg__
 575 005e 01F0      		breq .L47
  62:../../LUFA-111009/LUFA/Drivers/USB/Core/AVR8/Template/Template_Endpoint_RW.c **** 				return ENDPOINT_RWSTREAM_IncompleteTransfer;
 576               		.loc 3 62 0
 577 0060 F701      		movw r30,r14
 578 0062 8081      		ld r24,Z
 579 0064 9181      		ldd r25,Z+1
 580 0066 C80E      		add r12,r24
 581 0068 D91E      		adc r13,r25
 582               	.LVL62:
 583 006a D182      		std Z+1,r13
 584 006c C082      		st Z,r12
  63:../../LUFA-111009/LUFA/Drivers/USB/Core/AVR8/Template/Template_Endpoint_RW.c **** 			}
 585               		.loc 3 63 0
 586 006e 85E0      		ldi r24,lo8(5)
 587 0070 00C0      		rjmp .L43
 588               	.LVL63:
 589               	.L47:
  66:../../LUFA-111009/LUFA/Drivers/USB/Core/AVR8/Template/Template_Endpoint_RW.c **** 			  return ErrorCode;
 590               		.loc 3 66 0
 591 0072 0E94 0000 		call Endpoint_WaitUntilReady
 592               	.LVL64:
 593 0076 8823      		tst r24
 594 0078 01F0      		breq .L45
 595 007a 00C0      		rjmp .L43
 596               	.LVL65:
 597               	.L46:
  71:../../LUFA-111009/LUFA/Drivers/USB/Core/AVR8/Template/Template_Endpoint_RW.c **** 			TEMPLATE_BUFFER_MOVE(DataStream, 1);
 598               		.loc 3 71 0
 599 007c 8881      		ld r24,Y
 600               	.LVL66:
 601               	.LBB278:
 602               	.LBB279:
 624:../../LUFA-111009/LUFA/Drivers/USB/Core/AVR8/../AVR8/../AVR8/Endpoint_AVR8.h **** 			}
 603               		.loc 2 624 0
 604 007e 8093 F100 		sts 241,r24
 605               	.LVL67:
 606               	.LBE279:
 607               	.LBE278:
  72:../../LUFA-111009/LUFA/Drivers/USB/Core/AVR8/Template/Template_Endpoint_RW.c **** 			Length--;
 608               		.loc 3 72 0
 609 0082 2197      		sbiw r28,1
 610               	.LVL68:
  73:../../LUFA-111009/LUFA/Drivers/USB/Core/AVR8/Template/Template_Endpoint_RW.c **** 			BytesInTransfer++;
 611               		.loc 3 73 0
 612 0084 0150      		subi r16,1
 613 0086 1109      		sbc r17,__zero_reg__
 614               	.LVL69:
  74:../../LUFA-111009/LUFA/Drivers/USB/Core/AVR8/Template/Template_Endpoint_RW.c **** 		}
 615               		.loc 3 74 0
 616 0088 FFEF      		ldi r31,-1
 617 008a CF1A      		sub r12,r31
 618 008c DF0A      		sbc r13,r31
 619               	.LVL70:
 620 008e 00C0      		rjmp .L45
 621               	.L55:
  78:../../LUFA-111009/LUFA/Drivers/USB/Core/AVR8/Template/Template_Endpoint_RW.c **** }
 622               		.loc 3 78 0
 623 0090 80E0      		ldi r24,0
 624               	.LVL71:
 625               	.L43:
 626               	/* epilogue start */
 627               		.loc 3 79 0
 628 0092 DF91      		pop r29
 629 0094 CF91      		pop r28
 630 0096 1F91      		pop r17
 631 0098 0F91      		pop r16
 632               	.LVL72:
 633 009a FF90      		pop r15
 634 009c EF90      		pop r14
 635               	.LVL73:
 636 009e DF90      		pop r13
 637 00a0 CF90      		pop r12
 638 00a2 0895      		ret
 639               		.cfi_endproc
 640               	.LFE84:
 642               		.section	.text.Endpoint_Read_Stream_LE,"ax",@progbits
 643               	.global	Endpoint_Read_Stream_LE
 645               	Endpoint_Read_Stream_LE:
 646               	.LFB85:
  36:../../LUFA-111009/LUFA/Drivers/USB/Core/AVR8/Template/Template_Endpoint_RW.c **** 	uint8_t* DataStream      = ((uint8_t*)Buffer + TEMPLATE_BUFFER_OFFSET(Length));
 647               		.loc 3 36 0
 648               		.cfi_startproc
 649               	.LVL74:
 650 0000 CF92      		push r12
 651               	.LCFI28:
 652               		.cfi_def_cfa_offset 3
 653               		.cfi_offset 12, -2
 654 0002 DF92      		push r13
 655               	.LCFI29:
 656               		.cfi_def_cfa_offset 4
 657               		.cfi_offset 13, -3
 658 0004 EF92      		push r14
 659               	.LCFI30:
 660               		.cfi_def_cfa_offset 5
 661               		.cfi_offset 14, -4
 662 0006 FF92      		push r15
 663               	.LCFI31:
 664               		.cfi_def_cfa_offset 6
 665               		.cfi_offset 15, -5
 666 0008 0F93      		push r16
 667               	.LCFI32:
 668               		.cfi_def_cfa_offset 7
 669               		.cfi_offset 16, -6
 670 000a 1F93      		push r17
 671               	.LCFI33:
 672               		.cfi_def_cfa_offset 8
 673               		.cfi_offset 17, -7
 674 000c CF93      		push r28
 675               	.LCFI34:
 676               		.cfi_def_cfa_offset 9
 677               		.cfi_offset 28, -8
 678 000e DF93      		push r29
 679               	.LCFI35:
 680               		.cfi_def_cfa_offset 10
 681               		.cfi_offset 29, -9
 682               	/* prologue: function */
 683               	/* frame size = 0 */
 684               	/* stack size = 8 */
 685               	.L__stack_usage = 8
 686 0010 EC01      		movw r28,r24
 687 0012 8B01      		movw r16,r22
 688 0014 7A01      		movw r14,r20
 689               	.LVL75:
  41:../../LUFA-111009/LUFA/Drivers/USB/Core/AVR8/Template/Template_Endpoint_RW.c **** 	  return ErrorCode;
 690               		.loc 3 41 0
 691 0016 0E94 0000 		call Endpoint_WaitUntilReady
 692               	.LVL76:
 693 001a 8111      		cpse r24,__zero_reg__
 694 001c 00C0      		rjmp .L57
  44:../../LUFA-111009/LUFA/Drivers/USB/Core/AVR8/Template/Template_Endpoint_RW.c **** 	{
 695               		.loc 3 44 0
 696 001e E114      		cp r14,__zero_reg__
 697 0020 F104      		cpc r15,__zero_reg__
 698 0022 01F0      		breq .L58
  46:../../LUFA-111009/LUFA/Drivers/USB/Core/AVR8/Template/Template_Endpoint_RW.c **** 		TEMPLATE_BUFFER_MOVE(DataStream, *BytesProcessed);
 699               		.loc 3 46 0
 700 0024 F701      		movw r30,r14
 701 0026 8081      		ld r24,Z
 702 0028 9181      		ldd r25,Z+1
 703               	.LVL77:
 704 002a 081B      		sub r16,r24
 705 002c 190B      		sbc r17,r25
 706               	.LVL78:
  47:../../LUFA-111009/LUFA/Drivers/USB/Core/AVR8/Template/Template_Endpoint_RW.c **** 	}
 707               		.loc 3 47 0
 708 002e C80F      		add r28,r24
 709 0030 D91F      		adc r29,r25
 710               	.LVL79:
 711               	.L58:
  37:../../LUFA-111009/LUFA/Drivers/USB/Core/AVR8/Template/Template_Endpoint_RW.c **** 	uint16_t BytesInTransfer = 0;
 712               		.loc 3 37 0
 713 0032 C12C      		mov r12,__zero_reg__
 714 0034 D12C      		mov r13,__zero_reg__
 715               	.LVL80:
 716               	.L59:
  50:../../LUFA-111009/LUFA/Drivers/USB/Core/AVR8/Template/Template_Endpoint_RW.c **** 	{
 717               		.loc 3 50 0
 718 0036 0115      		cp r16,__zero_reg__
 719 0038 1105      		cpc r17,__zero_reg__
 720 003a 01F0      		breq .L67
 721               	.LBB280:
 722               	.LBB281:
 420:../../LUFA-111009/LUFA/Drivers/USB/Core/AVR8/../AVR8/../AVR8/Endpoint_AVR8.h **** 			}
 723               		.loc 2 420 0
 724 003c 8091 E800 		lds r24,232
 725               	.LBE281:
 726               	.LBE280:
  52:../../LUFA-111009/LUFA/Drivers/USB/Core/AVR8/Template/Template_Endpoint_RW.c **** 		{
 727               		.loc 3 52 0
 728 0040 85FD      		sbrc r24,5
 729 0042 00C0      		rjmp .L60
 730               	.LBB282:
 731               	.LBB283:
 531:../../LUFA-111009/LUFA/Drivers/USB/Core/AVR8/../AVR8/../AVR8/Endpoint_AVR8.h **** 				#else
 732               		.loc 2 531 0
 733 0044 8091 E800 		lds r24,232
 734 0048 8B77      		andi r24,lo8(123)
 735 004a 8093 E800 		sts 232,r24
 736               	.LBE283:
 737               	.LBE282:
  57:../../LUFA-111009/LUFA/Drivers/USB/Core/AVR8/Template/Template_Endpoint_RW.c **** 			#endif
 738               		.loc 3 57 0
 739 004e 0E94 0000 		call USB_USBTask
 740               	.LVL81:
  60:../../LUFA-111009/LUFA/Drivers/USB/Core/AVR8/Template/Template_Endpoint_RW.c **** 			{
 741               		.loc 3 60 0
 742 0052 E114      		cp r14,__zero_reg__
 743 0054 F104      		cpc r15,__zero_reg__
 744 0056 01F0      		breq .L61
  62:../../LUFA-111009/LUFA/Drivers/USB/Core/AVR8/Template/Template_Endpoint_RW.c **** 				return ENDPOINT_RWSTREAM_IncompleteTransfer;
 745               		.loc 3 62 0
 746 0058 F701      		movw r30,r14
 747 005a 8081      		ld r24,Z
 748 005c 9181      		ldd r25,Z+1
 749 005e C80E      		add r12,r24
 750 0060 D91E      		adc r13,r25
 751               	.LVL82:
 752 0062 D182      		std Z+1,r13
 753 0064 C082      		st Z,r12
  63:../../LUFA-111009/LUFA/Drivers/USB/Core/AVR8/Template/Template_Endpoint_RW.c **** 			}
 754               		.loc 3 63 0
 755 0066 85E0      		ldi r24,lo8(5)
 756 0068 00C0      		rjmp .L57
 757               	.LVL83:
 758               	.L61:
  66:../../LUFA-111009/LUFA/Drivers/USB/Core/AVR8/Template/Template_Endpoint_RW.c **** 			  return ErrorCode;
 759               		.loc 3 66 0
 760 006a 0E94 0000 		call Endpoint_WaitUntilReady
 761               	.LVL84:
 762 006e 8823      		tst r24
 763 0070 01F0      		breq .L59
 764 0072 00C0      		rjmp .L57
 765               	.LVL85:
 766               	.L60:
 767               	.LBB284:
 768               	.LBB285:
 612:../../LUFA-111009/LUFA/Drivers/USB/Core/AVR8/../AVR8/../AVR8/Endpoint_AVR8.h **** 			}
 769               		.loc 2 612 0
 770 0074 8091 F100 		lds r24,241
 771               	.LBE285:
 772               	.LBE284:
  71:../../LUFA-111009/LUFA/Drivers/USB/Core/AVR8/Template/Template_Endpoint_RW.c **** 			TEMPLATE_BUFFER_MOVE(DataStream, 1);
 773               		.loc 3 71 0
 774 0078 8993      		st Y+,r24
 775               	.LVL86:
  73:../../LUFA-111009/LUFA/Drivers/USB/Core/AVR8/Template/Template_Endpoint_RW.c **** 			BytesInTransfer++;
 776               		.loc 3 73 0
 777 007a 0150      		subi r16,1
 778 007c 1109      		sbc r17,__zero_reg__
 779               	.LVL87:
  74:../../LUFA-111009/LUFA/Drivers/USB/Core/AVR8/Template/Template_Endpoint_RW.c **** 		}
 780               		.loc 3 74 0
 781 007e FFEF      		ldi r31,-1
 782 0080 CF1A      		sub r12,r31
 783 0082 DF0A      		sbc r13,r31
 784               	.LVL88:
 785 0084 00C0      		rjmp .L59
 786               	.L67:
  78:../../LUFA-111009/LUFA/Drivers/USB/Core/AVR8/Template/Template_Endpoint_RW.c **** }
 787               		.loc 3 78 0
 788 0086 80E0      		ldi r24,0
 789               	.LVL89:
 790               	.L57:
 791               	/* epilogue start */
 792               		.loc 3 79 0
 793 0088 DF91      		pop r29
 794 008a CF91      		pop r28
 795               	.LVL90:
 796 008c 1F91      		pop r17
 797 008e 0F91      		pop r16
 798               	.LVL91:
 799 0090 FF90      		pop r15
 800 0092 EF90      		pop r14
 801               	.LVL92:
 802 0094 DF90      		pop r13
 803 0096 CF90      		pop r12
 804 0098 0895      		ret
 805               		.cfi_endproc
 806               	.LFE85:
 808               		.section	.text.Endpoint_Read_Stream_BE,"ax",@progbits
 809               	.global	Endpoint_Read_Stream_BE
 811               	Endpoint_Read_Stream_BE:
 812               	.LFB86:
  36:../../LUFA-111009/LUFA/Drivers/USB/Core/AVR8/Template/Template_Endpoint_RW.c **** 	uint8_t* DataStream      = ((uint8_t*)Buffer + TEMPLATE_BUFFER_OFFSET(Length));
 813               		.loc 3 36 0
 814               		.cfi_startproc
 815               	.LVL93:
 816 0000 CF92      		push r12
 817               	.LCFI36:
 818               		.cfi_def_cfa_offset 3
 819               		.cfi_offset 12, -2
 820 0002 DF92      		push r13
 821               	.LCFI37:
 822               		.cfi_def_cfa_offset 4
 823               		.cfi_offset 13, -3
 824 0004 EF92      		push r14
 825               	.LCFI38:
 826               		.cfi_def_cfa_offset 5
 827               		.cfi_offset 14, -4
 828 0006 FF92      		push r15
 829               	.LCFI39:
 830               		.cfi_def_cfa_offset 6
 831               		.cfi_offset 15, -5
 832 0008 0F93      		push r16
 833               	.LCFI40:
 834               		.cfi_def_cfa_offset 7
 835               		.cfi_offset 16, -6
 836 000a 1F93      		push r17
 837               	.LCFI41:
 838               		.cfi_def_cfa_offset 8
 839               		.cfi_offset 17, -7
 840 000c CF93      		push r28
 841               	.LCFI42:
 842               		.cfi_def_cfa_offset 9
 843               		.cfi_offset 28, -8
 844 000e DF93      		push r29
 845               	.LCFI43:
 846               		.cfi_def_cfa_offset 10
 847               		.cfi_offset 29, -9
 848               	/* prologue: function */
 849               	/* frame size = 0 */
 850               	/* stack size = 8 */
 851               	.L__stack_usage = 8
 852 0010 EC01      		movw r28,r24
 853 0012 8B01      		movw r16,r22
 854 0014 7A01      		movw r14,r20
 855               	.LVL94:
  41:../../LUFA-111009/LUFA/Drivers/USB/Core/AVR8/Template/Template_Endpoint_RW.c **** 	  return ErrorCode;
 856               		.loc 3 41 0
 857 0016 0E94 0000 		call Endpoint_WaitUntilReady
 858               	.LVL95:
 859 001a 8111      		cpse r24,__zero_reg__
 860 001c 00C0      		rjmp .L69
  37:../../LUFA-111009/LUFA/Drivers/USB/Core/AVR8/Template/Template_Endpoint_RW.c **** 	uint16_t BytesInTransfer = 0;
 861               		.loc 3 37 0
 862 001e C801      		movw r24,r16
 863               	.LVL96:
 864 0020 0197      		sbiw r24,1
 865               	.LVL97:
 866 0022 C80F      		add r28,r24
 867 0024 D91F      		adc r29,r25
 868               	.LVL98:
  44:../../LUFA-111009/LUFA/Drivers/USB/Core/AVR8/Template/Template_Endpoint_RW.c **** 	{
 869               		.loc 3 44 0
 870 0026 E114      		cp r14,__zero_reg__
 871 0028 F104      		cpc r15,__zero_reg__
 872 002a 01F0      		breq .L70
  46:../../LUFA-111009/LUFA/Drivers/USB/Core/AVR8/Template/Template_Endpoint_RW.c **** 		TEMPLATE_BUFFER_MOVE(DataStream, *BytesProcessed);
 873               		.loc 3 46 0
 874 002c F701      		movw r30,r14
 875 002e 8081      		ld r24,Z
 876 0030 9181      		ldd r25,Z+1
 877               	.LVL99:
 878 0032 081B      		sub r16,r24
 879 0034 190B      		sbc r17,r25
 880               	.LVL100:
  47:../../LUFA-111009/LUFA/Drivers/USB/Core/AVR8/Template/Template_Endpoint_RW.c **** 	}
 881               		.loc 3 47 0
 882 0036 C81B      		sub r28,r24
 883 0038 D90B      		sbc r29,r25
 884               	.LVL101:
 885               	.L70:
  36:../../LUFA-111009/LUFA/Drivers/USB/Core/AVR8/Template/Template_Endpoint_RW.c **** 	uint8_t* DataStream      = ((uint8_t*)Buffer + TEMPLATE_BUFFER_OFFSET(Length));
 886               		.loc 3 36 0
 887 003a C12C      		mov r12,__zero_reg__
 888 003c D12C      		mov r13,__zero_reg__
 889               	.LVL102:
 890               	.L71:
  50:../../LUFA-111009/LUFA/Drivers/USB/Core/AVR8/Template/Template_Endpoint_RW.c **** 	{
 891               		.loc 3 50 0
 892 003e 0115      		cp r16,__zero_reg__
 893 0040 1105      		cpc r17,__zero_reg__
 894 0042 01F0      		breq .L81
 895               	.LBB286:
 896               	.LBB287:
 420:../../LUFA-111009/LUFA/Drivers/USB/Core/AVR8/../AVR8/../AVR8/Endpoint_AVR8.h **** 			}
 897               		.loc 2 420 0
 898 0044 8091 E800 		lds r24,232
 899               	.LBE287:
 900               	.LBE286:
  52:../../LUFA-111009/LUFA/Drivers/USB/Core/AVR8/Template/Template_Endpoint_RW.c **** 		{
 901               		.loc 3 52 0
 902 0048 85FD      		sbrc r24,5
 903 004a 00C0      		rjmp .L72
 904               	.LBB288:
 905               	.LBB289:
 531:../../LUFA-111009/LUFA/Drivers/USB/Core/AVR8/../AVR8/../AVR8/Endpoint_AVR8.h **** 				#else
 906               		.loc 2 531 0
 907 004c 8091 E800 		lds r24,232
 908 0050 8B77      		andi r24,lo8(123)
 909 0052 8093 E800 		sts 232,r24
 910               	.LBE289:
 911               	.LBE288:
  57:../../LUFA-111009/LUFA/Drivers/USB/Core/AVR8/Template/Template_Endpoint_RW.c **** 			#endif
 912               		.loc 3 57 0
 913 0056 0E94 0000 		call USB_USBTask
 914               	.LVL103:
  60:../../LUFA-111009/LUFA/Drivers/USB/Core/AVR8/Template/Template_Endpoint_RW.c **** 			{
 915               		.loc 3 60 0
 916 005a E114      		cp r14,__zero_reg__
 917 005c F104      		cpc r15,__zero_reg__
 918 005e 01F0      		breq .L73
  62:../../LUFA-111009/LUFA/Drivers/USB/Core/AVR8/Template/Template_Endpoint_RW.c **** 				return ENDPOINT_RWSTREAM_IncompleteTransfer;
 919               		.loc 3 62 0
 920 0060 F701      		movw r30,r14
 921 0062 8081      		ld r24,Z
 922 0064 9181      		ldd r25,Z+1
 923 0066 C80E      		add r12,r24
 924 0068 D91E      		adc r13,r25
 925               	.LVL104:
 926 006a D182      		std Z+1,r13
 927 006c C082      		st Z,r12
  63:../../LUFA-111009/LUFA/Drivers/USB/Core/AVR8/Template/Template_Endpoint_RW.c **** 			}
 928               		.loc 3 63 0
 929 006e 85E0      		ldi r24,lo8(5)
 930 0070 00C0      		rjmp .L69
 931               	.LVL105:
 932               	.L73:
  66:../../LUFA-111009/LUFA/Drivers/USB/Core/AVR8/Template/Template_Endpoint_RW.c **** 			  return ErrorCode;
 933               		.loc 3 66 0
 934 0072 0E94 0000 		call Endpoint_WaitUntilReady
 935               	.LVL106:
 936 0076 8823      		tst r24
 937 0078 01F0      		breq .L71
 938 007a 00C0      		rjmp .L69
 939               	.LVL107:
 940               	.L72:
 941               	.LBB290:
 942               	.LBB291:
 612:../../LUFA-111009/LUFA/Drivers/USB/Core/AVR8/../AVR8/../AVR8/Endpoint_AVR8.h **** 			}
 943               		.loc 2 612 0
 944 007c 8091 F100 		lds r24,241
 945               	.LBE291:
 946               	.LBE290:
  71:../../LUFA-111009/LUFA/Drivers/USB/Core/AVR8/Template/Template_Endpoint_RW.c **** 			TEMPLATE_BUFFER_MOVE(DataStream, 1);
 947               		.loc 3 71 0
 948 0080 8883      		st Y,r24
  72:../../LUFA-111009/LUFA/Drivers/USB/Core/AVR8/Template/Template_Endpoint_RW.c **** 			Length--;
 949               		.loc 3 72 0
 950 0082 2197      		sbiw r28,1
 951               	.LVL108:
  73:../../LUFA-111009/LUFA/Drivers/USB/Core/AVR8/Template/Template_Endpoint_RW.c **** 			BytesInTransfer++;
 952               		.loc 3 73 0
 953 0084 0150      		subi r16,1
 954 0086 1109      		sbc r17,__zero_reg__
 955               	.LVL109:
  74:../../LUFA-111009/LUFA/Drivers/USB/Core/AVR8/Template/Template_Endpoint_RW.c **** 		}
 956               		.loc 3 74 0
 957 0088 FFEF      		ldi r31,-1
 958 008a CF1A      		sub r12,r31
 959 008c DF0A      		sbc r13,r31
 960               	.LVL110:
 961 008e 00C0      		rjmp .L71
 962               	.L81:
  78:../../LUFA-111009/LUFA/Drivers/USB/Core/AVR8/Template/Template_Endpoint_RW.c **** }
 963               		.loc 3 78 0
 964 0090 80E0      		ldi r24,0
 965               	.LVL111:
 966               	.L69:
 967               	/* epilogue start */
 968               		.loc 3 79 0
 969 0092 DF91      		pop r29
 970 0094 CF91      		pop r28
 971 0096 1F91      		pop r17
 972 0098 0F91      		pop r16
 973               	.LVL112:
 974 009a FF90      		pop r15
 975 009c EF90      		pop r14
 976               	.LVL113:
 977 009e DF90      		pop r13
 978 00a0 CF90      		pop r12
 979 00a2 0895      		ret
 980               		.cfi_endproc
 981               	.LFE86:
 983               		.section	.text.Endpoint_Write_PStream_LE,"ax",@progbits
 984               	.global	Endpoint_Write_PStream_LE
 986               	Endpoint_Write_PStream_LE:
 987               	.LFB87:
  36:../../LUFA-111009/LUFA/Drivers/USB/Core/AVR8/Template/Template_Endpoint_RW.c **** 	uint8_t* DataStream      = ((uint8_t*)Buffer + TEMPLATE_BUFFER_OFFSET(Length));
 988               		.loc 3 36 0
 989               		.cfi_startproc
 990               	.LVL114:
 991 0000 CF92      		push r12
 992               	.LCFI44:
 993               		.cfi_def_cfa_offset 3
 994               		.cfi_offset 12, -2
 995 0002 DF92      		push r13
 996               	.LCFI45:
 997               		.cfi_def_cfa_offset 4
 998               		.cfi_offset 13, -3
 999 0004 EF92      		push r14
 1000               	.LCFI46:
 1001               		.cfi_def_cfa_offset 5
 1002               		.cfi_offset 14, -4
 1003 0006 FF92      		push r15
 1004               	.LCFI47:
 1005               		.cfi_def_cfa_offset 6
 1006               		.cfi_offset 15, -5
 1007 0008 0F93      		push r16
 1008               	.LCFI48:
 1009               		.cfi_def_cfa_offset 7
 1010               		.cfi_offset 16, -6
 1011 000a 1F93      		push r17
 1012               	.LCFI49:
 1013               		.cfi_def_cfa_offset 8
 1014               		.cfi_offset 17, -7
 1015 000c CF93      		push r28
 1016               	.LCFI50:
 1017               		.cfi_def_cfa_offset 9
 1018               		.cfi_offset 28, -8
 1019 000e DF93      		push r29
 1020               	.LCFI51:
 1021               		.cfi_def_cfa_offset 10
 1022               		.cfi_offset 29, -9
 1023               	/* prologue: function */
 1024               	/* frame size = 0 */
 1025               	/* stack size = 8 */
 1026               	.L__stack_usage = 8
 1027 0010 EC01      		movw r28,r24
 1028 0012 8B01      		movw r16,r22
 1029 0014 7A01      		movw r14,r20
 1030               	.LVL115:
  41:../../LUFA-111009/LUFA/Drivers/USB/Core/AVR8/Template/Template_Endpoint_RW.c **** 	  return ErrorCode;
 1031               		.loc 3 41 0
 1032 0016 0E94 0000 		call Endpoint_WaitUntilReady
 1033               	.LVL116:
 1034 001a 8111      		cpse r24,__zero_reg__
 1035 001c 00C0      		rjmp .L83
  44:../../LUFA-111009/LUFA/Drivers/USB/Core/AVR8/Template/Template_Endpoint_RW.c **** 	{
 1036               		.loc 3 44 0
 1037 001e E114      		cp r14,__zero_reg__
 1038 0020 F104      		cpc r15,__zero_reg__
 1039 0022 01F0      		breq .L84
  46:../../LUFA-111009/LUFA/Drivers/USB/Core/AVR8/Template/Template_Endpoint_RW.c **** 		TEMPLATE_BUFFER_MOVE(DataStream, *BytesProcessed);
 1040               		.loc 3 46 0
 1041 0024 F701      		movw r30,r14
 1042 0026 8081      		ld r24,Z
 1043 0028 9181      		ldd r25,Z+1
 1044               	.LVL117:
 1045 002a 081B      		sub r16,r24
 1046 002c 190B      		sbc r17,r25
 1047               	.LVL118:
  47:../../LUFA-111009/LUFA/Drivers/USB/Core/AVR8/Template/Template_Endpoint_RW.c **** 	}
 1048               		.loc 3 47 0
 1049 002e C80F      		add r28,r24
 1050 0030 D91F      		adc r29,r25
 1051               	.LVL119:
 1052               	.L84:
  37:../../LUFA-111009/LUFA/Drivers/USB/Core/AVR8/Template/Template_Endpoint_RW.c **** 	uint16_t BytesInTransfer = 0;
 1053               		.loc 3 37 0
 1054 0032 C12C      		mov r12,__zero_reg__
 1055 0034 D12C      		mov r13,__zero_reg__
 1056               	.LVL120:
 1057               	.L85:
  50:../../LUFA-111009/LUFA/Drivers/USB/Core/AVR8/Template/Template_Endpoint_RW.c **** 	{
 1058               		.loc 3 50 0
 1059 0036 0115      		cp r16,__zero_reg__
 1060 0038 1105      		cpc r17,__zero_reg__
 1061 003a 01F0      		breq .L93
 1062               	.LBB292:
 1063               	.LBB293:
 420:../../LUFA-111009/LUFA/Drivers/USB/Core/AVR8/../AVR8/../AVR8/Endpoint_AVR8.h **** 			}
 1064               		.loc 2 420 0
 1065 003c 8091 E800 		lds r24,232
 1066               	.LBE293:
 1067               	.LBE292:
  52:../../LUFA-111009/LUFA/Drivers/USB/Core/AVR8/Template/Template_Endpoint_RW.c **** 		{
 1068               		.loc 3 52 0
 1069 0040 85FD      		sbrc r24,5
 1070 0042 00C0      		rjmp .L86
 1071               	.LBB294:
 1072               	.LBB295:
 516:../../LUFA-111009/LUFA/Drivers/USB/Core/AVR8/../AVR8/../AVR8/Endpoint_AVR8.h **** 				#else
 1073               		.loc 2 516 0
 1074 0044 8091 E800 		lds r24,232
 1075 0048 8E77      		andi r24,lo8(126)
 1076 004a 8093 E800 		sts 232,r24
 1077               	.LBE295:
 1078               	.LBE294:
  57:../../LUFA-111009/LUFA/Drivers/USB/Core/AVR8/Template/Template_Endpoint_RW.c **** 			#endif
 1079               		.loc 3 57 0
 1080 004e 0E94 0000 		call USB_USBTask
 1081               	.LVL121:
  60:../../LUFA-111009/LUFA/Drivers/USB/Core/AVR8/Template/Template_Endpoint_RW.c **** 			{
 1082               		.loc 3 60 0
 1083 0052 E114      		cp r14,__zero_reg__
 1084 0054 F104      		cpc r15,__zero_reg__
 1085 0056 01F0      		breq .L87
  62:../../LUFA-111009/LUFA/Drivers/USB/Core/AVR8/Template/Template_Endpoint_RW.c **** 				return ENDPOINT_RWSTREAM_IncompleteTransfer;
 1086               		.loc 3 62 0
 1087 0058 F701      		movw r30,r14
 1088 005a 8081      		ld r24,Z
 1089 005c 9181      		ldd r25,Z+1
 1090 005e C80E      		add r12,r24
 1091 0060 D91E      		adc r13,r25
 1092               	.LVL122:
 1093 0062 D182      		std Z+1,r13
 1094 0064 C082      		st Z,r12
  63:../../LUFA-111009/LUFA/Drivers/USB/Core/AVR8/Template/Template_Endpoint_RW.c **** 			}
 1095               		.loc 3 63 0
 1096 0066 85E0      		ldi r24,lo8(5)
 1097 0068 00C0      		rjmp .L83
 1098               	.LVL123:
 1099               	.L87:
  66:../../LUFA-111009/LUFA/Drivers/USB/Core/AVR8/Template/Template_Endpoint_RW.c **** 			  return ErrorCode;
 1100               		.loc 3 66 0
 1101 006a 0E94 0000 		call Endpoint_WaitUntilReady
 1102               	.LVL124:
 1103 006e 8823      		tst r24
 1104 0070 01F0      		breq .L85
 1105 0072 00C0      		rjmp .L83
 1106               	.LVL125:
 1107               	.L86:
 1108               	.LBB296:
  71:../../LUFA-111009/LUFA/Drivers/USB/Core/AVR8/Template/Template_Endpoint_RW.c **** 			TEMPLATE_BUFFER_MOVE(DataStream, 1);
 1109               		.loc 3 71 0
 1110 0074 FE01      		movw r30,r28
 1111               	/* #APP */
 1112               	 ;  71 "../../LUFA-111009/LUFA/Drivers/USB/Core/AVR8/Template/Template_Endpoint_RW.c" 1
 1113 0076 8491      		lpm r24, Z
 1114               		
 1115               	 ;  0 "" 2
 1116               	.LVL126:
 1117               	/* #NOAPP */
 1118               	.LBE296:
 1119               	.LBB297:
 1120               	.LBB298:
 624:../../LUFA-111009/LUFA/Drivers/USB/Core/AVR8/../AVR8/../AVR8/Endpoint_AVR8.h **** 			}
 1121               		.loc 2 624 0
 1122 0078 8093 F100 		sts 241,r24
 1123               	.LVL127:
 1124               	.LBE298:
 1125               	.LBE297:
  72:../../LUFA-111009/LUFA/Drivers/USB/Core/AVR8/Template/Template_Endpoint_RW.c **** 			Length--;
 1126               		.loc 3 72 0
 1127 007c 2196      		adiw r28,1
 1128               	.LVL128:
  73:../../LUFA-111009/LUFA/Drivers/USB/Core/AVR8/Template/Template_Endpoint_RW.c **** 			BytesInTransfer++;
 1129               		.loc 3 73 0
 1130 007e 0150      		subi r16,1
 1131 0080 1109      		sbc r17,__zero_reg__
 1132               	.LVL129:
  74:../../LUFA-111009/LUFA/Drivers/USB/Core/AVR8/Template/Template_Endpoint_RW.c **** 		}
 1133               		.loc 3 74 0
 1134 0082 FFEF      		ldi r31,-1
 1135 0084 CF1A      		sub r12,r31
 1136 0086 DF0A      		sbc r13,r31
 1137               	.LVL130:
 1138 0088 00C0      		rjmp .L85
 1139               	.LVL131:
 1140               	.L93:
  78:../../LUFA-111009/LUFA/Drivers/USB/Core/AVR8/Template/Template_Endpoint_RW.c **** }
 1141               		.loc 3 78 0
 1142 008a 80E0      		ldi r24,0
 1143               	.LVL132:
 1144               	.L83:
 1145               	/* epilogue start */
 1146               		.loc 3 79 0
 1147 008c DF91      		pop r29
 1148 008e CF91      		pop r28
 1149               	.LVL133:
 1150 0090 1F91      		pop r17
 1151 0092 0F91      		pop r16
 1152               	.LVL134:
 1153 0094 FF90      		pop r15
 1154 0096 EF90      		pop r14
 1155               	.LVL135:
 1156 0098 DF90      		pop r13
 1157 009a CF90      		pop r12
 1158 009c 0895      		ret
 1159               		.cfi_endproc
 1160               	.LFE87:
 1162               		.section	.text.Endpoint_Write_PStream_BE,"ax",@progbits
 1163               	.global	Endpoint_Write_PStream_BE
 1165               	Endpoint_Write_PStream_BE:
 1166               	.LFB88:
  36:../../LUFA-111009/LUFA/Drivers/USB/Core/AVR8/Template/Template_Endpoint_RW.c **** 	uint8_t* DataStream      = ((uint8_t*)Buffer + TEMPLATE_BUFFER_OFFSET(Length));
 1167               		.loc 3 36 0
 1168               		.cfi_startproc
 1169               	.LVL136:
 1170 0000 CF92      		push r12
 1171               	.LCFI52:
 1172               		.cfi_def_cfa_offset 3
 1173               		.cfi_offset 12, -2
 1174 0002 DF92      		push r13
 1175               	.LCFI53:
 1176               		.cfi_def_cfa_offset 4
 1177               		.cfi_offset 13, -3
 1178 0004 EF92      		push r14
 1179               	.LCFI54:
 1180               		.cfi_def_cfa_offset 5
 1181               		.cfi_offset 14, -4
 1182 0006 FF92      		push r15
 1183               	.LCFI55:
 1184               		.cfi_def_cfa_offset 6
 1185               		.cfi_offset 15, -5
 1186 0008 0F93      		push r16
 1187               	.LCFI56:
 1188               		.cfi_def_cfa_offset 7
 1189               		.cfi_offset 16, -6
 1190 000a 1F93      		push r17
 1191               	.LCFI57:
 1192               		.cfi_def_cfa_offset 8
 1193               		.cfi_offset 17, -7
 1194 000c CF93      		push r28
 1195               	.LCFI58:
 1196               		.cfi_def_cfa_offset 9
 1197               		.cfi_offset 28, -8
 1198 000e DF93      		push r29
 1199               	.LCFI59:
 1200               		.cfi_def_cfa_offset 10
 1201               		.cfi_offset 29, -9
 1202               	/* prologue: function */
 1203               	/* frame size = 0 */
 1204               	/* stack size = 8 */
 1205               	.L__stack_usage = 8
 1206 0010 EC01      		movw r28,r24
 1207 0012 8B01      		movw r16,r22
 1208 0014 7A01      		movw r14,r20
 1209               	.LVL137:
  41:../../LUFA-111009/LUFA/Drivers/USB/Core/AVR8/Template/Template_Endpoint_RW.c **** 	  return ErrorCode;
 1210               		.loc 3 41 0
 1211 0016 0E94 0000 		call Endpoint_WaitUntilReady
 1212               	.LVL138:
 1213 001a 8111      		cpse r24,__zero_reg__
 1214 001c 00C0      		rjmp .L95
  37:../../LUFA-111009/LUFA/Drivers/USB/Core/AVR8/Template/Template_Endpoint_RW.c **** 	uint16_t BytesInTransfer = 0;
 1215               		.loc 3 37 0
 1216 001e C801      		movw r24,r16
 1217               	.LVL139:
 1218 0020 0197      		sbiw r24,1
 1219               	.LVL140:
 1220 0022 C80F      		add r28,r24
 1221 0024 D91F      		adc r29,r25
 1222               	.LVL141:
  44:../../LUFA-111009/LUFA/Drivers/USB/Core/AVR8/Template/Template_Endpoint_RW.c **** 	{
 1223               		.loc 3 44 0
 1224 0026 E114      		cp r14,__zero_reg__
 1225 0028 F104      		cpc r15,__zero_reg__
 1226 002a 01F0      		breq .L96
  46:../../LUFA-111009/LUFA/Drivers/USB/Core/AVR8/Template/Template_Endpoint_RW.c **** 		TEMPLATE_BUFFER_MOVE(DataStream, *BytesProcessed);
 1227               		.loc 3 46 0
 1228 002c F701      		movw r30,r14
 1229 002e 8081      		ld r24,Z
 1230 0030 9181      		ldd r25,Z+1
 1231               	.LVL142:
 1232 0032 081B      		sub r16,r24
 1233 0034 190B      		sbc r17,r25
 1234               	.LVL143:
  47:../../LUFA-111009/LUFA/Drivers/USB/Core/AVR8/Template/Template_Endpoint_RW.c **** 	}
 1235               		.loc 3 47 0
 1236 0036 C81B      		sub r28,r24
 1237 0038 D90B      		sbc r29,r25
 1238               	.LVL144:
 1239               	.L96:
  36:../../LUFA-111009/LUFA/Drivers/USB/Core/AVR8/Template/Template_Endpoint_RW.c **** 	uint8_t* DataStream      = ((uint8_t*)Buffer + TEMPLATE_BUFFER_OFFSET(Length));
 1240               		.loc 3 36 0
 1241 003a C12C      		mov r12,__zero_reg__
 1242 003c D12C      		mov r13,__zero_reg__
 1243               	.LVL145:
 1244               	.L97:
  50:../../LUFA-111009/LUFA/Drivers/USB/Core/AVR8/Template/Template_Endpoint_RW.c **** 	{
 1245               		.loc 3 50 0
 1246 003e 0115      		cp r16,__zero_reg__
 1247 0040 1105      		cpc r17,__zero_reg__
 1248 0042 01F0      		breq .L107
 1249               	.LBB299:
 1250               	.LBB300:
 420:../../LUFA-111009/LUFA/Drivers/USB/Core/AVR8/../AVR8/../AVR8/Endpoint_AVR8.h **** 			}
 1251               		.loc 2 420 0
 1252 0044 8091 E800 		lds r24,232
 1253               	.LBE300:
 1254               	.LBE299:
  52:../../LUFA-111009/LUFA/Drivers/USB/Core/AVR8/Template/Template_Endpoint_RW.c **** 		{
 1255               		.loc 3 52 0
 1256 0048 85FD      		sbrc r24,5
 1257 004a 00C0      		rjmp .L98
 1258               	.LBB301:
 1259               	.LBB302:
 516:../../LUFA-111009/LUFA/Drivers/USB/Core/AVR8/../AVR8/../AVR8/Endpoint_AVR8.h **** 				#else
 1260               		.loc 2 516 0
 1261 004c 8091 E800 		lds r24,232
 1262 0050 8E77      		andi r24,lo8(126)
 1263 0052 8093 E800 		sts 232,r24
 1264               	.LBE302:
 1265               	.LBE301:
  57:../../LUFA-111009/LUFA/Drivers/USB/Core/AVR8/Template/Template_Endpoint_RW.c **** 			#endif
 1266               		.loc 3 57 0
 1267 0056 0E94 0000 		call USB_USBTask
 1268               	.LVL146:
  60:../../LUFA-111009/LUFA/Drivers/USB/Core/AVR8/Template/Template_Endpoint_RW.c **** 			{
 1269               		.loc 3 60 0
 1270 005a E114      		cp r14,__zero_reg__
 1271 005c F104      		cpc r15,__zero_reg__
 1272 005e 01F0      		breq .L99
  62:../../LUFA-111009/LUFA/Drivers/USB/Core/AVR8/Template/Template_Endpoint_RW.c **** 				return ENDPOINT_RWSTREAM_IncompleteTransfer;
 1273               		.loc 3 62 0
 1274 0060 F701      		movw r30,r14
 1275 0062 8081      		ld r24,Z
 1276 0064 9181      		ldd r25,Z+1
 1277 0066 C80E      		add r12,r24
 1278 0068 D91E      		adc r13,r25
 1279               	.LVL147:
 1280 006a D182      		std Z+1,r13
 1281 006c C082      		st Z,r12
  63:../../LUFA-111009/LUFA/Drivers/USB/Core/AVR8/Template/Template_Endpoint_RW.c **** 			}
 1282               		.loc 3 63 0
 1283 006e 85E0      		ldi r24,lo8(5)
 1284 0070 00C0      		rjmp .L95
 1285               	.LVL148:
 1286               	.L99:
  66:../../LUFA-111009/LUFA/Drivers/USB/Core/AVR8/Template/Template_Endpoint_RW.c **** 			  return ErrorCode;
 1287               		.loc 3 66 0
 1288 0072 0E94 0000 		call Endpoint_WaitUntilReady
 1289               	.LVL149:
 1290 0076 8823      		tst r24
 1291 0078 01F0      		breq .L97
 1292 007a 00C0      		rjmp .L95
 1293               	.LVL150:
 1294               	.L98:
 1295               	.LBB303:
  71:../../LUFA-111009/LUFA/Drivers/USB/Core/AVR8/Template/Template_Endpoint_RW.c **** 			TEMPLATE_BUFFER_MOVE(DataStream, 1);
 1296               		.loc 3 71 0
 1297 007c FE01      		movw r30,r28
 1298               	/* #APP */
 1299               	 ;  71 "../../LUFA-111009/LUFA/Drivers/USB/Core/AVR8/Template/Template_Endpoint_RW.c" 1
 1300 007e 8491      		lpm r24, Z
 1301               		
 1302               	 ;  0 "" 2
 1303               	.LVL151:
 1304               	/* #NOAPP */
 1305               	.LBE303:
 1306               	.LBB304:
 1307               	.LBB305:
 624:../../LUFA-111009/LUFA/Drivers/USB/Core/AVR8/../AVR8/../AVR8/Endpoint_AVR8.h **** 			}
 1308               		.loc 2 624 0
 1309 0080 8093 F100 		sts 241,r24
 1310               	.LVL152:
 1311               	.LBE305:
 1312               	.LBE304:
  72:../../LUFA-111009/LUFA/Drivers/USB/Core/AVR8/Template/Template_Endpoint_RW.c **** 			Length--;
 1313               		.loc 3 72 0
 1314 0084 2197      		sbiw r28,1
 1315               	.LVL153:
  73:../../LUFA-111009/LUFA/Drivers/USB/Core/AVR8/Template/Template_Endpoint_RW.c **** 			BytesInTransfer++;
 1316               		.loc 3 73 0
 1317 0086 0150      		subi r16,1
 1318 0088 1109      		sbc r17,__zero_reg__
 1319               	.LVL154:
  74:../../LUFA-111009/LUFA/Drivers/USB/Core/AVR8/Template/Template_Endpoint_RW.c **** 		}
 1320               		.loc 3 74 0
 1321 008a FFEF      		ldi r31,-1
 1322 008c CF1A      		sub r12,r31
 1323 008e DF0A      		sbc r13,r31
 1324               	.LVL155:
 1325 0090 00C0      		rjmp .L97
 1326               	.LVL156:
 1327               	.L107:
  78:../../LUFA-111009/LUFA/Drivers/USB/Core/AVR8/Template/Template_Endpoint_RW.c **** }
 1328               		.loc 3 78 0
 1329 0092 80E0      		ldi r24,0
 1330               	.LVL157:
 1331               	.L95:
 1332               	/* epilogue start */
 1333               		.loc 3 79 0
 1334 0094 DF91      		pop r29
 1335 0096 CF91      		pop r28
 1336 0098 1F91      		pop r17
 1337 009a 0F91      		pop r16
 1338               	.LVL158:
 1339 009c FF90      		pop r15
 1340 009e EF90      		pop r14
 1341               	.LVL159:
 1342 00a0 DF90      		pop r13
 1343 00a2 CF90      		pop r12
 1344 00a4 0895      		ret
 1345               		.cfi_endproc
 1346               	.LFE88:
 1348               		.section	.text.Endpoint_Write_EStream_LE,"ax",@progbits
 1349               	.global	Endpoint_Write_EStream_LE
 1351               	Endpoint_Write_EStream_LE:
 1352               	.LFB89:
  36:../../LUFA-111009/LUFA/Drivers/USB/Core/AVR8/Template/Template_Endpoint_RW.c **** 	uint8_t* DataStream      = ((uint8_t*)Buffer + TEMPLATE_BUFFER_OFFSET(Length));
 1353               		.loc 3 36 0
 1354               		.cfi_startproc
 1355               	.LVL160:
 1356 0000 CF92      		push r12
 1357               	.LCFI60:
 1358               		.cfi_def_cfa_offset 3
 1359               		.cfi_offset 12, -2
 1360 0002 DF92      		push r13
 1361               	.LCFI61:
 1362               		.cfi_def_cfa_offset 4
 1363               		.cfi_offset 13, -3
 1364 0004 EF92      		push r14
 1365               	.LCFI62:
 1366               		.cfi_def_cfa_offset 5
 1367               		.cfi_offset 14, -4
 1368 0006 FF92      		push r15
 1369               	.LCFI63:
 1370               		.cfi_def_cfa_offset 6
 1371               		.cfi_offset 15, -5
 1372 0008 0F93      		push r16
 1373               	.LCFI64:
 1374               		.cfi_def_cfa_offset 7
 1375               		.cfi_offset 16, -6
 1376 000a 1F93      		push r17
 1377               	.LCFI65:
 1378               		.cfi_def_cfa_offset 8
 1379               		.cfi_offset 17, -7
 1380 000c CF93      		push r28
 1381               	.LCFI66:
 1382               		.cfi_def_cfa_offset 9
 1383               		.cfi_offset 28, -8
 1384 000e DF93      		push r29
 1385               	.LCFI67:
 1386               		.cfi_def_cfa_offset 10
 1387               		.cfi_offset 29, -9
 1388               	/* prologue: function */
 1389               	/* frame size = 0 */
 1390               	/* stack size = 8 */
 1391               	.L__stack_usage = 8
 1392 0010 EC01      		movw r28,r24
 1393 0012 8B01      		movw r16,r22
 1394 0014 7A01      		movw r14,r20
 1395               	.LVL161:
  41:../../LUFA-111009/LUFA/Drivers/USB/Core/AVR8/Template/Template_Endpoint_RW.c **** 	  return ErrorCode;
 1396               		.loc 3 41 0
 1397 0016 0E94 0000 		call Endpoint_WaitUntilReady
 1398               	.LVL162:
 1399 001a 8111      		cpse r24,__zero_reg__
 1400 001c 00C0      		rjmp .L109
  44:../../LUFA-111009/LUFA/Drivers/USB/Core/AVR8/Template/Template_Endpoint_RW.c **** 	{
 1401               		.loc 3 44 0
 1402 001e E114      		cp r14,__zero_reg__
 1403 0020 F104      		cpc r15,__zero_reg__
 1404 0022 01F0      		breq .L110
  46:../../LUFA-111009/LUFA/Drivers/USB/Core/AVR8/Template/Template_Endpoint_RW.c **** 		TEMPLATE_BUFFER_MOVE(DataStream, *BytesProcessed);
 1405               		.loc 3 46 0
 1406 0024 F701      		movw r30,r14
 1407 0026 8081      		ld r24,Z
 1408 0028 9181      		ldd r25,Z+1
 1409               	.LVL163:
 1410 002a 081B      		sub r16,r24
 1411 002c 190B      		sbc r17,r25
 1412               	.LVL164:
  47:../../LUFA-111009/LUFA/Drivers/USB/Core/AVR8/Template/Template_Endpoint_RW.c **** 	}
 1413               		.loc 3 47 0
 1414 002e C80F      		add r28,r24
 1415 0030 D91F      		adc r29,r25
 1416               	.LVL165:
 1417               	.L110:
  37:../../LUFA-111009/LUFA/Drivers/USB/Core/AVR8/Template/Template_Endpoint_RW.c **** 	uint16_t BytesInTransfer = 0;
 1418               		.loc 3 37 0
 1419 0032 C12C      		mov r12,__zero_reg__
 1420 0034 D12C      		mov r13,__zero_reg__
 1421               	.LVL166:
 1422               	.L111:
  50:../../LUFA-111009/LUFA/Drivers/USB/Core/AVR8/Template/Template_Endpoint_RW.c **** 	{
 1423               		.loc 3 50 0
 1424 0036 0115      		cp r16,__zero_reg__
 1425 0038 1105      		cpc r17,__zero_reg__
 1426 003a 01F0      		breq .L119
 1427               	.LBB306:
 1428               	.LBB307:
 420:../../LUFA-111009/LUFA/Drivers/USB/Core/AVR8/../AVR8/../AVR8/Endpoint_AVR8.h **** 			}
 1429               		.loc 2 420 0
 1430 003c 8091 E800 		lds r24,232
 1431               	.LBE307:
 1432               	.LBE306:
  52:../../LUFA-111009/LUFA/Drivers/USB/Core/AVR8/Template/Template_Endpoint_RW.c **** 		{
 1433               		.loc 3 52 0
 1434 0040 85FD      		sbrc r24,5
 1435 0042 00C0      		rjmp .L112
 1436               	.LBB308:
 1437               	.LBB309:
 516:../../LUFA-111009/LUFA/Drivers/USB/Core/AVR8/../AVR8/../AVR8/Endpoint_AVR8.h **** 				#else
 1438               		.loc 2 516 0
 1439 0044 8091 E800 		lds r24,232
 1440 0048 8E77      		andi r24,lo8(126)
 1441 004a 8093 E800 		sts 232,r24
 1442               	.LBE309:
 1443               	.LBE308:
  57:../../LUFA-111009/LUFA/Drivers/USB/Core/AVR8/Template/Template_Endpoint_RW.c **** 			#endif
 1444               		.loc 3 57 0
 1445 004e 0E94 0000 		call USB_USBTask
 1446               	.LVL167:
  60:../../LUFA-111009/LUFA/Drivers/USB/Core/AVR8/Template/Template_Endpoint_RW.c **** 			{
 1447               		.loc 3 60 0
 1448 0052 E114      		cp r14,__zero_reg__
 1449 0054 F104      		cpc r15,__zero_reg__
 1450 0056 01F0      		breq .L113
  62:../../LUFA-111009/LUFA/Drivers/USB/Core/AVR8/Template/Template_Endpoint_RW.c **** 				return ENDPOINT_RWSTREAM_IncompleteTransfer;
 1451               		.loc 3 62 0
 1452 0058 F701      		movw r30,r14
 1453 005a 8081      		ld r24,Z
 1454 005c 9181      		ldd r25,Z+1
 1455 005e C80E      		add r12,r24
 1456 0060 D91E      		adc r13,r25
 1457               	.LVL168:
 1458 0062 D182      		std Z+1,r13
 1459 0064 C082      		st Z,r12
  63:../../LUFA-111009/LUFA/Drivers/USB/Core/AVR8/Template/Template_Endpoint_RW.c **** 			}
 1460               		.loc 3 63 0
 1461 0066 85E0      		ldi r24,lo8(5)
 1462 0068 00C0      		rjmp .L109
 1463               	.LVL169:
 1464               	.L113:
  66:../../LUFA-111009/LUFA/Drivers/USB/Core/AVR8/Template/Template_Endpoint_RW.c **** 			  return ErrorCode;
 1465               		.loc 3 66 0
 1466 006a 0E94 0000 		call Endpoint_WaitUntilReady
 1467               	.LVL170:
 1468 006e 8823      		tst r24
 1469 0070 01F0      		breq .L111
 1470 0072 00C0      		rjmp .L109
 1471               	.LVL171:
 1472               	.L112:
  71:../../LUFA-111009/LUFA/Drivers/USB/Core/AVR8/Template/Template_Endpoint_RW.c **** 			TEMPLATE_BUFFER_MOVE(DataStream, 1);
 1473               		.loc 3 71 0
 1474 0074 CE01      		movw r24,r28
 1475 0076 0E94 0000 		call eeprom_read_byte
 1476               	.LVL172:
 1477               	.LBB310:
 1478               	.LBB311:
 624:../../LUFA-111009/LUFA/Drivers/USB/Core/AVR8/../AVR8/../AVR8/Endpoint_AVR8.h **** 			}
 1479               		.loc 2 624 0
 1480 007a 8093 F100 		sts 241,r24
 1481               	.LVL173:
 1482               	.LBE311:
 1483               	.LBE310:
  72:../../LUFA-111009/LUFA/Drivers/USB/Core/AVR8/Template/Template_Endpoint_RW.c **** 			Length--;
 1484               		.loc 3 72 0
 1485 007e 2196      		adiw r28,1
 1486               	.LVL174:
  73:../../LUFA-111009/LUFA/Drivers/USB/Core/AVR8/Template/Template_Endpoint_RW.c **** 			BytesInTransfer++;
 1487               		.loc 3 73 0
 1488 0080 0150      		subi r16,1
 1489 0082 1109      		sbc r17,__zero_reg__
 1490               	.LVL175:
  74:../../LUFA-111009/LUFA/Drivers/USB/Core/AVR8/Template/Template_Endpoint_RW.c **** 		}
 1491               		.loc 3 74 0
 1492 0084 FFEF      		ldi r31,-1
 1493 0086 CF1A      		sub r12,r31
 1494 0088 DF0A      		sbc r13,r31
 1495               	.LVL176:
 1496 008a 00C0      		rjmp .L111
 1497               	.L119:
  78:../../LUFA-111009/LUFA/Drivers/USB/Core/AVR8/Template/Template_Endpoint_RW.c **** }
 1498               		.loc 3 78 0
 1499 008c 80E0      		ldi r24,0
 1500               	.LVL177:
 1501               	.L109:
 1502               	/* epilogue start */
 1503               		.loc 3 79 0
 1504 008e DF91      		pop r29
 1505 0090 CF91      		pop r28
 1506               	.LVL178:
 1507 0092 1F91      		pop r17
 1508 0094 0F91      		pop r16
 1509               	.LVL179:
 1510 0096 FF90      		pop r15
 1511 0098 EF90      		pop r14
 1512               	.LVL180:
 1513 009a DF90      		pop r13
 1514 009c CF90      		pop r12
 1515 009e 0895      		ret
 1516               		.cfi_endproc
 1517               	.LFE89:
 1519               		.section	.text.Endpoint_Write_EStream_BE,"ax",@progbits
 1520               	.global	Endpoint_Write_EStream_BE
 1522               	Endpoint_Write_EStream_BE:
 1523               	.LFB90:
  36:../../LUFA-111009/LUFA/Drivers/USB/Core/AVR8/Template/Template_Endpoint_RW.c **** 	uint8_t* DataStream      = ((uint8_t*)Buffer + TEMPLATE_BUFFER_OFFSET(Length));
 1524               		.loc 3 36 0
 1525               		.cfi_startproc
 1526               	.LVL181:
 1527 0000 CF92      		push r12
 1528               	.LCFI68:
 1529               		.cfi_def_cfa_offset 3
 1530               		.cfi_offset 12, -2
 1531 0002 DF92      		push r13
 1532               	.LCFI69:
 1533               		.cfi_def_cfa_offset 4
 1534               		.cfi_offset 13, -3
 1535 0004 EF92      		push r14
 1536               	.LCFI70:
 1537               		.cfi_def_cfa_offset 5
 1538               		.cfi_offset 14, -4
 1539 0006 FF92      		push r15
 1540               	.LCFI71:
 1541               		.cfi_def_cfa_offset 6
 1542               		.cfi_offset 15, -5
 1543 0008 0F93      		push r16
 1544               	.LCFI72:
 1545               		.cfi_def_cfa_offset 7
 1546               		.cfi_offset 16, -6
 1547 000a 1F93      		push r17
 1548               	.LCFI73:
 1549               		.cfi_def_cfa_offset 8
 1550               		.cfi_offset 17, -7
 1551 000c CF93      		push r28
 1552               	.LCFI74:
 1553               		.cfi_def_cfa_offset 9
 1554               		.cfi_offset 28, -8
 1555 000e DF93      		push r29
 1556               	.LCFI75:
 1557               		.cfi_def_cfa_offset 10
 1558               		.cfi_offset 29, -9
 1559               	/* prologue: function */
 1560               	/* frame size = 0 */
 1561               	/* stack size = 8 */
 1562               	.L__stack_usage = 8
 1563 0010 EC01      		movw r28,r24
 1564 0012 8B01      		movw r16,r22
 1565 0014 7A01      		movw r14,r20
 1566               	.LVL182:
  41:../../LUFA-111009/LUFA/Drivers/USB/Core/AVR8/Template/Template_Endpoint_RW.c **** 	  return ErrorCode;
 1567               		.loc 3 41 0
 1568 0016 0E94 0000 		call Endpoint_WaitUntilReady
 1569               	.LVL183:
 1570 001a 8111      		cpse r24,__zero_reg__
 1571 001c 00C0      		rjmp .L121
  37:../../LUFA-111009/LUFA/Drivers/USB/Core/AVR8/Template/Template_Endpoint_RW.c **** 	uint16_t BytesInTransfer = 0;
 1572               		.loc 3 37 0
 1573 001e C801      		movw r24,r16
 1574               	.LVL184:
 1575 0020 0197      		sbiw r24,1
 1576               	.LVL185:
 1577 0022 C80F      		add r28,r24
 1578 0024 D91F      		adc r29,r25
 1579               	.LVL186:
  44:../../LUFA-111009/LUFA/Drivers/USB/Core/AVR8/Template/Template_Endpoint_RW.c **** 	{
 1580               		.loc 3 44 0
 1581 0026 E114      		cp r14,__zero_reg__
 1582 0028 F104      		cpc r15,__zero_reg__
 1583 002a 01F0      		breq .L122
  46:../../LUFA-111009/LUFA/Drivers/USB/Core/AVR8/Template/Template_Endpoint_RW.c **** 		TEMPLATE_BUFFER_MOVE(DataStream, *BytesProcessed);
 1584               		.loc 3 46 0
 1585 002c F701      		movw r30,r14
 1586 002e 8081      		ld r24,Z
 1587 0030 9181      		ldd r25,Z+1
 1588               	.LVL187:
 1589 0032 081B      		sub r16,r24
 1590 0034 190B      		sbc r17,r25
 1591               	.LVL188:
  47:../../LUFA-111009/LUFA/Drivers/USB/Core/AVR8/Template/Template_Endpoint_RW.c **** 	}
 1592               		.loc 3 47 0
 1593 0036 C81B      		sub r28,r24
 1594 0038 D90B      		sbc r29,r25
 1595               	.LVL189:
 1596               	.L122:
  36:../../LUFA-111009/LUFA/Drivers/USB/Core/AVR8/Template/Template_Endpoint_RW.c **** 	uint8_t* DataStream      = ((uint8_t*)Buffer + TEMPLATE_BUFFER_OFFSET(Length));
 1597               		.loc 3 36 0
 1598 003a C12C      		mov r12,__zero_reg__
 1599 003c D12C      		mov r13,__zero_reg__
 1600               	.LVL190:
 1601               	.L123:
  50:../../LUFA-111009/LUFA/Drivers/USB/Core/AVR8/Template/Template_Endpoint_RW.c **** 	{
 1602               		.loc 3 50 0
 1603 003e 0115      		cp r16,__zero_reg__
 1604 0040 1105      		cpc r17,__zero_reg__
 1605 0042 01F0      		breq .L133
 1606               	.LBB312:
 1607               	.LBB313:
 420:../../LUFA-111009/LUFA/Drivers/USB/Core/AVR8/../AVR8/../AVR8/Endpoint_AVR8.h **** 			}
 1608               		.loc 2 420 0
 1609 0044 8091 E800 		lds r24,232
 1610               	.LBE313:
 1611               	.LBE312:
  52:../../LUFA-111009/LUFA/Drivers/USB/Core/AVR8/Template/Template_Endpoint_RW.c **** 		{
 1612               		.loc 3 52 0
 1613 0048 85FD      		sbrc r24,5
 1614 004a 00C0      		rjmp .L124
 1615               	.LBB314:
 1616               	.LBB315:
 516:../../LUFA-111009/LUFA/Drivers/USB/Core/AVR8/../AVR8/../AVR8/Endpoint_AVR8.h **** 				#else
 1617               		.loc 2 516 0
 1618 004c 8091 E800 		lds r24,232
 1619 0050 8E77      		andi r24,lo8(126)
 1620 0052 8093 E800 		sts 232,r24
 1621               	.LBE315:
 1622               	.LBE314:
  57:../../LUFA-111009/LUFA/Drivers/USB/Core/AVR8/Template/Template_Endpoint_RW.c **** 			#endif
 1623               		.loc 3 57 0
 1624 0056 0E94 0000 		call USB_USBTask
 1625               	.LVL191:
  60:../../LUFA-111009/LUFA/Drivers/USB/Core/AVR8/Template/Template_Endpoint_RW.c **** 			{
 1626               		.loc 3 60 0
 1627 005a E114      		cp r14,__zero_reg__
 1628 005c F104      		cpc r15,__zero_reg__
 1629 005e 01F0      		breq .L125
  62:../../LUFA-111009/LUFA/Drivers/USB/Core/AVR8/Template/Template_Endpoint_RW.c **** 				return ENDPOINT_RWSTREAM_IncompleteTransfer;
 1630               		.loc 3 62 0
 1631 0060 F701      		movw r30,r14
 1632 0062 8081      		ld r24,Z
 1633 0064 9181      		ldd r25,Z+1
 1634 0066 C80E      		add r12,r24
 1635 0068 D91E      		adc r13,r25
 1636               	.LVL192:
 1637 006a D182      		std Z+1,r13
 1638 006c C082      		st Z,r12
  63:../../LUFA-111009/LUFA/Drivers/USB/Core/AVR8/Template/Template_Endpoint_RW.c **** 			}
 1639               		.loc 3 63 0
 1640 006e 85E0      		ldi r24,lo8(5)
 1641 0070 00C0      		rjmp .L121
 1642               	.LVL193:
 1643               	.L125:
  66:../../LUFA-111009/LUFA/Drivers/USB/Core/AVR8/Template/Template_Endpoint_RW.c **** 			  return ErrorCode;
 1644               		.loc 3 66 0
 1645 0072 0E94 0000 		call Endpoint_WaitUntilReady
 1646               	.LVL194:
 1647 0076 8823      		tst r24
 1648 0078 01F0      		breq .L123
 1649 007a 00C0      		rjmp .L121
 1650               	.LVL195:
 1651               	.L124:
  71:../../LUFA-111009/LUFA/Drivers/USB/Core/AVR8/Template/Template_Endpoint_RW.c **** 			TEMPLATE_BUFFER_MOVE(DataStream, 1);
 1652               		.loc 3 71 0
 1653 007c CE01      		movw r24,r28
 1654 007e 0E94 0000 		call eeprom_read_byte
 1655               	.LVL196:
 1656               	.LBB316:
 1657               	.LBB317:
 624:../../LUFA-111009/LUFA/Drivers/USB/Core/AVR8/../AVR8/../AVR8/Endpoint_AVR8.h **** 			}
 1658               		.loc 2 624 0
 1659 0082 8093 F100 		sts 241,r24
 1660               	.LVL197:
 1661               	.LBE317:
 1662               	.LBE316:
  72:../../LUFA-111009/LUFA/Drivers/USB/Core/AVR8/Template/Template_Endpoint_RW.c **** 			Length--;
 1663               		.loc 3 72 0
 1664 0086 2197      		sbiw r28,1
 1665               	.LVL198:
  73:../../LUFA-111009/LUFA/Drivers/USB/Core/AVR8/Template/Template_Endpoint_RW.c **** 			BytesInTransfer++;
 1666               		.loc 3 73 0
 1667 0088 0150      		subi r16,1
 1668 008a 1109      		sbc r17,__zero_reg__
 1669               	.LVL199:
  74:../../LUFA-111009/LUFA/Drivers/USB/Core/AVR8/Template/Template_Endpoint_RW.c **** 		}
 1670               		.loc 3 74 0
 1671 008c FFEF      		ldi r31,-1
 1672 008e CF1A      		sub r12,r31
 1673 0090 DF0A      		sbc r13,r31
 1674               	.LVL200:
 1675 0092 00C0      		rjmp .L123
 1676               	.L133:
  78:../../LUFA-111009/LUFA/Drivers/USB/Core/AVR8/Template/Template_Endpoint_RW.c **** }
 1677               		.loc 3 78 0
 1678 0094 80E0      		ldi r24,0
 1679               	.LVL201:
 1680               	.L121:
 1681               	/* epilogue start */
 1682               		.loc 3 79 0
 1683 0096 DF91      		pop r29
 1684 0098 CF91      		pop r28
 1685 009a 1F91      		pop r17
 1686 009c 0F91      		pop r16
 1687               	.LVL202:
 1688 009e FF90      		pop r15
 1689 00a0 EF90      		pop r14
 1690               	.LVL203:
 1691 00a2 DF90      		pop r13
 1692 00a4 CF90      		pop r12
 1693 00a6 0895      		ret
 1694               		.cfi_endproc
 1695               	.LFE90:
 1697               		.section	.text.Endpoint_Read_EStream_LE,"ax",@progbits
 1698               	.global	Endpoint_Read_EStream_LE
 1700               	Endpoint_Read_EStream_LE:
 1701               	.LFB91:
  36:../../LUFA-111009/LUFA/Drivers/USB/Core/AVR8/Template/Template_Endpoint_RW.c **** 	uint8_t* DataStream      = ((uint8_t*)Buffer + TEMPLATE_BUFFER_OFFSET(Length));
 1702               		.loc 3 36 0
 1703               		.cfi_startproc
 1704               	.LVL204:
 1705 0000 CF92      		push r12
 1706               	.LCFI76:
 1707               		.cfi_def_cfa_offset 3
 1708               		.cfi_offset 12, -2
 1709 0002 DF92      		push r13
 1710               	.LCFI77:
 1711               		.cfi_def_cfa_offset 4
 1712               		.cfi_offset 13, -3
 1713 0004 EF92      		push r14
 1714               	.LCFI78:
 1715               		.cfi_def_cfa_offset 5
 1716               		.cfi_offset 14, -4
 1717 0006 FF92      		push r15
 1718               	.LCFI79:
 1719               		.cfi_def_cfa_offset 6
 1720               		.cfi_offset 15, -5
 1721 0008 0F93      		push r16
 1722               	.LCFI80:
 1723               		.cfi_def_cfa_offset 7
 1724               		.cfi_offset 16, -6
 1725 000a 1F93      		push r17
 1726               	.LCFI81:
 1727               		.cfi_def_cfa_offset 8
 1728               		.cfi_offset 17, -7
 1729 000c CF93      		push r28
 1730               	.LCFI82:
 1731               		.cfi_def_cfa_offset 9
 1732               		.cfi_offset 28, -8
 1733 000e DF93      		push r29
 1734               	.LCFI83:
 1735               		.cfi_def_cfa_offset 10
 1736               		.cfi_offset 29, -9
 1737               	/* prologue: function */
 1738               	/* frame size = 0 */
 1739               	/* stack size = 8 */
 1740               	.L__stack_usage = 8
 1741 0010 EC01      		movw r28,r24
 1742 0012 8B01      		movw r16,r22
 1743 0014 7A01      		movw r14,r20
 1744               	.LVL205:
  41:../../LUFA-111009/LUFA/Drivers/USB/Core/AVR8/Template/Template_Endpoint_RW.c **** 	  return ErrorCode;
 1745               		.loc 3 41 0
 1746 0016 0E94 0000 		call Endpoint_WaitUntilReady
 1747               	.LVL206:
 1748 001a 8111      		cpse r24,__zero_reg__
 1749 001c 00C0      		rjmp .L135
  44:../../LUFA-111009/LUFA/Drivers/USB/Core/AVR8/Template/Template_Endpoint_RW.c **** 	{
 1750               		.loc 3 44 0
 1751 001e E114      		cp r14,__zero_reg__
 1752 0020 F104      		cpc r15,__zero_reg__
 1753 0022 01F0      		breq .L136
  46:../../LUFA-111009/LUFA/Drivers/USB/Core/AVR8/Template/Template_Endpoint_RW.c **** 		TEMPLATE_BUFFER_MOVE(DataStream, *BytesProcessed);
 1754               		.loc 3 46 0
 1755 0024 F701      		movw r30,r14
 1756 0026 8081      		ld r24,Z
 1757 0028 9181      		ldd r25,Z+1
 1758               	.LVL207:
 1759 002a 081B      		sub r16,r24
 1760 002c 190B      		sbc r17,r25
 1761               	.LVL208:
  47:../../LUFA-111009/LUFA/Drivers/USB/Core/AVR8/Template/Template_Endpoint_RW.c **** 	}
 1762               		.loc 3 47 0
 1763 002e C80F      		add r28,r24
 1764 0030 D91F      		adc r29,r25
 1765               	.LVL209:
 1766               	.L136:
  37:../../LUFA-111009/LUFA/Drivers/USB/Core/AVR8/Template/Template_Endpoint_RW.c **** 	uint16_t BytesInTransfer = 0;
 1767               		.loc 3 37 0
 1768 0032 C12C      		mov r12,__zero_reg__
 1769 0034 D12C      		mov r13,__zero_reg__
 1770               	.LVL210:
 1771               	.L137:
  50:../../LUFA-111009/LUFA/Drivers/USB/Core/AVR8/Template/Template_Endpoint_RW.c **** 	{
 1772               		.loc 3 50 0
 1773 0036 0115      		cp r16,__zero_reg__
 1774 0038 1105      		cpc r17,__zero_reg__
 1775 003a 01F0      		breq .L145
 1776               	.LBB318:
 1777               	.LBB319:
 420:../../LUFA-111009/LUFA/Drivers/USB/Core/AVR8/../AVR8/../AVR8/Endpoint_AVR8.h **** 			}
 1778               		.loc 2 420 0
 1779 003c 8091 E800 		lds r24,232
 1780               	.LBE319:
 1781               	.LBE318:
  52:../../LUFA-111009/LUFA/Drivers/USB/Core/AVR8/Template/Template_Endpoint_RW.c **** 		{
 1782               		.loc 3 52 0
 1783 0040 85FD      		sbrc r24,5
 1784 0042 00C0      		rjmp .L138
 1785               	.LBB320:
 1786               	.LBB321:
 531:../../LUFA-111009/LUFA/Drivers/USB/Core/AVR8/../AVR8/../AVR8/Endpoint_AVR8.h **** 				#else
 1787               		.loc 2 531 0
 1788 0044 8091 E800 		lds r24,232
 1789 0048 8B77      		andi r24,lo8(123)
 1790 004a 8093 E800 		sts 232,r24
 1791               	.LBE321:
 1792               	.LBE320:
  57:../../LUFA-111009/LUFA/Drivers/USB/Core/AVR8/Template/Template_Endpoint_RW.c **** 			#endif
 1793               		.loc 3 57 0
 1794 004e 0E94 0000 		call USB_USBTask
 1795               	.LVL211:
  60:../../LUFA-111009/LUFA/Drivers/USB/Core/AVR8/Template/Template_Endpoint_RW.c **** 			{
 1796               		.loc 3 60 0
 1797 0052 E114      		cp r14,__zero_reg__
 1798 0054 F104      		cpc r15,__zero_reg__
 1799 0056 01F0      		breq .L139
  62:../../LUFA-111009/LUFA/Drivers/USB/Core/AVR8/Template/Template_Endpoint_RW.c **** 				return ENDPOINT_RWSTREAM_IncompleteTransfer;
 1800               		.loc 3 62 0
 1801 0058 F701      		movw r30,r14
 1802 005a 8081      		ld r24,Z
 1803 005c 9181      		ldd r25,Z+1
 1804 005e C80E      		add r12,r24
 1805 0060 D91E      		adc r13,r25
 1806               	.LVL212:
 1807 0062 D182      		std Z+1,r13
 1808 0064 C082      		st Z,r12
  63:../../LUFA-111009/LUFA/Drivers/USB/Core/AVR8/Template/Template_Endpoint_RW.c **** 			}
 1809               		.loc 3 63 0
 1810 0066 85E0      		ldi r24,lo8(5)
 1811 0068 00C0      		rjmp .L135
 1812               	.LVL213:
 1813               	.L139:
  66:../../LUFA-111009/LUFA/Drivers/USB/Core/AVR8/Template/Template_Endpoint_RW.c **** 			  return ErrorCode;
 1814               		.loc 3 66 0
 1815 006a 0E94 0000 		call Endpoint_WaitUntilReady
 1816               	.LVL214:
 1817 006e 8823      		tst r24
 1818 0070 01F0      		breq .L137
 1819 0072 00C0      		rjmp .L135
 1820               	.LVL215:
 1821               	.L138:
 1822               	.LBB322:
 1823               	.LBB323:
 612:../../LUFA-111009/LUFA/Drivers/USB/Core/AVR8/../AVR8/../AVR8/Endpoint_AVR8.h **** 			}
 1824               		.loc 2 612 0
 1825 0074 6091 F100 		lds r22,241
 1826               	.LBE323:
 1827               	.LBE322:
  71:../../LUFA-111009/LUFA/Drivers/USB/Core/AVR8/Template/Template_Endpoint_RW.c **** 			TEMPLATE_BUFFER_MOVE(DataStream, 1);
 1828               		.loc 3 71 0
 1829 0078 CE01      		movw r24,r28
 1830 007a 0E94 0000 		call eeprom_update_byte
 1831               	.LVL216:
  72:../../LUFA-111009/LUFA/Drivers/USB/Core/AVR8/Template/Template_Endpoint_RW.c **** 			Length--;
 1832               		.loc 3 72 0
 1833 007e 2196      		adiw r28,1
 1834               	.LVL217:
  73:../../LUFA-111009/LUFA/Drivers/USB/Core/AVR8/Template/Template_Endpoint_RW.c **** 			BytesInTransfer++;
 1835               		.loc 3 73 0
 1836 0080 0150      		subi r16,1
 1837 0082 1109      		sbc r17,__zero_reg__
 1838               	.LVL218:
  74:../../LUFA-111009/LUFA/Drivers/USB/Core/AVR8/Template/Template_Endpoint_RW.c **** 		}
 1839               		.loc 3 74 0
 1840 0084 FFEF      		ldi r31,-1
 1841 0086 CF1A      		sub r12,r31
 1842 0088 DF0A      		sbc r13,r31
 1843               	.LVL219:
 1844 008a 00C0      		rjmp .L137
 1845               	.L145:
  78:../../LUFA-111009/LUFA/Drivers/USB/Core/AVR8/Template/Template_Endpoint_RW.c **** }
 1846               		.loc 3 78 0
 1847 008c 80E0      		ldi r24,0
 1848               	.LVL220:
 1849               	.L135:
 1850               	/* epilogue start */
 1851               		.loc 3 79 0
 1852 008e DF91      		pop r29
 1853 0090 CF91      		pop r28
 1854               	.LVL221:
 1855 0092 1F91      		pop r17
 1856 0094 0F91      		pop r16
 1857               	.LVL222:
 1858 0096 FF90      		pop r15
 1859 0098 EF90      		pop r14
 1860               	.LVL223:
 1861 009a DF90      		pop r13
 1862 009c CF90      		pop r12
 1863 009e 0895      		ret
 1864               		.cfi_endproc
 1865               	.LFE91:
 1867               		.section	.text.Endpoint_Read_EStream_BE,"ax",@progbits
 1868               	.global	Endpoint_Read_EStream_BE
 1870               	Endpoint_Read_EStream_BE:
 1871               	.LFB92:
  36:../../LUFA-111009/LUFA/Drivers/USB/Core/AVR8/Template/Template_Endpoint_RW.c **** 	uint8_t* DataStream      = ((uint8_t*)Buffer + TEMPLATE_BUFFER_OFFSET(Length));
 1872               		.loc 3 36 0
 1873               		.cfi_startproc
 1874               	.LVL224:
 1875 0000 CF92      		push r12
 1876               	.LCFI84:
 1877               		.cfi_def_cfa_offset 3
 1878               		.cfi_offset 12, -2
 1879 0002 DF92      		push r13
 1880               	.LCFI85:
 1881               		.cfi_def_cfa_offset 4
 1882               		.cfi_offset 13, -3
 1883 0004 EF92      		push r14
 1884               	.LCFI86:
 1885               		.cfi_def_cfa_offset 5
 1886               		.cfi_offset 14, -4
 1887 0006 FF92      		push r15
 1888               	.LCFI87:
 1889               		.cfi_def_cfa_offset 6
 1890               		.cfi_offset 15, -5
 1891 0008 0F93      		push r16
 1892               	.LCFI88:
 1893               		.cfi_def_cfa_offset 7
 1894               		.cfi_offset 16, -6
 1895 000a 1F93      		push r17
 1896               	.LCFI89:
 1897               		.cfi_def_cfa_offset 8
 1898               		.cfi_offset 17, -7
 1899 000c CF93      		push r28
 1900               	.LCFI90:
 1901               		.cfi_def_cfa_offset 9
 1902               		.cfi_offset 28, -8
 1903 000e DF93      		push r29
 1904               	.LCFI91:
 1905               		.cfi_def_cfa_offset 10
 1906               		.cfi_offset 29, -9
 1907               	/* prologue: function */
 1908               	/* frame size = 0 */
 1909               	/* stack size = 8 */
 1910               	.L__stack_usage = 8
 1911 0010 EC01      		movw r28,r24
 1912 0012 8B01      		movw r16,r22
 1913 0014 7A01      		movw r14,r20
 1914               	.LVL225:
  41:../../LUFA-111009/LUFA/Drivers/USB/Core/AVR8/Template/Template_Endpoint_RW.c **** 	  return ErrorCode;
 1915               		.loc 3 41 0
 1916 0016 0E94 0000 		call Endpoint_WaitUntilReady
 1917               	.LVL226:
 1918 001a 8111      		cpse r24,__zero_reg__
 1919 001c 00C0      		rjmp .L147
  37:../../LUFA-111009/LUFA/Drivers/USB/Core/AVR8/Template/Template_Endpoint_RW.c **** 	uint16_t BytesInTransfer = 0;
 1920               		.loc 3 37 0
 1921 001e C801      		movw r24,r16
 1922               	.LVL227:
 1923 0020 0197      		sbiw r24,1
 1924               	.LVL228:
 1925 0022 C80F      		add r28,r24
 1926 0024 D91F      		adc r29,r25
 1927               	.LVL229:
  44:../../LUFA-111009/LUFA/Drivers/USB/Core/AVR8/Template/Template_Endpoint_RW.c **** 	{
 1928               		.loc 3 44 0
 1929 0026 E114      		cp r14,__zero_reg__
 1930 0028 F104      		cpc r15,__zero_reg__
 1931 002a 01F0      		breq .L148
  46:../../LUFA-111009/LUFA/Drivers/USB/Core/AVR8/Template/Template_Endpoint_RW.c **** 		TEMPLATE_BUFFER_MOVE(DataStream, *BytesProcessed);
 1932               		.loc 3 46 0
 1933 002c F701      		movw r30,r14
 1934 002e 8081      		ld r24,Z
 1935 0030 9181      		ldd r25,Z+1
 1936               	.LVL230:
 1937 0032 081B      		sub r16,r24
 1938 0034 190B      		sbc r17,r25
 1939               	.LVL231:
  47:../../LUFA-111009/LUFA/Drivers/USB/Core/AVR8/Template/Template_Endpoint_RW.c **** 	}
 1940               		.loc 3 47 0
 1941 0036 C81B      		sub r28,r24
 1942 0038 D90B      		sbc r29,r25
 1943               	.LVL232:
 1944               	.L148:
  36:../../LUFA-111009/LUFA/Drivers/USB/Core/AVR8/Template/Template_Endpoint_RW.c **** 	uint8_t* DataStream      = ((uint8_t*)Buffer + TEMPLATE_BUFFER_OFFSET(Length));
 1945               		.loc 3 36 0
 1946 003a C12C      		mov r12,__zero_reg__
 1947 003c D12C      		mov r13,__zero_reg__
 1948               	.LVL233:
 1949               	.L149:
  50:../../LUFA-111009/LUFA/Drivers/USB/Core/AVR8/Template/Template_Endpoint_RW.c **** 	{
 1950               		.loc 3 50 0
 1951 003e 0115      		cp r16,__zero_reg__
 1952 0040 1105      		cpc r17,__zero_reg__
 1953 0042 01F0      		breq .L159
 1954               	.LBB324:
 1955               	.LBB325:
 420:../../LUFA-111009/LUFA/Drivers/USB/Core/AVR8/../AVR8/../AVR8/Endpoint_AVR8.h **** 			}
 1956               		.loc 2 420 0
 1957 0044 8091 E800 		lds r24,232
 1958               	.LBE325:
 1959               	.LBE324:
  52:../../LUFA-111009/LUFA/Drivers/USB/Core/AVR8/Template/Template_Endpoint_RW.c **** 		{
 1960               		.loc 3 52 0
 1961 0048 85FD      		sbrc r24,5
 1962 004a 00C0      		rjmp .L150
 1963               	.LBB326:
 1964               	.LBB327:
 531:../../LUFA-111009/LUFA/Drivers/USB/Core/AVR8/../AVR8/../AVR8/Endpoint_AVR8.h **** 				#else
 1965               		.loc 2 531 0
 1966 004c 8091 E800 		lds r24,232
 1967 0050 8B77      		andi r24,lo8(123)
 1968 0052 8093 E800 		sts 232,r24
 1969               	.LBE327:
 1970               	.LBE326:
  57:../../LUFA-111009/LUFA/Drivers/USB/Core/AVR8/Template/Template_Endpoint_RW.c **** 			#endif
 1971               		.loc 3 57 0
 1972 0056 0E94 0000 		call USB_USBTask
 1973               	.LVL234:
  60:../../LUFA-111009/LUFA/Drivers/USB/Core/AVR8/Template/Template_Endpoint_RW.c **** 			{
 1974               		.loc 3 60 0
 1975 005a E114      		cp r14,__zero_reg__
 1976 005c F104      		cpc r15,__zero_reg__
 1977 005e 01F0      		breq .L151
  62:../../LUFA-111009/LUFA/Drivers/USB/Core/AVR8/Template/Template_Endpoint_RW.c **** 				return ENDPOINT_RWSTREAM_IncompleteTransfer;
 1978               		.loc 3 62 0
 1979 0060 F701      		movw r30,r14
 1980 0062 8081      		ld r24,Z
 1981 0064 9181      		ldd r25,Z+1
 1982 0066 C80E      		add r12,r24
 1983 0068 D91E      		adc r13,r25
 1984               	.LVL235:
 1985 006a D182      		std Z+1,r13
 1986 006c C082      		st Z,r12
  63:../../LUFA-111009/LUFA/Drivers/USB/Core/AVR8/Template/Template_Endpoint_RW.c **** 			}
 1987               		.loc 3 63 0
 1988 006e 85E0      		ldi r24,lo8(5)
 1989 0070 00C0      		rjmp .L147
 1990               	.LVL236:
 1991               	.L151:
  66:../../LUFA-111009/LUFA/Drivers/USB/Core/AVR8/Template/Template_Endpoint_RW.c **** 			  return ErrorCode;
 1992               		.loc 3 66 0
 1993 0072 0E94 0000 		call Endpoint_WaitUntilReady
 1994               	.LVL237:
 1995 0076 8823      		tst r24
 1996 0078 01F0      		breq .L149
 1997 007a 00C0      		rjmp .L147
 1998               	.LVL238:
 1999               	.L150:
 2000               	.LBB328:
 2001               	.LBB329:
 612:../../LUFA-111009/LUFA/Drivers/USB/Core/AVR8/../AVR8/../AVR8/Endpoint_AVR8.h **** 			}
 2002               		.loc 2 612 0
 2003 007c 6091 F100 		lds r22,241
 2004               	.LBE329:
 2005               	.LBE328:
  71:../../LUFA-111009/LUFA/Drivers/USB/Core/AVR8/Template/Template_Endpoint_RW.c **** 			TEMPLATE_BUFFER_MOVE(DataStream, 1);
 2006               		.loc 3 71 0
 2007 0080 CE01      		movw r24,r28
 2008 0082 0E94 0000 		call eeprom_update_byte
 2009               	.LVL239:
  72:../../LUFA-111009/LUFA/Drivers/USB/Core/AVR8/Template/Template_Endpoint_RW.c **** 			Length--;
 2010               		.loc 3 72 0
 2011 0086 2197      		sbiw r28,1
 2012               	.LVL240:
  73:../../LUFA-111009/LUFA/Drivers/USB/Core/AVR8/Template/Template_Endpoint_RW.c **** 			BytesInTransfer++;
 2013               		.loc 3 73 0
 2014 0088 0150      		subi r16,1
 2015 008a 1109      		sbc r17,__zero_reg__
 2016               	.LVL241:
  74:../../LUFA-111009/LUFA/Drivers/USB/Core/AVR8/Template/Template_Endpoint_RW.c **** 		}
 2017               		.loc 3 74 0
 2018 008c FFEF      		ldi r31,-1
 2019 008e CF1A      		sub r12,r31
 2020 0090 DF0A      		sbc r13,r31
 2021               	.LVL242:
 2022 0092 00C0      		rjmp .L149
 2023               	.L159:
  78:../../LUFA-111009/LUFA/Drivers/USB/Core/AVR8/Template/Template_Endpoint_RW.c **** }
 2024               		.loc 3 78 0
 2025 0094 80E0      		ldi r24,0
 2026               	.LVL243:
 2027               	.L147:
 2028               	/* epilogue start */
 2029               		.loc 3 79 0
 2030 0096 DF91      		pop r29
 2031 0098 CF91      		pop r28
 2032 009a 1F91      		pop r17
 2033 009c 0F91      		pop r16
 2034               	.LVL244:
 2035 009e FF90      		pop r15
 2036 00a0 EF90      		pop r14
 2037               	.LVL245:
 2038 00a2 DF90      		pop r13
 2039 00a4 CF90      		pop r12
 2040 00a6 0895      		ret
 2041               		.cfi_endproc
 2042               	.LFE92:
 2044               		.section	.text.Endpoint_Write_Control_Stream_LE,"ax",@progbits
 2045               	.global	Endpoint_Write_Control_Stream_LE
 2047               	Endpoint_Write_Control_Stream_LE:
 2048               	.LFB93:
 2049               		.file 4 "../../LUFA-111009/LUFA/Drivers/USB/Core/AVR8/Template/Template_Endpoint_Control_W.c"
   1:../../LUFA-111009/LUFA/Drivers/USB/Core/AVR8/Template/Template_Endpoint_Control_W.c **** /*
   2:../../LUFA-111009/LUFA/Drivers/USB/Core/AVR8/Template/Template_Endpoint_Control_W.c ****              LUFA Library
   3:../../LUFA-111009/LUFA/Drivers/USB/Core/AVR8/Template/Template_Endpoint_Control_W.c ****      Copyright (C) Dean Camera, 2011.
   4:../../LUFA-111009/LUFA/Drivers/USB/Core/AVR8/Template/Template_Endpoint_Control_W.c **** 
   5:../../LUFA-111009/LUFA/Drivers/USB/Core/AVR8/Template/Template_Endpoint_Control_W.c ****   dean [at] fourwalledcubicle [dot] com
   6:../../LUFA-111009/LUFA/Drivers/USB/Core/AVR8/Template/Template_Endpoint_Control_W.c ****            www.lufa-lib.org
   7:../../LUFA-111009/LUFA/Drivers/USB/Core/AVR8/Template/Template_Endpoint_Control_W.c **** */
   8:../../LUFA-111009/LUFA/Drivers/USB/Core/AVR8/Template/Template_Endpoint_Control_W.c **** 
   9:../../LUFA-111009/LUFA/Drivers/USB/Core/AVR8/Template/Template_Endpoint_Control_W.c **** /*
  10:../../LUFA-111009/LUFA/Drivers/USB/Core/AVR8/Template/Template_Endpoint_Control_W.c ****   Copyright 2011  Dean Camera (dean [at] fourwalledcubicle [dot] com)
  11:../../LUFA-111009/LUFA/Drivers/USB/Core/AVR8/Template/Template_Endpoint_Control_W.c **** 
  12:../../LUFA-111009/LUFA/Drivers/USB/Core/AVR8/Template/Template_Endpoint_Control_W.c ****   Permission to use, copy, modify, distribute, and sell this
  13:../../LUFA-111009/LUFA/Drivers/USB/Core/AVR8/Template/Template_Endpoint_Control_W.c ****   software and its documentation for any purpose is hereby granted
  14:../../LUFA-111009/LUFA/Drivers/USB/Core/AVR8/Template/Template_Endpoint_Control_W.c ****   without fee, provided that the above copyright notice appear in
  15:../../LUFA-111009/LUFA/Drivers/USB/Core/AVR8/Template/Template_Endpoint_Control_W.c ****   all copies and that both that the copyright notice and this
  16:../../LUFA-111009/LUFA/Drivers/USB/Core/AVR8/Template/Template_Endpoint_Control_W.c ****   permission notice and warranty disclaimer appear in supporting
  17:../../LUFA-111009/LUFA/Drivers/USB/Core/AVR8/Template/Template_Endpoint_Control_W.c ****   documentation, and that the name of the author not be used in
  18:../../LUFA-111009/LUFA/Drivers/USB/Core/AVR8/Template/Template_Endpoint_Control_W.c ****   advertising or publicity pertaining to distribution of the
  19:../../LUFA-111009/LUFA/Drivers/USB/Core/AVR8/Template/Template_Endpoint_Control_W.c ****   software without specific, written prior permission.
  20:../../LUFA-111009/LUFA/Drivers/USB/Core/AVR8/Template/Template_Endpoint_Control_W.c **** 
  21:../../LUFA-111009/LUFA/Drivers/USB/Core/AVR8/Template/Template_Endpoint_Control_W.c ****   The author disclaim all warranties with regard to this
  22:../../LUFA-111009/LUFA/Drivers/USB/Core/AVR8/Template/Template_Endpoint_Control_W.c ****   software, including all implied warranties of merchantability
  23:../../LUFA-111009/LUFA/Drivers/USB/Core/AVR8/Template/Template_Endpoint_Control_W.c ****   and fitness.  In no event shall the author be liable for any
  24:../../LUFA-111009/LUFA/Drivers/USB/Core/AVR8/Template/Template_Endpoint_Control_W.c ****   special, indirect or consequential damages or any damages
  25:../../LUFA-111009/LUFA/Drivers/USB/Core/AVR8/Template/Template_Endpoint_Control_W.c ****   whatsoever resulting from loss of use, data or profits, whether
  26:../../LUFA-111009/LUFA/Drivers/USB/Core/AVR8/Template/Template_Endpoint_Control_W.c ****   in an action of contract, negligence or other tortious action,
  27:../../LUFA-111009/LUFA/Drivers/USB/Core/AVR8/Template/Template_Endpoint_Control_W.c ****   arising out of or in connection with the use or performance of
  28:../../LUFA-111009/LUFA/Drivers/USB/Core/AVR8/Template/Template_Endpoint_Control_W.c ****   this software.
  29:../../LUFA-111009/LUFA/Drivers/USB/Core/AVR8/Template/Template_Endpoint_Control_W.c **** */
  30:../../LUFA-111009/LUFA/Drivers/USB/Core/AVR8/Template/Template_Endpoint_Control_W.c **** 
  31:../../LUFA-111009/LUFA/Drivers/USB/Core/AVR8/Template/Template_Endpoint_Control_W.c **** #if defined(TEMPLATE_FUNC_NAME)
  32:../../LUFA-111009/LUFA/Drivers/USB/Core/AVR8/Template/Template_Endpoint_Control_W.c **** 
  33:../../LUFA-111009/LUFA/Drivers/USB/Core/AVR8/Template/Template_Endpoint_Control_W.c **** uint8_t TEMPLATE_FUNC_NAME (const void* const Buffer,
  34:../../LUFA-111009/LUFA/Drivers/USB/Core/AVR8/Template/Template_Endpoint_Control_W.c ****                             uint16_t Length)
  35:../../LUFA-111009/LUFA/Drivers/USB/Core/AVR8/Template/Template_Endpoint_Control_W.c **** {
 2050               		.loc 4 35 0
 2051               		.cfi_startproc
 2052               	.LVL246:
 2053               	/* prologue: function */
 2054               	/* frame size = 0 */
 2055               	/* stack size = 0 */
 2056               	.L__stack_usage = 0
  36:../../LUFA-111009/LUFA/Drivers/USB/Core/AVR8/Template/Template_Endpoint_Control_W.c **** 	uint8_t* DataStream     = ((uint8_t*)Buffer + TEMPLATE_BUFFER_OFFSET(Length));
  37:../../LUFA-111009/LUFA/Drivers/USB/Core/AVR8/Template/Template_Endpoint_Control_W.c **** 	bool     LastPacketFull = false;
  38:../../LUFA-111009/LUFA/Drivers/USB/Core/AVR8/Template/Template_Endpoint_Control_W.c **** 
  39:../../LUFA-111009/LUFA/Drivers/USB/Core/AVR8/Template/Template_Endpoint_Control_W.c **** 	if (Length > USB_ControlRequest.wLength)
 2057               		.loc 4 39 0
 2058 0000 2091 0000 		lds r18,USB_ControlRequest+6
 2059 0004 3091 0000 		lds r19,USB_ControlRequest+6+1
 2060 0008 2617      		cp r18,r22
 2061 000a 3707      		cpc r19,r23
 2062 000c 00F0      		brlo .L172
  40:../../LUFA-111009/LUFA/Drivers/USB/Core/AVR8/Template/Template_Endpoint_Control_W.c **** 	  Length = USB_ControlRequest.wLength;
  41:../../LUFA-111009/LUFA/Drivers/USB/Core/AVR8/Template/Template_Endpoint_Control_W.c **** 	else if (!(Length))
 2063               		.loc 4 41 0
 2064 000e 6115      		cp r22,__zero_reg__
 2065 0010 7105      		cpc r23,__zero_reg__
 2066 0012 01F4      		brne .L161
 2067               	.LBB330:
 2068               	.LBB331:
 516:../../LUFA-111009/LUFA/Drivers/USB/Core/AVR8/../AVR8/../AVR8/Endpoint_AVR8.h **** 				#else
 2069               		.loc 2 516 0
 2070 0014 2091 E800 		lds r18,232
 2071 0018 2E77      		andi r18,lo8(126)
 2072 001a 2093 E800 		sts 232,r18
 2073 001e 00C0      		rjmp .L161
 2074               	.L172:
 2075               	.LBE331:
 2076               	.LBE330:
 2077 0020 B901      		movw r22,r18
 2078               	.LVL247:
 2079               	.L161:
 2080 0022 FC01      		movw r30,r24
 2081 0024 20E0      		ldi r18,0
 2082               	.LVL248:
 2083               	.L165:
  42:../../LUFA-111009/LUFA/Drivers/USB/Core/AVR8/Template/Template_Endpoint_Control_W.c **** 	  Endpoint_ClearIN();
  43:../../LUFA-111009/LUFA/Drivers/USB/Core/AVR8/Template/Template_Endpoint_Control_W.c **** 
  44:../../LUFA-111009/LUFA/Drivers/USB/Core/AVR8/Template/Template_Endpoint_Control_W.c **** 	while (Length || LastPacketFull)
 2084               		.loc 4 44 0
 2085 0026 6115      		cp r22,__zero_reg__
 2086 0028 7105      		cpc r23,__zero_reg__
 2087 002a 01F0      		breq .L187
 2088               	.L170:
 2089               	.LBB332:
  45:../../LUFA-111009/LUFA/Drivers/USB/Core/AVR8/Template/Template_Endpoint_Control_W.c **** 	{
  46:../../LUFA-111009/LUFA/Drivers/USB/Core/AVR8/Template/Template_Endpoint_Control_W.c **** 		uint8_t USB_DeviceState_LCL = USB_DeviceState;
 2090               		.loc 4 46 0
 2091 002c 8EB3      		in r24,0x1e
 2092               	.LVL249:
  47:../../LUFA-111009/LUFA/Drivers/USB/Core/AVR8/Template/Template_Endpoint_Control_W.c **** 
  48:../../LUFA-111009/LUFA/Drivers/USB/Core/AVR8/Template/Template_Endpoint_Control_W.c **** 		if (USB_DeviceState_LCL == DEVICE_STATE_Unattached)
 2093               		.loc 4 48 0
 2094 002e 8823      		tst r24
 2095 0030 01F0      		breq .L176
  49:../../LUFA-111009/LUFA/Drivers/USB/Core/AVR8/Template/Template_Endpoint_Control_W.c **** 		  return ENDPOINT_RWCSTREAM_DeviceDisconnected;
  50:../../LUFA-111009/LUFA/Drivers/USB/Core/AVR8/Template/Template_Endpoint_Control_W.c **** 		else if (USB_DeviceState_LCL == DEVICE_STATE_Suspended)
 2096               		.loc 4 50 0
 2097 0032 8530      		cpi r24,lo8(5)
 2098 0034 01F0      		breq .L177
 2099               	.LBB333:
 2100               	.LBB334:
 491:../../LUFA-111009/LUFA/Drivers/USB/Core/AVR8/../AVR8/../AVR8/Endpoint_AVR8.h **** 			}
 2101               		.loc 2 491 0
 2102 0036 8091 E800 		lds r24,232
 2103               	.LVL250:
 2104               	.LBE334:
 2105               	.LBE333:
  51:../../LUFA-111009/LUFA/Drivers/USB/Core/AVR8/Template/Template_Endpoint_Control_W.c **** 		  return ENDPOINT_RWCSTREAM_BusSuspended;
  52:../../LUFA-111009/LUFA/Drivers/USB/Core/AVR8/Template/Template_Endpoint_Control_W.c **** 		else if (Endpoint_IsSETUPReceived())
 2106               		.loc 4 52 0
 2107 003a 83FD      		sbrc r24,3
 2108 003c 00C0      		rjmp .L175
 2109               	.LBB335:
 2110               	.LBB336:
 479:../../LUFA-111009/LUFA/Drivers/USB/Core/AVR8/../AVR8/../AVR8/Endpoint_AVR8.h **** 			}
 2111               		.loc 2 479 0
 2112 003e 8091 E800 		lds r24,232
 2113               	.LBE336:
 2114               	.LBE335:
  53:../../LUFA-111009/LUFA/Drivers/USB/Core/AVR8/Template/Template_Endpoint_Control_W.c **** 		  return ENDPOINT_RWCSTREAM_HostAborted;
  54:../../LUFA-111009/LUFA/Drivers/USB/Core/AVR8/Template/Template_Endpoint_Control_W.c **** 		else if (Endpoint_IsOUTReceived())
 2115               		.loc 4 54 0
 2116 0042 82FD      		sbrc r24,2
 2117 0044 00C0      		rjmp .L183
 2118               	.LBB337:
 2119               	.LBB338:
 467:../../LUFA-111009/LUFA/Drivers/USB/Core/AVR8/../AVR8/../AVR8/Endpoint_AVR8.h **** 			}
 2120               		.loc 2 467 0
 2121 0046 8091 E800 		lds r24,232
 2122               	.LBE338:
 2123               	.LBE337:
  55:../../LUFA-111009/LUFA/Drivers/USB/Core/AVR8/Template/Template_Endpoint_Control_W.c **** 		  break;
  56:../../LUFA-111009/LUFA/Drivers/USB/Core/AVR8/Template/Template_Endpoint_Control_W.c **** 
  57:../../LUFA-111009/LUFA/Drivers/USB/Core/AVR8/Template/Template_Endpoint_Control_W.c **** 		if (Endpoint_IsINReady())
 2124               		.loc 4 57 0
 2125 004a 80FF      		sbrs r24,0
 2126 004c 00C0      		rjmp .L165
 2127               	.LBB339:
 2128               	.LBB340:
 2129               	.LBB341:
 295:../../LUFA-111009/LUFA/Drivers/USB/Core/AVR8/../AVR8/../AVR8/Endpoint_AVR8.h **** 				#elif defined(USB_SERIES_2_AVR)
 2130               		.loc 2 295 0
 2131 004e 2091 F300 		lds r18,243
 2132               	.LVL251:
 2133 0052 8091 F200 		lds r24,242
 2134 0056 90E0      		ldi r25,0
 2135 0058 922B      		or r25,r18
 2136               	.L166:
 2137               	.LVL252:
 2138               	.LBE341:
 2139               	.LBE340:
  58:../../LUFA-111009/LUFA/Drivers/USB/Core/AVR8/Template/Template_Endpoint_Control_W.c **** 		{
  59:../../LUFA-111009/LUFA/Drivers/USB/Core/AVR8/Template/Template_Endpoint_Control_W.c **** 			uint16_t BytesInEndpoint = Endpoint_BytesInEndpoint();
  60:../../LUFA-111009/LUFA/Drivers/USB/Core/AVR8/Template/Template_Endpoint_Control_W.c **** 
  61:../../LUFA-111009/LUFA/Drivers/USB/Core/AVR8/Template/Template_Endpoint_Control_W.c **** 			while (Length && (BytesInEndpoint < USB_Device_ControlEndpointSize))
 2140               		.loc 4 61 0
 2141 005a 6115      		cp r22,__zero_reg__
 2142 005c 7105      		cpc r23,__zero_reg__
 2143 005e 01F0      		breq .L167
 2144               		.loc 4 61 0 is_stmt 0 discriminator 1
 2145 0060 8830      		cpi r24,8
 2146 0062 9105      		cpc r25,__zero_reg__
 2147 0064 00F4      		brsh .L167
  62:../../LUFA-111009/LUFA/Drivers/USB/Core/AVR8/Template/Template_Endpoint_Control_W.c **** 			{
  63:../../LUFA-111009/LUFA/Drivers/USB/Core/AVR8/Template/Template_Endpoint_Control_W.c **** 				TEMPLATE_TRANSFER_BYTE(DataStream);
 2148               		.loc 4 63 0 is_stmt 1
 2149 0066 2191      		ld r18,Z+
 2150               	.LVL253:
 2151               	.LBB342:
 2152               	.LBB343:
 624:../../LUFA-111009/LUFA/Drivers/USB/Core/AVR8/../AVR8/../AVR8/Endpoint_AVR8.h **** 			}
 2153               		.loc 2 624 0
 2154 0068 2093 F100 		sts 241,r18
 2155               	.LVL254:
 2156               	.LBE343:
 2157               	.LBE342:
  64:../../LUFA-111009/LUFA/Drivers/USB/Core/AVR8/Template/Template_Endpoint_Control_W.c **** 				TEMPLATE_BUFFER_MOVE(DataStream, 1);
  65:../../LUFA-111009/LUFA/Drivers/USB/Core/AVR8/Template/Template_Endpoint_Control_W.c **** 				Length--;
 2158               		.loc 4 65 0
 2159 006c 6150      		subi r22,1
 2160 006e 7109      		sbc r23,__zero_reg__
 2161               	.LVL255:
  66:../../LUFA-111009/LUFA/Drivers/USB/Core/AVR8/Template/Template_Endpoint_Control_W.c **** 				BytesInEndpoint++;
 2162               		.loc 4 66 0
 2163 0070 0196      		adiw r24,1
 2164               	.LVL256:
 2165 0072 00C0      		rjmp .L166
 2166               	.L167:
  67:../../LUFA-111009/LUFA/Drivers/USB/Core/AVR8/Template/Template_Endpoint_Control_W.c **** 			}
  68:../../LUFA-111009/LUFA/Drivers/USB/Core/AVR8/Template/Template_Endpoint_Control_W.c **** 
  69:../../LUFA-111009/LUFA/Drivers/USB/Core/AVR8/Template/Template_Endpoint_Control_W.c **** 			LastPacketFull = (BytesInEndpoint == USB_Device_ControlEndpointSize);
 2167               		.loc 4 69 0
 2168 0074 21E0      		ldi r18,lo8(1)
 2169 0076 0897      		sbiw r24,8
 2170 0078 01F0      		breq .L169
 2171 007a 20E0      		ldi r18,0
 2172               	.L169:
 2173               	.LVL257:
 2174               	.LBB344:
 2175               	.LBB345:
 516:../../LUFA-111009/LUFA/Drivers/USB/Core/AVR8/../AVR8/../AVR8/Endpoint_AVR8.h **** 				#else
 2176               		.loc 2 516 0
 2177 007c 8091 E800 		lds r24,232
 2178               	.LVL258:
 2179 0080 8E77      		andi r24,lo8(126)
 2180 0082 8093 E800 		sts 232,r24
 2181 0086 00C0      		rjmp .L165
 2182               	.L187:
 2183               	.LBE345:
 2184               	.LBE344:
 2185               	.LBE339:
 2186               	.LBE332:
  44:../../LUFA-111009/LUFA/Drivers/USB/Core/AVR8/Template/Template_Endpoint_Control_W.c **** 	{
 2187               		.loc 4 44 0 discriminator 1
 2188 0088 2111      		cpse r18,__zero_reg__
 2189 008a 00C0      		rjmp .L170
 2190 008c 00C0      		rjmp .L183
 2191               	.L171:
 2192               	.LBB346:
  70:../../LUFA-111009/LUFA/Drivers/USB/Core/AVR8/Template/Template_Endpoint_Control_W.c **** 			Endpoint_ClearIN();
  71:../../LUFA-111009/LUFA/Drivers/USB/Core/AVR8/Template/Template_Endpoint_Control_W.c **** 		}
  72:../../LUFA-111009/LUFA/Drivers/USB/Core/AVR8/Template/Template_Endpoint_Control_W.c **** 	}
  73:../../LUFA-111009/LUFA/Drivers/USB/Core/AVR8/Template/Template_Endpoint_Control_W.c **** 
  74:../../LUFA-111009/LUFA/Drivers/USB/Core/AVR8/Template/Template_Endpoint_Control_W.c **** 	while (!(Endpoint_IsOUTReceived()))
  75:../../LUFA-111009/LUFA/Drivers/USB/Core/AVR8/Template/Template_Endpoint_Control_W.c **** 	{
  76:../../LUFA-111009/LUFA/Drivers/USB/Core/AVR8/Template/Template_Endpoint_Control_W.c **** 		uint8_t USB_DeviceState_LCL = USB_DeviceState;
 2193               		.loc 4 76 0
 2194 008e 8EB3      		in r24,0x1e
 2195               	.LVL259:
  77:../../LUFA-111009/LUFA/Drivers/USB/Core/AVR8/Template/Template_Endpoint_Control_W.c **** 
  78:../../LUFA-111009/LUFA/Drivers/USB/Core/AVR8/Template/Template_Endpoint_Control_W.c **** 		if (USB_DeviceState_LCL == DEVICE_STATE_Unattached)
 2196               		.loc 4 78 0
 2197 0090 8823      		tst r24
 2198 0092 01F0      		breq .L176
  79:../../LUFA-111009/LUFA/Drivers/USB/Core/AVR8/Template/Template_Endpoint_Control_W.c **** 		  return ENDPOINT_RWCSTREAM_DeviceDisconnected;
  80:../../LUFA-111009/LUFA/Drivers/USB/Core/AVR8/Template/Template_Endpoint_Control_W.c **** 		else if (USB_DeviceState_LCL == DEVICE_STATE_Suspended)
 2199               		.loc 4 80 0
 2200 0094 8530      		cpi r24,lo8(5)
 2201 0096 01F0      		breq .L177
 2202               	.LVL260:
 2203               	.L183:
 2204               	.LBE346:
 2205               	.LBB347:
 2206               	.LBB348:
 479:../../LUFA-111009/LUFA/Drivers/USB/Core/AVR8/../AVR8/../AVR8/Endpoint_AVR8.h **** 			}
 2207               		.loc 2 479 0
 2208 0098 8091 E800 		lds r24,232
 2209               	.LBE348:
 2210               	.LBE347:
  74:../../LUFA-111009/LUFA/Drivers/USB/Core/AVR8/Template/Template_Endpoint_Control_W.c **** 	{
 2211               		.loc 4 74 0
 2212 009c 82FF      		sbrs r24,2
 2213 009e 00C0      		rjmp .L171
  81:../../LUFA-111009/LUFA/Drivers/USB/Core/AVR8/Template/Template_Endpoint_Control_W.c **** 		  return ENDPOINT_RWCSTREAM_BusSuspended;
  82:../../LUFA-111009/LUFA/Drivers/USB/Core/AVR8/Template/Template_Endpoint_Control_W.c **** 	}
  83:../../LUFA-111009/LUFA/Drivers/USB/Core/AVR8/Template/Template_Endpoint_Control_W.c **** 
  84:../../LUFA-111009/LUFA/Drivers/USB/Core/AVR8/Template/Template_Endpoint_Control_W.c **** 	return ENDPOINT_RWCSTREAM_NoError;
 2214               		.loc 4 84 0
 2215 00a0 80E0      		ldi r24,0
 2216 00a2 0895      		ret
 2217               	.L175:
 2218               	.LBB349:
  53:../../LUFA-111009/LUFA/Drivers/USB/Core/AVR8/Template/Template_Endpoint_Control_W.c **** 		else if (Endpoint_IsOUTReceived())
 2219               		.loc 4 53 0
 2220 00a4 81E0      		ldi r24,lo8(1)
 2221 00a6 0895      		ret
 2222               	.L176:
  49:../../LUFA-111009/LUFA/Drivers/USB/Core/AVR8/Template/Template_Endpoint_Control_W.c **** 		else if (USB_DeviceState_LCL == DEVICE_STATE_Suspended)
 2223               		.loc 4 49 0
 2224 00a8 82E0      		ldi r24,lo8(2)
 2225 00aa 0895      		ret
 2226               	.L177:
  51:../../LUFA-111009/LUFA/Drivers/USB/Core/AVR8/Template/Template_Endpoint_Control_W.c **** 		else if (Endpoint_IsSETUPReceived())
 2227               		.loc 4 51 0
 2228 00ac 83E0      		ldi r24,lo8(3)
 2229               	.LBE349:
  85:../../LUFA-111009/LUFA/Drivers/USB/Core/AVR8/Template/Template_Endpoint_Control_W.c **** }
 2230               		.loc 4 85 0
 2231 00ae 0895      		ret
 2232               		.cfi_endproc
 2233               	.LFE93:
 2235               		.section	.text.Endpoint_Write_Control_Stream_BE,"ax",@progbits
 2236               	.global	Endpoint_Write_Control_Stream_BE
 2238               	Endpoint_Write_Control_Stream_BE:
 2239               	.LFB94:
  35:../../LUFA-111009/LUFA/Drivers/USB/Core/AVR8/Template/Template_Endpoint_Control_W.c **** 	uint8_t* DataStream     = ((uint8_t*)Buffer + TEMPLATE_BUFFER_OFFSET(Length));
 2240               		.loc 4 35 0
 2241               		.cfi_startproc
 2242               	.LVL261:
 2243               	/* prologue: function */
 2244               	/* frame size = 0 */
 2245               	/* stack size = 0 */
 2246               	.L__stack_usage = 0
  36:../../LUFA-111009/LUFA/Drivers/USB/Core/AVR8/Template/Template_Endpoint_Control_W.c **** 	bool     LastPacketFull = false;
 2247               		.loc 4 36 0
 2248 0000 9B01      		movw r18,r22
 2249 0002 2150      		subi r18,1
 2250 0004 3109      		sbc r19,__zero_reg__
 2251 0006 820F      		add r24,r18
 2252 0008 931F      		adc r25,r19
 2253               	.LVL262:
  39:../../LUFA-111009/LUFA/Drivers/USB/Core/AVR8/Template/Template_Endpoint_Control_W.c **** 	  Length = USB_ControlRequest.wLength;
 2254               		.loc 4 39 0
 2255 000a 2091 0000 		lds r18,USB_ControlRequest+6
 2256 000e 3091 0000 		lds r19,USB_ControlRequest+6+1
 2257 0012 2617      		cp r18,r22
 2258 0014 3707      		cpc r19,r23
 2259 0016 00F0      		brlo .L200
  41:../../LUFA-111009/LUFA/Drivers/USB/Core/AVR8/Template/Template_Endpoint_Control_W.c **** 	  Endpoint_ClearIN();
 2260               		.loc 4 41 0
 2261 0018 6115      		cp r22,__zero_reg__
 2262 001a 7105      		cpc r23,__zero_reg__
 2263 001c 01F4      		brne .L189
 2264               	.LBB350:
 2265               	.LBB351:
 516:../../LUFA-111009/LUFA/Drivers/USB/Core/AVR8/../AVR8/../AVR8/Endpoint_AVR8.h **** 				#else
 2266               		.loc 2 516 0
 2267 001e 2091 E800 		lds r18,232
 2268 0022 2E77      		andi r18,lo8(126)
 2269 0024 2093 E800 		sts 232,r18
 2270 0028 00C0      		rjmp .L189
 2271               	.L200:
 2272               	.LBE351:
 2273               	.LBE350:
 2274 002a B901      		movw r22,r18
 2275               	.LVL263:
 2276               	.L189:
 2277 002c 40E0      		ldi r20,0
 2278               	.LVL264:
 2279               	.L193:
  44:../../LUFA-111009/LUFA/Drivers/USB/Core/AVR8/Template/Template_Endpoint_Control_W.c **** 	{
 2280               		.loc 4 44 0
 2281 002e 6115      		cp r22,__zero_reg__
 2282 0030 7105      		cpc r23,__zero_reg__
 2283 0032 01F0      		breq .L215
 2284               	.L198:
 2285               	.LBB352:
  46:../../LUFA-111009/LUFA/Drivers/USB/Core/AVR8/Template/Template_Endpoint_Control_W.c **** 
 2286               		.loc 4 46 0
 2287 0034 2EB3      		in r18,0x1e
 2288               	.LVL265:
  48:../../LUFA-111009/LUFA/Drivers/USB/Core/AVR8/Template/Template_Endpoint_Control_W.c **** 		  return ENDPOINT_RWCSTREAM_DeviceDisconnected;
 2289               		.loc 4 48 0
 2290 0036 2223      		tst r18
 2291 0038 01F4      		brne .+2
 2292 003a 00C0      		rjmp .L204
  50:../../LUFA-111009/LUFA/Drivers/USB/Core/AVR8/Template/Template_Endpoint_Control_W.c **** 		  return ENDPOINT_RWCSTREAM_BusSuspended;
 2293               		.loc 4 50 0
 2294 003c 2530      		cpi r18,lo8(5)
 2295 003e 01F4      		brne .+2
 2296 0040 00C0      		rjmp .L205
 2297               	.LBB353:
 2298               	.LBB354:
 491:../../LUFA-111009/LUFA/Drivers/USB/Core/AVR8/../AVR8/../AVR8/Endpoint_AVR8.h **** 			}
 2299               		.loc 2 491 0
 2300 0042 2091 E800 		lds r18,232
 2301               	.LVL266:
 2302               	.LBE354:
 2303               	.LBE353:
  52:../../LUFA-111009/LUFA/Drivers/USB/Core/AVR8/Template/Template_Endpoint_Control_W.c **** 		  return ENDPOINT_RWCSTREAM_HostAborted;
 2304               		.loc 4 52 0
 2305 0046 23FD      		sbrc r18,3
 2306 0048 00C0      		rjmp .L203
 2307               	.LBB355:
 2308               	.LBB356:
 479:../../LUFA-111009/LUFA/Drivers/USB/Core/AVR8/../AVR8/../AVR8/Endpoint_AVR8.h **** 			}
 2309               		.loc 2 479 0
 2310 004a 2091 E800 		lds r18,232
 2311               	.LBE356:
 2312               	.LBE355:
  54:../../LUFA-111009/LUFA/Drivers/USB/Core/AVR8/Template/Template_Endpoint_Control_W.c **** 		  break;
 2313               		.loc 4 54 0
 2314 004e 22FD      		sbrc r18,2
 2315 0050 00C0      		rjmp .L211
 2316               	.LBB357:
 2317               	.LBB358:
 467:../../LUFA-111009/LUFA/Drivers/USB/Core/AVR8/../AVR8/../AVR8/Endpoint_AVR8.h **** 			}
 2318               		.loc 2 467 0
 2319 0052 2091 E800 		lds r18,232
 2320               	.LBE358:
 2321               	.LBE357:
  57:../../LUFA-111009/LUFA/Drivers/USB/Core/AVR8/Template/Template_Endpoint_Control_W.c **** 		{
 2322               		.loc 4 57 0
 2323 0056 20FF      		sbrs r18,0
 2324 0058 00C0      		rjmp .L193
 2325               	.LBB359:
 2326               	.LBB360:
 2327               	.LBB361:
 295:../../LUFA-111009/LUFA/Drivers/USB/Core/AVR8/../AVR8/../AVR8/Endpoint_AVR8.h **** 				#elif defined(USB_SERIES_2_AVR)
 2328               		.loc 2 295 0
 2329 005a 4091 F300 		lds r20,243
 2330               	.LVL267:
 2331 005e 2091 F200 		lds r18,242
 2332 0062 30E0      		ldi r19,0
 2333 0064 342B      		or r19,r20
 2334               	.L194:
 2335               	.LVL268:
 2336               	.LBE361:
 2337               	.LBE360:
  61:../../LUFA-111009/LUFA/Drivers/USB/Core/AVR8/Template/Template_Endpoint_Control_W.c **** 			{
 2338               		.loc 4 61 0
 2339 0066 6115      		cp r22,__zero_reg__
 2340 0068 7105      		cpc r23,__zero_reg__
 2341 006a 01F0      		breq .L195
  61:../../LUFA-111009/LUFA/Drivers/USB/Core/AVR8/Template/Template_Endpoint_Control_W.c **** 			{
 2342               		.loc 4 61 0 is_stmt 0 discriminator 1
 2343 006c 2830      		cpi r18,8
 2344 006e 3105      		cpc r19,__zero_reg__
 2345 0070 00F4      		brsh .L195
  63:../../LUFA-111009/LUFA/Drivers/USB/Core/AVR8/Template/Template_Endpoint_Control_W.c **** 				TEMPLATE_BUFFER_MOVE(DataStream, 1);
 2346               		.loc 4 63 0 is_stmt 1
 2347 0072 FC01      		movw r30,r24
 2348 0074 4081      		ld r20,Z
 2349               	.LVL269:
 2350               	.LBB362:
 2351               	.LBB363:
 624:../../LUFA-111009/LUFA/Drivers/USB/Core/AVR8/../AVR8/../AVR8/Endpoint_AVR8.h **** 			}
 2352               		.loc 2 624 0
 2353 0076 4093 F100 		sts 241,r20
 2354               	.LVL270:
 2355               	.LBE363:
 2356               	.LBE362:
  64:../../LUFA-111009/LUFA/Drivers/USB/Core/AVR8/Template/Template_Endpoint_Control_W.c **** 				Length--;
 2357               		.loc 4 64 0
 2358 007a 0197      		sbiw r24,1
 2359               	.LVL271:
  65:../../LUFA-111009/LUFA/Drivers/USB/Core/AVR8/Template/Template_Endpoint_Control_W.c **** 				BytesInEndpoint++;
 2360               		.loc 4 65 0
 2361 007c 6150      		subi r22,1
 2362 007e 7109      		sbc r23,__zero_reg__
 2363               	.LVL272:
  66:../../LUFA-111009/LUFA/Drivers/USB/Core/AVR8/Template/Template_Endpoint_Control_W.c **** 			}
 2364               		.loc 4 66 0
 2365 0080 2F5F      		subi r18,-1
 2366 0082 3F4F      		sbci r19,-1
 2367               	.LVL273:
 2368 0084 00C0      		rjmp .L194
 2369               	.L195:
  69:../../LUFA-111009/LUFA/Drivers/USB/Core/AVR8/Template/Template_Endpoint_Control_W.c **** 			Endpoint_ClearIN();
 2370               		.loc 4 69 0
 2371 0086 41E0      		ldi r20,lo8(1)
 2372 0088 2830      		cpi r18,8
 2373 008a 3105      		cpc r19,__zero_reg__
 2374 008c 01F0      		breq .L197
 2375 008e 40E0      		ldi r20,0
 2376               	.L197:
 2377               	.LVL274:
 2378               	.LBB364:
 2379               	.LBB365:
 516:../../LUFA-111009/LUFA/Drivers/USB/Core/AVR8/../AVR8/../AVR8/Endpoint_AVR8.h **** 				#else
 2380               		.loc 2 516 0
 2381 0090 2091 E800 		lds r18,232
 2382               	.LVL275:
 2383 0094 2E77      		andi r18,lo8(126)
 2384 0096 2093 E800 		sts 232,r18
 2385 009a 00C0      		rjmp .L193
 2386               	.L215:
 2387               	.LBE365:
 2388               	.LBE364:
 2389               	.LBE359:
 2390               	.LBE352:
  44:../../LUFA-111009/LUFA/Drivers/USB/Core/AVR8/Template/Template_Endpoint_Control_W.c **** 	{
 2391               		.loc 4 44 0 discriminator 1
 2392 009c 4111      		cpse r20,__zero_reg__
 2393 009e 00C0      		rjmp .L198
 2394 00a0 00C0      		rjmp .L211
 2395               	.LVL276:
 2396               	.L199:
 2397               	.LBB366:
  76:../../LUFA-111009/LUFA/Drivers/USB/Core/AVR8/Template/Template_Endpoint_Control_W.c **** 
 2398               		.loc 4 76 0
 2399 00a2 8EB3      		in r24,0x1e
 2400               	.LVL277:
  78:../../LUFA-111009/LUFA/Drivers/USB/Core/AVR8/Template/Template_Endpoint_Control_W.c **** 		  return ENDPOINT_RWCSTREAM_DeviceDisconnected;
 2401               		.loc 4 78 0
 2402 00a4 8823      		tst r24
 2403 00a6 01F0      		breq .L204
  80:../../LUFA-111009/LUFA/Drivers/USB/Core/AVR8/Template/Template_Endpoint_Control_W.c **** 		  return ENDPOINT_RWCSTREAM_BusSuspended;
 2404               		.loc 4 80 0
 2405 00a8 8530      		cpi r24,lo8(5)
 2406 00aa 01F0      		breq .L205
 2407               	.LVL278:
 2408               	.L211:
 2409               	.LBE366:
 2410               	.LBB367:
 2411               	.LBB368:
 479:../../LUFA-111009/LUFA/Drivers/USB/Core/AVR8/../AVR8/../AVR8/Endpoint_AVR8.h **** 			}
 2412               		.loc 2 479 0
 2413 00ac 8091 E800 		lds r24,232
 2414               	.LBE368:
 2415               	.LBE367:
  74:../../LUFA-111009/LUFA/Drivers/USB/Core/AVR8/Template/Template_Endpoint_Control_W.c **** 	{
 2416               		.loc 4 74 0
 2417 00b0 82FF      		sbrs r24,2
 2418 00b2 00C0      		rjmp .L199
  84:../../LUFA-111009/LUFA/Drivers/USB/Core/AVR8/Template/Template_Endpoint_Control_W.c **** }
 2419               		.loc 4 84 0
 2420 00b4 80E0      		ldi r24,0
 2421 00b6 0895      		ret
 2422               	.LVL279:
 2423               	.L203:
 2424               	.LBB369:
  53:../../LUFA-111009/LUFA/Drivers/USB/Core/AVR8/Template/Template_Endpoint_Control_W.c **** 		else if (Endpoint_IsOUTReceived())
 2425               		.loc 4 53 0
 2426 00b8 81E0      		ldi r24,lo8(1)
 2427               	.LVL280:
 2428 00ba 0895      		ret
 2429               	.L204:
  49:../../LUFA-111009/LUFA/Drivers/USB/Core/AVR8/Template/Template_Endpoint_Control_W.c **** 		else if (USB_DeviceState_LCL == DEVICE_STATE_Suspended)
 2430               		.loc 4 49 0
 2431 00bc 82E0      		ldi r24,lo8(2)
 2432 00be 0895      		ret
 2433               	.L205:
  51:../../LUFA-111009/LUFA/Drivers/USB/Core/AVR8/Template/Template_Endpoint_Control_W.c **** 		else if (Endpoint_IsSETUPReceived())
 2434               		.loc 4 51 0
 2435 00c0 83E0      		ldi r24,lo8(3)
 2436               	.LBE369:
 2437               		.loc 4 85 0
 2438 00c2 0895      		ret
 2439               		.cfi_endproc
 2440               	.LFE94:
 2442               		.section	.text.Endpoint_Read_Control_Stream_LE,"ax",@progbits
 2443               	.global	Endpoint_Read_Control_Stream_LE
 2445               	Endpoint_Read_Control_Stream_LE:
 2446               	.LFB95:
 2447               		.file 5 "../../LUFA-111009/LUFA/Drivers/USB/Core/AVR8/Template/Template_Endpoint_Control_R.c"
   1:../../LUFA-111009/LUFA/Drivers/USB/Core/AVR8/Template/Template_Endpoint_Control_R.c **** /*
   2:../../LUFA-111009/LUFA/Drivers/USB/Core/AVR8/Template/Template_Endpoint_Control_R.c ****              LUFA Library
   3:../../LUFA-111009/LUFA/Drivers/USB/Core/AVR8/Template/Template_Endpoint_Control_R.c ****      Copyright (C) Dean Camera, 2011.
   4:../../LUFA-111009/LUFA/Drivers/USB/Core/AVR8/Template/Template_Endpoint_Control_R.c **** 
   5:../../LUFA-111009/LUFA/Drivers/USB/Core/AVR8/Template/Template_Endpoint_Control_R.c ****   dean [at] fourwalledcubicle [dot] com
   6:../../LUFA-111009/LUFA/Drivers/USB/Core/AVR8/Template/Template_Endpoint_Control_R.c ****            www.lufa-lib.org
   7:../../LUFA-111009/LUFA/Drivers/USB/Core/AVR8/Template/Template_Endpoint_Control_R.c **** */
   8:../../LUFA-111009/LUFA/Drivers/USB/Core/AVR8/Template/Template_Endpoint_Control_R.c **** 
   9:../../LUFA-111009/LUFA/Drivers/USB/Core/AVR8/Template/Template_Endpoint_Control_R.c **** /*
  10:../../LUFA-111009/LUFA/Drivers/USB/Core/AVR8/Template/Template_Endpoint_Control_R.c ****   Copyright 2011  Dean Camera (dean [at] fourwalledcubicle [dot] com)
  11:../../LUFA-111009/LUFA/Drivers/USB/Core/AVR8/Template/Template_Endpoint_Control_R.c **** 
  12:../../LUFA-111009/LUFA/Drivers/USB/Core/AVR8/Template/Template_Endpoint_Control_R.c ****   Permission to use, copy, modify, distribute, and sell this
  13:../../LUFA-111009/LUFA/Drivers/USB/Core/AVR8/Template/Template_Endpoint_Control_R.c ****   software and its documentation for any purpose is hereby granted
  14:../../LUFA-111009/LUFA/Drivers/USB/Core/AVR8/Template/Template_Endpoint_Control_R.c ****   without fee, provided that the above copyright notice appear in
  15:../../LUFA-111009/LUFA/Drivers/USB/Core/AVR8/Template/Template_Endpoint_Control_R.c ****   all copies and that both that the copyright notice and this
  16:../../LUFA-111009/LUFA/Drivers/USB/Core/AVR8/Template/Template_Endpoint_Control_R.c ****   permission notice and warranty disclaimer appear in supporting
  17:../../LUFA-111009/LUFA/Drivers/USB/Core/AVR8/Template/Template_Endpoint_Control_R.c ****   documentation, and that the name of the author not be used in
  18:../../LUFA-111009/LUFA/Drivers/USB/Core/AVR8/Template/Template_Endpoint_Control_R.c ****   advertising or publicity pertaining to distribution of the
  19:../../LUFA-111009/LUFA/Drivers/USB/Core/AVR8/Template/Template_Endpoint_Control_R.c ****   software without specific, written prior permission.
  20:../../LUFA-111009/LUFA/Drivers/USB/Core/AVR8/Template/Template_Endpoint_Control_R.c **** 
  21:../../LUFA-111009/LUFA/Drivers/USB/Core/AVR8/Template/Template_Endpoint_Control_R.c ****   The author disclaim all warranties with regard to this
  22:../../LUFA-111009/LUFA/Drivers/USB/Core/AVR8/Template/Template_Endpoint_Control_R.c ****   software, including all implied warranties of merchantability
  23:../../LUFA-111009/LUFA/Drivers/USB/Core/AVR8/Template/Template_Endpoint_Control_R.c ****   and fitness.  In no event shall the author be liable for any
  24:../../LUFA-111009/LUFA/Drivers/USB/Core/AVR8/Template/Template_Endpoint_Control_R.c ****   special, indirect or consequential damages or any damages
  25:../../LUFA-111009/LUFA/Drivers/USB/Core/AVR8/Template/Template_Endpoint_Control_R.c ****   whatsoever resulting from loss of use, data or profits, whether
  26:../../LUFA-111009/LUFA/Drivers/USB/Core/AVR8/Template/Template_Endpoint_Control_R.c ****   in an action of contract, negligence or other tortious action,
  27:../../LUFA-111009/LUFA/Drivers/USB/Core/AVR8/Template/Template_Endpoint_Control_R.c ****   arising out of or in connection with the use or performance of
  28:../../LUFA-111009/LUFA/Drivers/USB/Core/AVR8/Template/Template_Endpoint_Control_R.c ****   this software.
  29:../../LUFA-111009/LUFA/Drivers/USB/Core/AVR8/Template/Template_Endpoint_Control_R.c **** */
  30:../../LUFA-111009/LUFA/Drivers/USB/Core/AVR8/Template/Template_Endpoint_Control_R.c **** 
  31:../../LUFA-111009/LUFA/Drivers/USB/Core/AVR8/Template/Template_Endpoint_Control_R.c **** #if defined(TEMPLATE_FUNC_NAME)
  32:../../LUFA-111009/LUFA/Drivers/USB/Core/AVR8/Template/Template_Endpoint_Control_R.c **** 
  33:../../LUFA-111009/LUFA/Drivers/USB/Core/AVR8/Template/Template_Endpoint_Control_R.c **** uint8_t TEMPLATE_FUNC_NAME (void* const Buffer,
  34:../../LUFA-111009/LUFA/Drivers/USB/Core/AVR8/Template/Template_Endpoint_Control_R.c ****                             uint16_t Length)
  35:../../LUFA-111009/LUFA/Drivers/USB/Core/AVR8/Template/Template_Endpoint_Control_R.c **** {
 2448               		.loc 5 35 0
 2449               		.cfi_startproc
 2450               	.LVL281:
 2451               	/* prologue: function */
 2452               	/* frame size = 0 */
 2453               	/* stack size = 0 */
 2454               	.L__stack_usage = 0
  36:../../LUFA-111009/LUFA/Drivers/USB/Core/AVR8/Template/Template_Endpoint_Control_R.c **** 	uint8_t* DataStream = ((uint8_t*)Buffer + TEMPLATE_BUFFER_OFFSET(Length));
  37:../../LUFA-111009/LUFA/Drivers/USB/Core/AVR8/Template/Template_Endpoint_Control_R.c **** 
  38:../../LUFA-111009/LUFA/Drivers/USB/Core/AVR8/Template/Template_Endpoint_Control_R.c **** 	if (!(Length))
 2455               		.loc 5 38 0
 2456 0000 6115      		cp r22,__zero_reg__
 2457 0002 7105      		cpc r23,__zero_reg__
 2458 0004 01F4      		brne .L217
 2459               	.LBB370:
 2460               	.LBB371:
 531:../../LUFA-111009/LUFA/Drivers/USB/Core/AVR8/../AVR8/../AVR8/Endpoint_AVR8.h **** 				#else
 2461               		.loc 2 531 0
 2462 0006 2091 E800 		lds r18,232
 2463 000a 2B77      		andi r18,lo8(123)
 2464 000c 2093 E800 		sts 232,r18
 2465               	.L217:
 2466               	.LBE371:
 2467               	.LBE370:
  35:../../LUFA-111009/LUFA/Drivers/USB/Core/AVR8/Template/Template_Endpoint_Control_R.c **** 	uint8_t* DataStream = ((uint8_t*)Buffer + TEMPLATE_BUFFER_OFFSET(Length));
 2468               		.loc 5 35 0
 2469 0010 FC01      		movw r30,r24
 2470               	.LVL282:
 2471               	.L221:
  39:../../LUFA-111009/LUFA/Drivers/USB/Core/AVR8/Template/Template_Endpoint_Control_R.c **** 	  Endpoint_ClearOUT();
  40:../../LUFA-111009/LUFA/Drivers/USB/Core/AVR8/Template/Template_Endpoint_Control_R.c **** 
  41:../../LUFA-111009/LUFA/Drivers/USB/Core/AVR8/Template/Template_Endpoint_Control_R.c **** 	while (Length)
 2472               		.loc 5 41 0
 2473 0012 6115      		cp r22,__zero_reg__
 2474 0014 7105      		cpc r23,__zero_reg__
 2475 0016 01F0      		breq .L226
 2476               	.LBB372:
  42:../../LUFA-111009/LUFA/Drivers/USB/Core/AVR8/Template/Template_Endpoint_Control_R.c **** 	{
  43:../../LUFA-111009/LUFA/Drivers/USB/Core/AVR8/Template/Template_Endpoint_Control_R.c **** 		uint8_t USB_DeviceState_LCL = USB_DeviceState;
 2477               		.loc 5 43 0
 2478 0018 8EB3      		in r24,0x1e
 2479               	.LVL283:
  44:../../LUFA-111009/LUFA/Drivers/USB/Core/AVR8/Template/Template_Endpoint_Control_R.c **** 
  45:../../LUFA-111009/LUFA/Drivers/USB/Core/AVR8/Template/Template_Endpoint_Control_R.c **** 		if (USB_DeviceState_LCL == DEVICE_STATE_Unattached)
 2480               		.loc 5 45 0
 2481 001a 8823      		tst r24
 2482 001c 01F0      		breq .L231
  46:../../LUFA-111009/LUFA/Drivers/USB/Core/AVR8/Template/Template_Endpoint_Control_R.c **** 		  return ENDPOINT_RWCSTREAM_DeviceDisconnected;
  47:../../LUFA-111009/LUFA/Drivers/USB/Core/AVR8/Template/Template_Endpoint_Control_R.c **** 		else if (USB_DeviceState_LCL == DEVICE_STATE_Suspended)
 2483               		.loc 5 47 0
 2484 001e 8530      		cpi r24,lo8(5)
 2485 0020 01F0      		breq .L232
 2486               	.LBB373:
 2487               	.LBB374:
 491:../../LUFA-111009/LUFA/Drivers/USB/Core/AVR8/../AVR8/../AVR8/Endpoint_AVR8.h **** 			}
 2488               		.loc 2 491 0
 2489 0022 8091 E800 		lds r24,232
 2490               	.LVL284:
 2491               	.LBE374:
 2492               	.LBE373:
  48:../../LUFA-111009/LUFA/Drivers/USB/Core/AVR8/Template/Template_Endpoint_Control_R.c **** 		  return ENDPOINT_RWCSTREAM_BusSuspended;
  49:../../LUFA-111009/LUFA/Drivers/USB/Core/AVR8/Template/Template_Endpoint_Control_R.c **** 		else if (Endpoint_IsSETUPReceived())
 2493               		.loc 5 49 0
 2494 0026 83FD      		sbrc r24,3
 2495 0028 00C0      		rjmp .L230
 2496               	.LBB375:
 2497               	.LBB376:
 479:../../LUFA-111009/LUFA/Drivers/USB/Core/AVR8/../AVR8/../AVR8/Endpoint_AVR8.h **** 			}
 2498               		.loc 2 479 0
 2499 002a 8091 E800 		lds r24,232
 2500               	.LBE376:
 2501               	.LBE375:
  50:../../LUFA-111009/LUFA/Drivers/USB/Core/AVR8/Template/Template_Endpoint_Control_R.c **** 		  return ENDPOINT_RWCSTREAM_HostAborted;
  51:../../LUFA-111009/LUFA/Drivers/USB/Core/AVR8/Template/Template_Endpoint_Control_R.c **** 
  52:../../LUFA-111009/LUFA/Drivers/USB/Core/AVR8/Template/Template_Endpoint_Control_R.c **** 		if (Endpoint_IsOUTReceived())
 2502               		.loc 5 52 0
 2503 002e 82FF      		sbrs r24,2
 2504 0030 00C0      		rjmp .L221
 2505               	.L222:
 2506               	.LBB377:
 2507               	.LBB378:
 295:../../LUFA-111009/LUFA/Drivers/USB/Core/AVR8/../AVR8/../AVR8/Endpoint_AVR8.h **** 				#elif defined(USB_SERIES_2_AVR)
 2508               		.loc 2 295 0
 2509 0032 2091 F300 		lds r18,243
 2510 0036 8091 F200 		lds r24,242
 2511               	.LBE378:
 2512               	.LBE377:
  53:../../LUFA-111009/LUFA/Drivers/USB/Core/AVR8/Template/Template_Endpoint_Control_R.c **** 		{
  54:../../LUFA-111009/LUFA/Drivers/USB/Core/AVR8/Template/Template_Endpoint_Control_R.c **** 			while (Length && Endpoint_BytesInEndpoint())
 2513               		.loc 5 54 0
 2514 003a 90E0      		ldi r25,0
 2515 003c 922B      		or r25,r18
 2516 003e 892B      		or r24,r25
 2517 0040 01F0      		breq .L223
 2518               	.LBB379:
 2519               	.LBB380:
 612:../../LUFA-111009/LUFA/Drivers/USB/Core/AVR8/../AVR8/../AVR8/Endpoint_AVR8.h **** 			}
 2520               		.loc 2 612 0
 2521 0042 8091 F100 		lds r24,241
 2522               	.LBE380:
 2523               	.LBE379:
  55:../../LUFA-111009/LUFA/Drivers/USB/Core/AVR8/Template/Template_Endpoint_Control_R.c **** 			{
  56:../../LUFA-111009/LUFA/Drivers/USB/Core/AVR8/Template/Template_Endpoint_Control_R.c **** 				TEMPLATE_TRANSFER_BYTE(DataStream);
 2524               		.loc 5 56 0
 2525 0046 8193      		st Z+,r24
 2526               	.LVL285:
  57:../../LUFA-111009/LUFA/Drivers/USB/Core/AVR8/Template/Template_Endpoint_Control_R.c **** 				TEMPLATE_BUFFER_MOVE(DataStream, 1);
  58:../../LUFA-111009/LUFA/Drivers/USB/Core/AVR8/Template/Template_Endpoint_Control_R.c **** 				Length--;
 2527               		.loc 5 58 0
 2528 0048 6150      		subi r22,1
 2529 004a 7109      		sbc r23,__zero_reg__
 2530               	.LVL286:
  54:../../LUFA-111009/LUFA/Drivers/USB/Core/AVR8/Template/Template_Endpoint_Control_R.c **** 			{
 2531               		.loc 5 54 0
 2532 004c 01F4      		brne .L222
 2533               	.L223:
 2534               	.LBB381:
 2535               	.LBB382:
 531:../../LUFA-111009/LUFA/Drivers/USB/Core/AVR8/../AVR8/../AVR8/Endpoint_AVR8.h **** 				#else
 2536               		.loc 2 531 0
 2537 004e 8091 E800 		lds r24,232
 2538 0052 8B77      		andi r24,lo8(123)
 2539 0054 8093 E800 		sts 232,r24
 2540 0058 00C0      		rjmp .L221
 2541               	.L227:
 2542               	.LBE382:
 2543               	.LBE381:
 2544               	.LBE372:
 2545               	.LBB383:
  59:../../LUFA-111009/LUFA/Drivers/USB/Core/AVR8/Template/Template_Endpoint_Control_R.c **** 			}
  60:../../LUFA-111009/LUFA/Drivers/USB/Core/AVR8/Template/Template_Endpoint_Control_R.c **** 
  61:../../LUFA-111009/LUFA/Drivers/USB/Core/AVR8/Template/Template_Endpoint_Control_R.c **** 			Endpoint_ClearOUT();
  62:../../LUFA-111009/LUFA/Drivers/USB/Core/AVR8/Template/Template_Endpoint_Control_R.c **** 		}
  63:../../LUFA-111009/LUFA/Drivers/USB/Core/AVR8/Template/Template_Endpoint_Control_R.c **** 	}
  64:../../LUFA-111009/LUFA/Drivers/USB/Core/AVR8/Template/Template_Endpoint_Control_R.c **** 
  65:../../LUFA-111009/LUFA/Drivers/USB/Core/AVR8/Template/Template_Endpoint_Control_R.c **** 	while (!(Endpoint_IsINReady()))
  66:../../LUFA-111009/LUFA/Drivers/USB/Core/AVR8/Template/Template_Endpoint_Control_R.c **** 	{
  67:../../LUFA-111009/LUFA/Drivers/USB/Core/AVR8/Template/Template_Endpoint_Control_R.c **** 		uint8_t USB_DeviceState_LCL = USB_DeviceState;
 2546               		.loc 5 67 0
 2547 005a 8EB3      		in r24,0x1e
 2548               	.LVL287:
  68:../../LUFA-111009/LUFA/Drivers/USB/Core/AVR8/Template/Template_Endpoint_Control_R.c **** 
  69:../../LUFA-111009/LUFA/Drivers/USB/Core/AVR8/Template/Template_Endpoint_Control_R.c **** 		if (USB_DeviceState_LCL == DEVICE_STATE_Unattached)
 2549               		.loc 5 69 0
 2550 005c 8823      		tst r24
 2551 005e 01F0      		breq .L231
  70:../../LUFA-111009/LUFA/Drivers/USB/Core/AVR8/Template/Template_Endpoint_Control_R.c **** 		  return ENDPOINT_RWCSTREAM_DeviceDisconnected;
  71:../../LUFA-111009/LUFA/Drivers/USB/Core/AVR8/Template/Template_Endpoint_Control_R.c **** 		else if (USB_DeviceState_LCL == DEVICE_STATE_Suspended)
 2552               		.loc 5 71 0
 2553 0060 8530      		cpi r24,lo8(5)
 2554 0062 01F0      		breq .L232
 2555               	.LVL288:
 2556               	.L226:
 2557               	.LBE383:
 2558               	.LBB384:
 2559               	.LBB385:
 467:../../LUFA-111009/LUFA/Drivers/USB/Core/AVR8/../AVR8/../AVR8/Endpoint_AVR8.h **** 			}
 2560               		.loc 2 467 0
 2561 0064 8091 E800 		lds r24,232
 2562               	.LBE385:
 2563               	.LBE384:
  65:../../LUFA-111009/LUFA/Drivers/USB/Core/AVR8/Template/Template_Endpoint_Control_R.c **** 	{
 2564               		.loc 5 65 0
 2565 0068 80FF      		sbrs r24,0
 2566 006a 00C0      		rjmp .L227
  72:../../LUFA-111009/LUFA/Drivers/USB/Core/AVR8/Template/Template_Endpoint_Control_R.c **** 		  return ENDPOINT_RWCSTREAM_BusSuspended;
  73:../../LUFA-111009/LUFA/Drivers/USB/Core/AVR8/Template/Template_Endpoint_Control_R.c **** 	}
  74:../../LUFA-111009/LUFA/Drivers/USB/Core/AVR8/Template/Template_Endpoint_Control_R.c **** 
  75:../../LUFA-111009/LUFA/Drivers/USB/Core/AVR8/Template/Template_Endpoint_Control_R.c **** 	return ENDPOINT_RWCSTREAM_NoError;
 2567               		.loc 5 75 0
 2568 006c 80E0      		ldi r24,0
 2569 006e 0895      		ret
 2570               	.L230:
 2571               	.LBB386:
  50:../../LUFA-111009/LUFA/Drivers/USB/Core/AVR8/Template/Template_Endpoint_Control_R.c **** 
 2572               		.loc 5 50 0
 2573 0070 81E0      		ldi r24,lo8(1)
 2574 0072 0895      		ret
 2575               	.L231:
  46:../../LUFA-111009/LUFA/Drivers/USB/Core/AVR8/Template/Template_Endpoint_Control_R.c **** 		else if (USB_DeviceState_LCL == DEVICE_STATE_Suspended)
 2576               		.loc 5 46 0
 2577 0074 82E0      		ldi r24,lo8(2)
 2578 0076 0895      		ret
 2579               	.L232:
  48:../../LUFA-111009/LUFA/Drivers/USB/Core/AVR8/Template/Template_Endpoint_Control_R.c **** 		else if (Endpoint_IsSETUPReceived())
 2580               		.loc 5 48 0
 2581 0078 83E0      		ldi r24,lo8(3)
 2582               	.LBE386:
  76:../../LUFA-111009/LUFA/Drivers/USB/Core/AVR8/Template/Template_Endpoint_Control_R.c **** }
 2583               		.loc 5 76 0
 2584 007a 0895      		ret
 2585               		.cfi_endproc
 2586               	.LFE95:
 2588               		.section	.text.Endpoint_Read_Control_Stream_BE,"ax",@progbits
 2589               	.global	Endpoint_Read_Control_Stream_BE
 2591               	Endpoint_Read_Control_Stream_BE:
 2592               	.LFB96:
  35:../../LUFA-111009/LUFA/Drivers/USB/Core/AVR8/Template/Template_Endpoint_Control_R.c **** 	uint8_t* DataStream = ((uint8_t*)Buffer + TEMPLATE_BUFFER_OFFSET(Length));
 2593               		.loc 5 35 0
 2594               		.cfi_startproc
 2595               	.LVL289:
 2596               	/* prologue: function */
 2597               	/* frame size = 0 */
 2598               	/* stack size = 0 */
 2599               	.L__stack_usage = 0
  36:../../LUFA-111009/LUFA/Drivers/USB/Core/AVR8/Template/Template_Endpoint_Control_R.c **** 
 2600               		.loc 5 36 0
 2601 0000 9B01      		movw r18,r22
 2602 0002 2150      		subi r18,1
 2603 0004 3109      		sbc r19,__zero_reg__
 2604 0006 820F      		add r24,r18
 2605 0008 931F      		adc r25,r19
 2606               	.LVL290:
  38:../../LUFA-111009/LUFA/Drivers/USB/Core/AVR8/Template/Template_Endpoint_Control_R.c **** 	  Endpoint_ClearOUT();
 2607               		.loc 5 38 0
 2608 000a 6115      		cp r22,__zero_reg__
 2609 000c 7105      		cpc r23,__zero_reg__
 2610 000e 01F4      		brne .L239
 2611               	.L241:
 2612               	.LBB387:
 2613               	.LBB388:
 2614               	.LBB389:
 531:../../LUFA-111009/LUFA/Drivers/USB/Core/AVR8/../AVR8/../AVR8/Endpoint_AVR8.h **** 				#else
 2615               		.loc 2 531 0
 2616 0010 2091 E800 		lds r18,232
 2617 0014 2B77      		andi r18,lo8(123)
 2618 0016 2093 E800 		sts 232,r18
 2619               	.L239:
 2620               	.LBE389:
 2621               	.LBE388:
 2622               	.LBE387:
  41:../../LUFA-111009/LUFA/Drivers/USB/Core/AVR8/Template/Template_Endpoint_Control_R.c **** 	{
 2623               		.loc 5 41 0
 2624 001a 6115      		cp r22,__zero_reg__
 2625 001c 7105      		cpc r23,__zero_reg__
 2626 001e 01F0      		breq .L244
 2627               	.LBB398:
  43:../../LUFA-111009/LUFA/Drivers/USB/Core/AVR8/Template/Template_Endpoint_Control_R.c **** 
 2628               		.loc 5 43 0
 2629 0020 2EB3      		in r18,0x1e
 2630               	.LVL291:
  45:../../LUFA-111009/LUFA/Drivers/USB/Core/AVR8/Template/Template_Endpoint_Control_R.c **** 		  return ENDPOINT_RWCSTREAM_DeviceDisconnected;
 2631               		.loc 5 45 0
 2632 0022 2223      		tst r18
 2633 0024 01F0      		breq .L249
  47:../../LUFA-111009/LUFA/Drivers/USB/Core/AVR8/Template/Template_Endpoint_Control_R.c **** 		  return ENDPOINT_RWCSTREAM_BusSuspended;
 2634               		.loc 5 47 0
 2635 0026 2530      		cpi r18,lo8(5)
 2636 0028 01F0      		breq .L250
 2637               	.LBB390:
 2638               	.LBB391:
 491:../../LUFA-111009/LUFA/Drivers/USB/Core/AVR8/../AVR8/../AVR8/Endpoint_AVR8.h **** 			}
 2639               		.loc 2 491 0
 2640 002a 2091 E800 		lds r18,232
 2641               	.LVL292:
 2642               	.LBE391:
 2643               	.LBE390:
  49:../../LUFA-111009/LUFA/Drivers/USB/Core/AVR8/Template/Template_Endpoint_Control_R.c **** 		  return ENDPOINT_RWCSTREAM_HostAborted;
 2644               		.loc 5 49 0
 2645 002e 23FD      		sbrc r18,3
 2646 0030 00C0      		rjmp .L248
 2647               	.LBB392:
 2648               	.LBB393:
 479:../../LUFA-111009/LUFA/Drivers/USB/Core/AVR8/../AVR8/../AVR8/Endpoint_AVR8.h **** 			}
 2649               		.loc 2 479 0
 2650 0032 2091 E800 		lds r18,232
 2651               	.LBE393:
 2652               	.LBE392:
  52:../../LUFA-111009/LUFA/Drivers/USB/Core/AVR8/Template/Template_Endpoint_Control_R.c **** 		{
 2653               		.loc 5 52 0
 2654 0036 22FF      		sbrs r18,2
 2655 0038 00C0      		rjmp .L239
 2656               	.L240:
 2657               	.LBB394:
 2658               	.LBB395:
 295:../../LUFA-111009/LUFA/Drivers/USB/Core/AVR8/../AVR8/../AVR8/Endpoint_AVR8.h **** 				#elif defined(USB_SERIES_2_AVR)
 2659               		.loc 2 295 0
 2660 003a 4091 F300 		lds r20,243
 2661 003e 2091 F200 		lds r18,242
 2662               	.LBE395:
 2663               	.LBE394:
  54:../../LUFA-111009/LUFA/Drivers/USB/Core/AVR8/Template/Template_Endpoint_Control_R.c **** 			{
 2664               		.loc 5 54 0
 2665 0042 30E0      		ldi r19,0
 2666 0044 342B      		or r19,r20
 2667 0046 232B      		or r18,r19
 2668 0048 01F0      		breq .L241
 2669               	.LBB396:
 2670               	.LBB397:
 612:../../LUFA-111009/LUFA/Drivers/USB/Core/AVR8/../AVR8/../AVR8/Endpoint_AVR8.h **** 			}
 2671               		.loc 2 612 0
 2672 004a 2091 F100 		lds r18,241
 2673               	.LBE397:
 2674               	.LBE396:
  56:../../LUFA-111009/LUFA/Drivers/USB/Core/AVR8/Template/Template_Endpoint_Control_R.c **** 				TEMPLATE_BUFFER_MOVE(DataStream, 1);
 2675               		.loc 5 56 0
 2676 004e FC01      		movw r30,r24
 2677 0050 2083      		st Z,r18
  57:../../LUFA-111009/LUFA/Drivers/USB/Core/AVR8/Template/Template_Endpoint_Control_R.c **** 				Length--;
 2678               		.loc 5 57 0
 2679 0052 0197      		sbiw r24,1
 2680               	.LVL293:
  58:../../LUFA-111009/LUFA/Drivers/USB/Core/AVR8/Template/Template_Endpoint_Control_R.c **** 			}
 2681               		.loc 5 58 0
 2682 0054 6150      		subi r22,1
 2683 0056 7109      		sbc r23,__zero_reg__
 2684               	.LVL294:
  54:../../LUFA-111009/LUFA/Drivers/USB/Core/AVR8/Template/Template_Endpoint_Control_R.c **** 			{
 2685               		.loc 5 54 0
 2686 0058 01F4      		brne .L240
 2687 005a 00C0      		rjmp .L241
 2688               	.LVL295:
 2689               	.L245:
 2690               	.LBE398:
 2691               	.LBB399:
  67:../../LUFA-111009/LUFA/Drivers/USB/Core/AVR8/Template/Template_Endpoint_Control_R.c **** 
 2692               		.loc 5 67 0
 2693 005c 8EB3      		in r24,0x1e
 2694               	.LVL296:
  69:../../LUFA-111009/LUFA/Drivers/USB/Core/AVR8/Template/Template_Endpoint_Control_R.c **** 		  return ENDPOINT_RWCSTREAM_DeviceDisconnected;
 2695               		.loc 5 69 0
 2696 005e 8823      		tst r24
 2697 0060 01F0      		breq .L249
  71:../../LUFA-111009/LUFA/Drivers/USB/Core/AVR8/Template/Template_Endpoint_Control_R.c **** 		  return ENDPOINT_RWCSTREAM_BusSuspended;
 2698               		.loc 5 71 0
 2699 0062 8530      		cpi r24,lo8(5)
 2700 0064 01F0      		breq .L250
 2701               	.LVL297:
 2702               	.L244:
 2703               	.LBE399:
 2704               	.LBB400:
 2705               	.LBB401:
 467:../../LUFA-111009/LUFA/Drivers/USB/Core/AVR8/../AVR8/../AVR8/Endpoint_AVR8.h **** 			}
 2706               		.loc 2 467 0
 2707 0066 8091 E800 		lds r24,232
 2708               	.LBE401:
 2709               	.LBE400:
  65:../../LUFA-111009/LUFA/Drivers/USB/Core/AVR8/Template/Template_Endpoint_Control_R.c **** 	{
 2710               		.loc 5 65 0
 2711 006a 80FF      		sbrs r24,0
 2712 006c 00C0      		rjmp .L245
  75:../../LUFA-111009/LUFA/Drivers/USB/Core/AVR8/Template/Template_Endpoint_Control_R.c **** }
 2713               		.loc 5 75 0
 2714 006e 80E0      		ldi r24,0
 2715 0070 0895      		ret
 2716               	.LVL298:
 2717               	.L248:
 2718               	.LBB402:
  50:../../LUFA-111009/LUFA/Drivers/USB/Core/AVR8/Template/Template_Endpoint_Control_R.c **** 
 2719               		.loc 5 50 0
 2720 0072 81E0      		ldi r24,lo8(1)
 2721               	.LVL299:
 2722 0074 0895      		ret
 2723               	.L249:
  46:../../LUFA-111009/LUFA/Drivers/USB/Core/AVR8/Template/Template_Endpoint_Control_R.c **** 		else if (USB_DeviceState_LCL == DEVICE_STATE_Suspended)
 2724               		.loc 5 46 0
 2725 0076 82E0      		ldi r24,lo8(2)
 2726 0078 0895      		ret
 2727               	.L250:
  48:../../LUFA-111009/LUFA/Drivers/USB/Core/AVR8/Template/Template_Endpoint_Control_R.c **** 		else if (Endpoint_IsSETUPReceived())
 2728               		.loc 5 48 0
 2729 007a 83E0      		ldi r24,lo8(3)
 2730               	.LBE402:
 2731               		.loc 5 76 0
 2732 007c 0895      		ret
 2733               		.cfi_endproc
 2734               	.LFE96:
 2736               		.section	.text.Endpoint_Write_Control_PStream_LE,"ax",@progbits
 2737               	.global	Endpoint_Write_Control_PStream_LE
 2739               	Endpoint_Write_Control_PStream_LE:
 2740               	.LFB97:
  35:../../LUFA-111009/LUFA/Drivers/USB/Core/AVR8/Template/Template_Endpoint_Control_W.c **** 	uint8_t* DataStream     = ((uint8_t*)Buffer + TEMPLATE_BUFFER_OFFSET(Length));
 2741               		.loc 4 35 0
 2742               		.cfi_startproc
 2743               	.LVL300:
 2744               	/* prologue: function */
 2745               	/* frame size = 0 */
 2746               	/* stack size = 0 */
 2747               	.L__stack_usage = 0
  39:../../LUFA-111009/LUFA/Drivers/USB/Core/AVR8/Template/Template_Endpoint_Control_W.c **** 	  Length = USB_ControlRequest.wLength;
 2748               		.loc 4 39 0
 2749 0000 2091 0000 		lds r18,USB_ControlRequest+6
 2750 0004 3091 0000 		lds r19,USB_ControlRequest+6+1
 2751 0008 2617      		cp r18,r22
 2752 000a 3707      		cpc r19,r23
 2753 000c 00F0      		brlo .L264
  41:../../LUFA-111009/LUFA/Drivers/USB/Core/AVR8/Template/Template_Endpoint_Control_W.c **** 	  Endpoint_ClearIN();
 2754               		.loc 4 41 0
 2755 000e 6115      		cp r22,__zero_reg__
 2756 0010 7105      		cpc r23,__zero_reg__
 2757 0012 01F4      		brne .L253
 2758               	.LBB403:
 2759               	.LBB404:
 516:../../LUFA-111009/LUFA/Drivers/USB/Core/AVR8/../AVR8/../AVR8/Endpoint_AVR8.h **** 				#else
 2760               		.loc 2 516 0
 2761 0014 2091 E800 		lds r18,232
 2762 0018 2E77      		andi r18,lo8(126)
 2763 001a 2093 E800 		sts 232,r18
 2764 001e 00C0      		rjmp .L253
 2765               	.L264:
 2766               	.LBE404:
 2767               	.LBE403:
 2768 0020 B901      		movw r22,r18
 2769               	.LVL301:
 2770               	.L253:
 2771 0022 FC01      		movw r30,r24
 2772 0024 20E0      		ldi r18,0
 2773               	.LVL302:
 2774               	.L257:
  44:../../LUFA-111009/LUFA/Drivers/USB/Core/AVR8/Template/Template_Endpoint_Control_W.c **** 	{
 2775               		.loc 4 44 0
 2776 0026 6115      		cp r22,__zero_reg__
 2777 0028 7105      		cpc r23,__zero_reg__
 2778 002a 01F0      		breq .L279
 2779               	.L262:
 2780               	.LBB405:
  46:../../LUFA-111009/LUFA/Drivers/USB/Core/AVR8/Template/Template_Endpoint_Control_W.c **** 
 2781               		.loc 4 46 0
 2782 002c 8EB3      		in r24,0x1e
 2783               	.LVL303:
  48:../../LUFA-111009/LUFA/Drivers/USB/Core/AVR8/Template/Template_Endpoint_Control_W.c **** 		  return ENDPOINT_RWCSTREAM_DeviceDisconnected;
 2784               		.loc 4 48 0
 2785 002e 8823      		tst r24
 2786 0030 01F4      		brne .+2
 2787 0032 00C0      		rjmp .L268
  50:../../LUFA-111009/LUFA/Drivers/USB/Core/AVR8/Template/Template_Endpoint_Control_W.c **** 		  return ENDPOINT_RWCSTREAM_BusSuspended;
 2788               		.loc 4 50 0
 2789 0034 8530      		cpi r24,lo8(5)
 2790 0036 01F4      		brne .+2
 2791 0038 00C0      		rjmp .L269
 2792               	.LBB406:
 2793               	.LBB407:
 491:../../LUFA-111009/LUFA/Drivers/USB/Core/AVR8/../AVR8/../AVR8/Endpoint_AVR8.h **** 			}
 2794               		.loc 2 491 0
 2795 003a 8091 E800 		lds r24,232
 2796               	.LVL304:
 2797               	.LBE407:
 2798               	.LBE406:
  52:../../LUFA-111009/LUFA/Drivers/USB/Core/AVR8/Template/Template_Endpoint_Control_W.c **** 		  return ENDPOINT_RWCSTREAM_HostAborted;
 2799               		.loc 4 52 0
 2800 003e 83FD      		sbrc r24,3
 2801 0040 00C0      		rjmp .L267
 2802               	.LBB408:
 2803               	.LBB409:
 479:../../LUFA-111009/LUFA/Drivers/USB/Core/AVR8/../AVR8/../AVR8/Endpoint_AVR8.h **** 			}
 2804               		.loc 2 479 0
 2805 0042 8091 E800 		lds r24,232
 2806               	.LBE409:
 2807               	.LBE408:
  54:../../LUFA-111009/LUFA/Drivers/USB/Core/AVR8/Template/Template_Endpoint_Control_W.c **** 		  break;
 2808               		.loc 4 54 0
 2809 0046 82FD      		sbrc r24,2
 2810 0048 00C0      		rjmp .L275
 2811               	.LBB410:
 2812               	.LBB411:
 467:../../LUFA-111009/LUFA/Drivers/USB/Core/AVR8/../AVR8/../AVR8/Endpoint_AVR8.h **** 			}
 2813               		.loc 2 467 0
 2814 004a 8091 E800 		lds r24,232
 2815               	.LBE411:
 2816               	.LBE410:
  57:../../LUFA-111009/LUFA/Drivers/USB/Core/AVR8/Template/Template_Endpoint_Control_W.c **** 		{
 2817               		.loc 4 57 0
 2818 004e 80FF      		sbrs r24,0
 2819 0050 00C0      		rjmp .L257
 2820               	.LBB412:
 2821               	.LBB413:
 2822               	.LBB414:
 295:../../LUFA-111009/LUFA/Drivers/USB/Core/AVR8/../AVR8/../AVR8/Endpoint_AVR8.h **** 				#elif defined(USB_SERIES_2_AVR)
 2823               		.loc 2 295 0
 2824 0052 2091 F300 		lds r18,243
 2825               	.LVL305:
 2826 0056 8091 F200 		lds r24,242
 2827 005a 90E0      		ldi r25,0
 2828 005c 922B      		or r25,r18
 2829               	.L258:
 2830               	.LVL306:
 2831               	.LBE414:
 2832               	.LBE413:
  61:../../LUFA-111009/LUFA/Drivers/USB/Core/AVR8/Template/Template_Endpoint_Control_W.c **** 			{
 2833               		.loc 4 61 0
 2834 005e 6115      		cp r22,__zero_reg__
 2835 0060 7105      		cpc r23,__zero_reg__
 2836 0062 01F0      		breq .L259
  61:../../LUFA-111009/LUFA/Drivers/USB/Core/AVR8/Template/Template_Endpoint_Control_W.c **** 			{
 2837               		.loc 4 61 0 is_stmt 0 discriminator 1
 2838 0064 8830      		cpi r24,8
 2839 0066 9105      		cpc r25,__zero_reg__
 2840 0068 00F4      		brsh .L259
 2841               	.LVL307:
 2842               	.LBB415:
  63:../../LUFA-111009/LUFA/Drivers/USB/Core/AVR8/Template/Template_Endpoint_Control_W.c **** 				TEMPLATE_BUFFER_MOVE(DataStream, 1);
 2843               		.loc 4 63 0 is_stmt 1
 2844               	/* #APP */
 2845               	 ;  63 "../../LUFA-111009/LUFA/Drivers/USB/Core/AVR8/Template/Template_Endpoint_Control_W.c" 1
 2846 006a 2491      		lpm r18, Z
 2847               		
 2848               	 ;  0 "" 2
 2849               	.LVL308:
 2850               	/* #NOAPP */
 2851               	.LBE415:
 2852               	.LBB416:
 2853               	.LBB417:
 624:../../LUFA-111009/LUFA/Drivers/USB/Core/AVR8/../AVR8/../AVR8/Endpoint_AVR8.h **** 			}
 2854               		.loc 2 624 0
 2855 006c 2093 F100 		sts 241,r18
 2856               	.LVL309:
 2857               	.LBE417:
 2858               	.LBE416:
  64:../../LUFA-111009/LUFA/Drivers/USB/Core/AVR8/Template/Template_Endpoint_Control_W.c **** 				Length--;
 2859               		.loc 4 64 0
 2860 0070 3196      		adiw r30,1
 2861               	.LVL310:
  65:../../LUFA-111009/LUFA/Drivers/USB/Core/AVR8/Template/Template_Endpoint_Control_W.c **** 				BytesInEndpoint++;
 2862               		.loc 4 65 0
 2863 0072 6150      		subi r22,1
 2864 0074 7109      		sbc r23,__zero_reg__
 2865               	.LVL311:
  66:../../LUFA-111009/LUFA/Drivers/USB/Core/AVR8/Template/Template_Endpoint_Control_W.c **** 			}
 2866               		.loc 4 66 0
 2867 0076 0196      		adiw r24,1
 2868               	.LVL312:
 2869 0078 00C0      		rjmp .L258
 2870               	.LVL313:
 2871               	.L259:
  69:../../LUFA-111009/LUFA/Drivers/USB/Core/AVR8/Template/Template_Endpoint_Control_W.c **** 			Endpoint_ClearIN();
 2872               		.loc 4 69 0
 2873 007a 21E0      		ldi r18,lo8(1)
 2874 007c 0897      		sbiw r24,8
 2875 007e 01F0      		breq .L261
 2876 0080 20E0      		ldi r18,0
 2877               	.L261:
 2878               	.LVL314:
 2879               	.LBB418:
 2880               	.LBB419:
 516:../../LUFA-111009/LUFA/Drivers/USB/Core/AVR8/../AVR8/../AVR8/Endpoint_AVR8.h **** 				#else
 2881               		.loc 2 516 0
 2882 0082 8091 E800 		lds r24,232
 2883               	.LVL315:
 2884 0086 8E77      		andi r24,lo8(126)
 2885 0088 8093 E800 		sts 232,r24
 2886 008c 00C0      		rjmp .L257
 2887               	.L279:
 2888               	.LBE419:
 2889               	.LBE418:
 2890               	.LBE412:
 2891               	.LBE405:
  44:../../LUFA-111009/LUFA/Drivers/USB/Core/AVR8/Template/Template_Endpoint_Control_W.c **** 	{
 2892               		.loc 4 44 0 discriminator 1
 2893 008e 2111      		cpse r18,__zero_reg__
 2894 0090 00C0      		rjmp .L262
 2895 0092 00C0      		rjmp .L275
 2896               	.L263:
 2897               	.LBB420:
  76:../../LUFA-111009/LUFA/Drivers/USB/Core/AVR8/Template/Template_Endpoint_Control_W.c **** 
 2898               		.loc 4 76 0
 2899 0094 8EB3      		in r24,0x1e
 2900               	.LVL316:
  78:../../LUFA-111009/LUFA/Drivers/USB/Core/AVR8/Template/Template_Endpoint_Control_W.c **** 		  return ENDPOINT_RWCSTREAM_DeviceDisconnected;
 2901               		.loc 4 78 0
 2902 0096 8823      		tst r24
 2903 0098 01F0      		breq .L268
  80:../../LUFA-111009/LUFA/Drivers/USB/Core/AVR8/Template/Template_Endpoint_Control_W.c **** 		  return ENDPOINT_RWCSTREAM_BusSuspended;
 2904               		.loc 4 80 0
 2905 009a 8530      		cpi r24,lo8(5)
 2906 009c 01F0      		breq .L269
 2907               	.LVL317:
 2908               	.L275:
 2909               	.LBE420:
 2910               	.LBB421:
 2911               	.LBB422:
 479:../../LUFA-111009/LUFA/Drivers/USB/Core/AVR8/../AVR8/../AVR8/Endpoint_AVR8.h **** 			}
 2912               		.loc 2 479 0
 2913 009e 8091 E800 		lds r24,232
 2914               	.LBE422:
 2915               	.LBE421:
  74:../../LUFA-111009/LUFA/Drivers/USB/Core/AVR8/Template/Template_Endpoint_Control_W.c **** 	{
 2916               		.loc 4 74 0
 2917 00a2 82FF      		sbrs r24,2
 2918 00a4 00C0      		rjmp .L263
  84:../../LUFA-111009/LUFA/Drivers/USB/Core/AVR8/Template/Template_Endpoint_Control_W.c **** }
 2919               		.loc 4 84 0
 2920 00a6 80E0      		ldi r24,0
 2921 00a8 0895      		ret
 2922               	.L267:
 2923               	.LBB423:
  53:../../LUFA-111009/LUFA/Drivers/USB/Core/AVR8/Template/Template_Endpoint_Control_W.c **** 		else if (Endpoint_IsOUTReceived())
 2924               		.loc 4 53 0
 2925 00aa 81E0      		ldi r24,lo8(1)
 2926 00ac 0895      		ret
 2927               	.L268:
  49:../../LUFA-111009/LUFA/Drivers/USB/Core/AVR8/Template/Template_Endpoint_Control_W.c **** 		else if (USB_DeviceState_LCL == DEVICE_STATE_Suspended)
 2928               		.loc 4 49 0
 2929 00ae 82E0      		ldi r24,lo8(2)
 2930 00b0 0895      		ret
 2931               	.L269:
  51:../../LUFA-111009/LUFA/Drivers/USB/Core/AVR8/Template/Template_Endpoint_Control_W.c **** 		else if (Endpoint_IsSETUPReceived())
 2932               		.loc 4 51 0
 2933 00b2 83E0      		ldi r24,lo8(3)
 2934               	.LBE423:
 2935               		.loc 4 85 0
 2936 00b4 0895      		ret
 2937               		.cfi_endproc
 2938               	.LFE97:
 2940               		.section	.text.Endpoint_Write_Control_PStream_BE,"ax",@progbits
 2941               	.global	Endpoint_Write_Control_PStream_BE
 2943               	Endpoint_Write_Control_PStream_BE:
 2944               	.LFB98:
  35:../../LUFA-111009/LUFA/Drivers/USB/Core/AVR8/Template/Template_Endpoint_Control_W.c **** 	uint8_t* DataStream     = ((uint8_t*)Buffer + TEMPLATE_BUFFER_OFFSET(Length));
 2945               		.loc 4 35 0
 2946               		.cfi_startproc
 2947               	.LVL318:
 2948               	/* prologue: function */
 2949               	/* frame size = 0 */
 2950               	/* stack size = 0 */
 2951               	.L__stack_usage = 0
  36:../../LUFA-111009/LUFA/Drivers/USB/Core/AVR8/Template/Template_Endpoint_Control_W.c **** 	bool     LastPacketFull = false;
 2952               		.loc 4 36 0
 2953 0000 FB01      		movw r30,r22
 2954 0002 3197      		sbiw r30,1
 2955 0004 8E0F      		add r24,r30
 2956 0006 9F1F      		adc r25,r31
 2957               	.LVL319:
  39:../../LUFA-111009/LUFA/Drivers/USB/Core/AVR8/Template/Template_Endpoint_Control_W.c **** 	  Length = USB_ControlRequest.wLength;
 2958               		.loc 4 39 0
 2959 0008 2091 0000 		lds r18,USB_ControlRequest+6
 2960 000c 3091 0000 		lds r19,USB_ControlRequest+6+1
 2961 0010 2617      		cp r18,r22
 2962 0012 3707      		cpc r19,r23
 2963 0014 00F0      		brlo .L292
  41:../../LUFA-111009/LUFA/Drivers/USB/Core/AVR8/Template/Template_Endpoint_Control_W.c **** 	  Endpoint_ClearIN();
 2964               		.loc 4 41 0
 2965 0016 6115      		cp r22,__zero_reg__
 2966 0018 7105      		cpc r23,__zero_reg__
 2967 001a 01F4      		brne .L281
 2968               	.LBB424:
 2969               	.LBB425:
 516:../../LUFA-111009/LUFA/Drivers/USB/Core/AVR8/../AVR8/../AVR8/Endpoint_AVR8.h **** 				#else
 2970               		.loc 2 516 0
 2971 001c 2091 E800 		lds r18,232
 2972 0020 2E77      		andi r18,lo8(126)
 2973 0022 2093 E800 		sts 232,r18
 2974 0026 00C0      		rjmp .L281
 2975               	.L292:
 2976               	.LBE425:
 2977               	.LBE424:
 2978 0028 B901      		movw r22,r18
 2979               	.LVL320:
 2980               	.L281:
 2981 002a 40E0      		ldi r20,0
 2982               	.LVL321:
 2983               	.L285:
  44:../../LUFA-111009/LUFA/Drivers/USB/Core/AVR8/Template/Template_Endpoint_Control_W.c **** 	{
 2984               		.loc 4 44 0
 2985 002c 6115      		cp r22,__zero_reg__
 2986 002e 7105      		cpc r23,__zero_reg__
 2987 0030 01F0      		breq .L307
 2988               	.L290:
 2989               	.LBB426:
  46:../../LUFA-111009/LUFA/Drivers/USB/Core/AVR8/Template/Template_Endpoint_Control_W.c **** 
 2990               		.loc 4 46 0
 2991 0032 2EB3      		in r18,0x1e
 2992               	.LVL322:
  48:../../LUFA-111009/LUFA/Drivers/USB/Core/AVR8/Template/Template_Endpoint_Control_W.c **** 		  return ENDPOINT_RWCSTREAM_DeviceDisconnected;
 2993               		.loc 4 48 0
 2994 0034 2223      		tst r18
 2995 0036 01F4      		brne .+2
 2996 0038 00C0      		rjmp .L296
  50:../../LUFA-111009/LUFA/Drivers/USB/Core/AVR8/Template/Template_Endpoint_Control_W.c **** 		  return ENDPOINT_RWCSTREAM_BusSuspended;
 2997               		.loc 4 50 0
 2998 003a 2530      		cpi r18,lo8(5)
 2999 003c 01F4      		brne .+2
 3000 003e 00C0      		rjmp .L297
 3001               	.LBB427:
 3002               	.LBB428:
 491:../../LUFA-111009/LUFA/Drivers/USB/Core/AVR8/../AVR8/../AVR8/Endpoint_AVR8.h **** 			}
 3003               		.loc 2 491 0
 3004 0040 2091 E800 		lds r18,232
 3005               	.LVL323:
 3006               	.LBE428:
 3007               	.LBE427:
  52:../../LUFA-111009/LUFA/Drivers/USB/Core/AVR8/Template/Template_Endpoint_Control_W.c **** 		  return ENDPOINT_RWCSTREAM_HostAborted;
 3008               		.loc 4 52 0
 3009 0044 23FD      		sbrc r18,3
 3010 0046 00C0      		rjmp .L295
 3011               	.LBB429:
 3012               	.LBB430:
 479:../../LUFA-111009/LUFA/Drivers/USB/Core/AVR8/../AVR8/../AVR8/Endpoint_AVR8.h **** 			}
 3013               		.loc 2 479 0
 3014 0048 2091 E800 		lds r18,232
 3015               	.LBE430:
 3016               	.LBE429:
  54:../../LUFA-111009/LUFA/Drivers/USB/Core/AVR8/Template/Template_Endpoint_Control_W.c **** 		  break;
 3017               		.loc 4 54 0
 3018 004c 22FD      		sbrc r18,2
 3019 004e 00C0      		rjmp .L303
 3020               	.LBB431:
 3021               	.LBB432:
 467:../../LUFA-111009/LUFA/Drivers/USB/Core/AVR8/../AVR8/../AVR8/Endpoint_AVR8.h **** 			}
 3022               		.loc 2 467 0
 3023 0050 2091 E800 		lds r18,232
 3024               	.LBE432:
 3025               	.LBE431:
  57:../../LUFA-111009/LUFA/Drivers/USB/Core/AVR8/Template/Template_Endpoint_Control_W.c **** 		{
 3026               		.loc 4 57 0
 3027 0054 20FF      		sbrs r18,0
 3028 0056 00C0      		rjmp .L285
 3029               	.LBB433:
 3030               	.LBB434:
 3031               	.LBB435:
 295:../../LUFA-111009/LUFA/Drivers/USB/Core/AVR8/../AVR8/../AVR8/Endpoint_AVR8.h **** 				#elif defined(USB_SERIES_2_AVR)
 3032               		.loc 2 295 0
 3033 0058 4091 F300 		lds r20,243
 3034               	.LVL324:
 3035 005c 2091 F200 		lds r18,242
 3036 0060 30E0      		ldi r19,0
 3037 0062 342B      		or r19,r20
 3038               	.L286:
 3039               	.LVL325:
 3040               	.LBE435:
 3041               	.LBE434:
  61:../../LUFA-111009/LUFA/Drivers/USB/Core/AVR8/Template/Template_Endpoint_Control_W.c **** 			{
 3042               		.loc 4 61 0
 3043 0064 6115      		cp r22,__zero_reg__
 3044 0066 7105      		cpc r23,__zero_reg__
 3045 0068 01F0      		breq .L287
  61:../../LUFA-111009/LUFA/Drivers/USB/Core/AVR8/Template/Template_Endpoint_Control_W.c **** 			{
 3046               		.loc 4 61 0 is_stmt 0 discriminator 1
 3047 006a 2830      		cpi r18,8
 3048 006c 3105      		cpc r19,__zero_reg__
 3049 006e 00F4      		brsh .L287
 3050               	.LVL326:
 3051               	.LBB436:
  63:../../LUFA-111009/LUFA/Drivers/USB/Core/AVR8/Template/Template_Endpoint_Control_W.c **** 				TEMPLATE_BUFFER_MOVE(DataStream, 1);
 3052               		.loc 4 63 0 is_stmt 1
 3053 0070 FC01      		movw r30,r24
 3054               	/* #APP */
 3055               	 ;  63 "../../LUFA-111009/LUFA/Drivers/USB/Core/AVR8/Template/Template_Endpoint_Control_W.c" 1
 3056 0072 4491      		lpm r20, Z
 3057               		
 3058               	 ;  0 "" 2
 3059               	.LVL327:
 3060               	/* #NOAPP */
 3061               	.LBE436:
 3062               	.LBB437:
 3063               	.LBB438:
 624:../../LUFA-111009/LUFA/Drivers/USB/Core/AVR8/../AVR8/../AVR8/Endpoint_AVR8.h **** 			}
 3064               		.loc 2 624 0
 3065 0074 4093 F100 		sts 241,r20
 3066               	.LVL328:
 3067               	.LBE438:
 3068               	.LBE437:
  64:../../LUFA-111009/LUFA/Drivers/USB/Core/AVR8/Template/Template_Endpoint_Control_W.c **** 				Length--;
 3069               		.loc 4 64 0
 3070 0078 0197      		sbiw r24,1
 3071               	.LVL329:
  65:../../LUFA-111009/LUFA/Drivers/USB/Core/AVR8/Template/Template_Endpoint_Control_W.c **** 				BytesInEndpoint++;
 3072               		.loc 4 65 0
 3073 007a 6150      		subi r22,1
 3074 007c 7109      		sbc r23,__zero_reg__
 3075               	.LVL330:
  66:../../LUFA-111009/LUFA/Drivers/USB/Core/AVR8/Template/Template_Endpoint_Control_W.c **** 			}
 3076               		.loc 4 66 0
 3077 007e 2F5F      		subi r18,-1
 3078 0080 3F4F      		sbci r19,-1
 3079               	.LVL331:
 3080 0082 00C0      		rjmp .L286
 3081               	.LVL332:
 3082               	.L287:
  69:../../LUFA-111009/LUFA/Drivers/USB/Core/AVR8/Template/Template_Endpoint_Control_W.c **** 			Endpoint_ClearIN();
 3083               		.loc 4 69 0
 3084 0084 41E0      		ldi r20,lo8(1)
 3085 0086 2830      		cpi r18,8
 3086 0088 3105      		cpc r19,__zero_reg__
 3087 008a 01F0      		breq .L289
 3088 008c 40E0      		ldi r20,0
 3089               	.L289:
 3090               	.LVL333:
 3091               	.LBB439:
 3092               	.LBB440:
 516:../../LUFA-111009/LUFA/Drivers/USB/Core/AVR8/../AVR8/../AVR8/Endpoint_AVR8.h **** 				#else
 3093               		.loc 2 516 0
 3094 008e 2091 E800 		lds r18,232
 3095               	.LVL334:
 3096 0092 2E77      		andi r18,lo8(126)
 3097 0094 2093 E800 		sts 232,r18
 3098 0098 00C0      		rjmp .L285
 3099               	.L307:
 3100               	.LBE440:
 3101               	.LBE439:
 3102               	.LBE433:
 3103               	.LBE426:
  44:../../LUFA-111009/LUFA/Drivers/USB/Core/AVR8/Template/Template_Endpoint_Control_W.c **** 	{
 3104               		.loc 4 44 0 discriminator 1
 3105 009a 4111      		cpse r20,__zero_reg__
 3106 009c 00C0      		rjmp .L290
 3107 009e 00C0      		rjmp .L303
 3108               	.LVL335:
 3109               	.L291:
 3110               	.LBB441:
  76:../../LUFA-111009/LUFA/Drivers/USB/Core/AVR8/Template/Template_Endpoint_Control_W.c **** 
 3111               		.loc 4 76 0
 3112 00a0 8EB3      		in r24,0x1e
 3113               	.LVL336:
  78:../../LUFA-111009/LUFA/Drivers/USB/Core/AVR8/Template/Template_Endpoint_Control_W.c **** 		  return ENDPOINT_RWCSTREAM_DeviceDisconnected;
 3114               		.loc 4 78 0
 3115 00a2 8823      		tst r24
 3116 00a4 01F0      		breq .L296
  80:../../LUFA-111009/LUFA/Drivers/USB/Core/AVR8/Template/Template_Endpoint_Control_W.c **** 		  return ENDPOINT_RWCSTREAM_BusSuspended;
 3117               		.loc 4 80 0
 3118 00a6 8530      		cpi r24,lo8(5)
 3119 00a8 01F0      		breq .L297
 3120               	.LVL337:
 3121               	.L303:
 3122               	.LBE441:
 3123               	.LBB442:
 3124               	.LBB443:
 479:../../LUFA-111009/LUFA/Drivers/USB/Core/AVR8/../AVR8/../AVR8/Endpoint_AVR8.h **** 			}
 3125               		.loc 2 479 0
 3126 00aa 8091 E800 		lds r24,232
 3127               	.LBE443:
 3128               	.LBE442:
  74:../../LUFA-111009/LUFA/Drivers/USB/Core/AVR8/Template/Template_Endpoint_Control_W.c **** 	{
 3129               		.loc 4 74 0
 3130 00ae 82FF      		sbrs r24,2
 3131 00b0 00C0      		rjmp .L291
  84:../../LUFA-111009/LUFA/Drivers/USB/Core/AVR8/Template/Template_Endpoint_Control_W.c **** }
 3132               		.loc 4 84 0
 3133 00b2 80E0      		ldi r24,0
 3134 00b4 0895      		ret
 3135               	.LVL338:
 3136               	.L295:
 3137               	.LBB444:
  53:../../LUFA-111009/LUFA/Drivers/USB/Core/AVR8/Template/Template_Endpoint_Control_W.c **** 		else if (Endpoint_IsOUTReceived())
 3138               		.loc 4 53 0
 3139 00b6 81E0      		ldi r24,lo8(1)
 3140               	.LVL339:
 3141 00b8 0895      		ret
 3142               	.L296:
  49:../../LUFA-111009/LUFA/Drivers/USB/Core/AVR8/Template/Template_Endpoint_Control_W.c **** 		else if (USB_DeviceState_LCL == DEVICE_STATE_Suspended)
 3143               		.loc 4 49 0
 3144 00ba 82E0      		ldi r24,lo8(2)
 3145 00bc 0895      		ret
 3146               	.L297:
  51:../../LUFA-111009/LUFA/Drivers/USB/Core/AVR8/Template/Template_Endpoint_Control_W.c **** 		else if (Endpoint_IsSETUPReceived())
 3147               		.loc 4 51 0
 3148 00be 83E0      		ldi r24,lo8(3)
 3149               	.LBE444:
 3150               		.loc 4 85 0
 3151 00c0 0895      		ret
 3152               		.cfi_endproc
 3153               	.LFE98:
 3155               		.section	.text.Endpoint_Write_Control_EStream_LE,"ax",@progbits
 3156               	.global	Endpoint_Write_Control_EStream_LE
 3158               	Endpoint_Write_Control_EStream_LE:
 3159               	.LFB99:
  35:../../LUFA-111009/LUFA/Drivers/USB/Core/AVR8/Template/Template_Endpoint_Control_W.c **** 	uint8_t* DataStream     = ((uint8_t*)Buffer + TEMPLATE_BUFFER_OFFSET(Length));
 3160               		.loc 4 35 0
 3161               		.cfi_startproc
 3162               	.LVL340:
 3163 0000 CF92      		push r12
 3164               	.LCFI92:
 3165               		.cfi_def_cfa_offset 3
 3166               		.cfi_offset 12, -2
 3167 0002 DF92      		push r13
 3168               	.LCFI93:
 3169               		.cfi_def_cfa_offset 4
 3170               		.cfi_offset 13, -3
 3171 0004 EF92      		push r14
 3172               	.LCFI94:
 3173               		.cfi_def_cfa_offset 5
 3174               		.cfi_offset 14, -4
 3175 0006 FF92      		push r15
 3176               	.LCFI95:
 3177               		.cfi_def_cfa_offset 6
 3178               		.cfi_offset 15, -5
 3179 0008 0F93      		push r16
 3180               	.LCFI96:
 3181               		.cfi_def_cfa_offset 7
 3182               		.cfi_offset 16, -6
 3183 000a 1F93      		push r17
 3184               	.LCFI97:
 3185               		.cfi_def_cfa_offset 8
 3186               		.cfi_offset 17, -7
 3187 000c CF93      		push r28
 3188               	.LCFI98:
 3189               		.cfi_def_cfa_offset 9
 3190               		.cfi_offset 28, -8
 3191 000e DF93      		push r29
 3192               	.LCFI99:
 3193               		.cfi_def_cfa_offset 10
 3194               		.cfi_offset 29, -9
 3195               	/* prologue: function */
 3196               	/* frame size = 0 */
 3197               	/* stack size = 8 */
 3198               	.L__stack_usage = 8
 3199 0010 EB01      		movw r28,r22
 3200               	.LVL341:
  39:../../LUFA-111009/LUFA/Drivers/USB/Core/AVR8/Template/Template_Endpoint_Control_W.c **** 	  Length = USB_ControlRequest.wLength;
 3201               		.loc 4 39 0
 3202 0012 2091 0000 		lds r18,USB_ControlRequest+6
 3203 0016 3091 0000 		lds r19,USB_ControlRequest+6+1
 3204 001a 2617      		cp r18,r22
 3205 001c 3707      		cpc r19,r23
 3206 001e 00F0      		brlo .L320
  41:../../LUFA-111009/LUFA/Drivers/USB/Core/AVR8/Template/Template_Endpoint_Control_W.c **** 	  Endpoint_ClearIN();
 3207               		.loc 4 41 0
 3208 0020 2097      		sbiw r28,0
 3209 0022 01F4      		brne .L309
 3210               	.LBB445:
 3211               	.LBB446:
 516:../../LUFA-111009/LUFA/Drivers/USB/Core/AVR8/../AVR8/../AVR8/Endpoint_AVR8.h **** 				#else
 3212               		.loc 2 516 0
 3213 0024 2091 E800 		lds r18,232
 3214 0028 2E77      		andi r18,lo8(126)
 3215 002a 2093 E800 		sts 232,r18
 3216 002e 00C0      		rjmp .L309
 3217               	.L320:
 3218               	.LBE446:
 3219               	.LBE445:
 3220 0030 E901      		movw r28,r18
 3221               	.L309:
 3222               	.LBB447:
 3223               	.LBB448:
  59:../../LUFA-111009/LUFA/Drivers/USB/Core/AVR8/Template/Template_Endpoint_Control_W.c **** 
 3224               		.loc 4 59 0
 3225 0032 6C01      		movw r12,r24
 3226 0034 20E0      		ldi r18,0
 3227               	.LVL342:
 3228               	.L313:
 3229               	.LBE448:
 3230               	.LBE447:
  44:../../LUFA-111009/LUFA/Drivers/USB/Core/AVR8/Template/Template_Endpoint_Control_W.c **** 	{
 3231               		.loc 4 44 0
 3232 0036 2097      		sbiw r28,0
 3233 0038 01F0      		breq .L335
 3234               	.L318:
 3235               	.LBB462:
  46:../../LUFA-111009/LUFA/Drivers/USB/Core/AVR8/Template/Template_Endpoint_Control_W.c **** 
 3236               		.loc 4 46 0
 3237 003a 8EB3      		in r24,0x1e
 3238               	.LVL343:
  48:../../LUFA-111009/LUFA/Drivers/USB/Core/AVR8/Template/Template_Endpoint_Control_W.c **** 		  return ENDPOINT_RWCSTREAM_DeviceDisconnected;
 3239               		.loc 4 48 0
 3240 003c 8823      		tst r24
 3241 003e 01F4      		brne .+2
 3242 0040 00C0      		rjmp .L324
  50:../../LUFA-111009/LUFA/Drivers/USB/Core/AVR8/Template/Template_Endpoint_Control_W.c **** 		  return ENDPOINT_RWCSTREAM_BusSuspended;
 3243               		.loc 4 50 0
 3244 0042 8530      		cpi r24,lo8(5)
 3245 0044 01F4      		brne .+2
 3246 0046 00C0      		rjmp .L325
 3247               	.LBB455:
 3248               	.LBB456:
 491:../../LUFA-111009/LUFA/Drivers/USB/Core/AVR8/../AVR8/../AVR8/Endpoint_AVR8.h **** 			}
 3249               		.loc 2 491 0
 3250 0048 8091 E800 		lds r24,232
 3251               	.LVL344:
 3252               	.LBE456:
 3253               	.LBE455:
  52:../../LUFA-111009/LUFA/Drivers/USB/Core/AVR8/Template/Template_Endpoint_Control_W.c **** 		  return ENDPOINT_RWCSTREAM_HostAborted;
 3254               		.loc 4 52 0
 3255 004c 83FD      		sbrc r24,3
 3256 004e 00C0      		rjmp .L323
 3257               	.LBB457:
 3258               	.LBB458:
 479:../../LUFA-111009/LUFA/Drivers/USB/Core/AVR8/../AVR8/../AVR8/Endpoint_AVR8.h **** 			}
 3259               		.loc 2 479 0
 3260 0050 8091 E800 		lds r24,232
 3261               	.LBE458:
 3262               	.LBE457:
  54:../../LUFA-111009/LUFA/Drivers/USB/Core/AVR8/Template/Template_Endpoint_Control_W.c **** 		  break;
 3263               		.loc 4 54 0
 3264 0054 82FD      		sbrc r24,2
 3265 0056 00C0      		rjmp .L331
 3266               	.LBB459:
 3267               	.LBB460:
 467:../../LUFA-111009/LUFA/Drivers/USB/Core/AVR8/../AVR8/../AVR8/Endpoint_AVR8.h **** 			}
 3268               		.loc 2 467 0
 3269 0058 8091 E800 		lds r24,232
 3270               	.LBE460:
 3271               	.LBE459:
  57:../../LUFA-111009/LUFA/Drivers/USB/Core/AVR8/Template/Template_Endpoint_Control_W.c **** 		{
 3272               		.loc 4 57 0
 3273 005c 80FF      		sbrs r24,0
 3274 005e 00C0      		rjmp .L313
 3275               	.LBB461:
 3276               	.LBB449:
 3277               	.LBB450:
 295:../../LUFA-111009/LUFA/Drivers/USB/Core/AVR8/../AVR8/../AVR8/Endpoint_AVR8.h **** 				#elif defined(USB_SERIES_2_AVR)
 3278               		.loc 2 295 0
 3279 0060 8091 F300 		lds r24,243
 3280 0064 0091 F200 		lds r16,242
 3281 0068 10E0      		ldi r17,0
 3282 006a 182B      		or r17,r24
 3283               	.LBE450:
 3284               	.LBE449:
  59:../../LUFA-111009/LUFA/Drivers/USB/Core/AVR8/Template/Template_Endpoint_Control_W.c **** 
 3285               		.loc 4 59 0
 3286 006c 7801      		movw r14,r16
 3287               	.LVL345:
 3288               	.L314:
 3289 006e C701      		movw r24,r14
 3290 0070 801B      		sub r24,r16
 3291 0072 910B      		sbc r25,r17
 3292 0074 8C0D      		add r24,r12
 3293 0076 9D1D      		adc r25,r13
 3294               	.LVL346:
  61:../../LUFA-111009/LUFA/Drivers/USB/Core/AVR8/Template/Template_Endpoint_Control_W.c **** 			{
 3295               		.loc 4 61 0
 3296 0078 2097      		sbiw r28,0
 3297 007a 01F0      		breq .L315
  61:../../LUFA-111009/LUFA/Drivers/USB/Core/AVR8/Template/Template_Endpoint_Control_W.c **** 			{
 3298               		.loc 4 61 0 is_stmt 0 discriminator 1
 3299 007c 38E0      		ldi r19,8
 3300 007e E316      		cp r14,r19
 3301 0080 F104      		cpc r15,__zero_reg__
 3302 0082 00F4      		brsh .L315
  63:../../LUFA-111009/LUFA/Drivers/USB/Core/AVR8/Template/Template_Endpoint_Control_W.c **** 				TEMPLATE_BUFFER_MOVE(DataStream, 1);
 3303               		.loc 4 63 0 is_stmt 1
 3304 0084 0E94 0000 		call eeprom_read_byte
 3305               	.LVL347:
 3306               	.LBB451:
 3307               	.LBB452:
 624:../../LUFA-111009/LUFA/Drivers/USB/Core/AVR8/../AVR8/../AVR8/Endpoint_AVR8.h **** 			}
 3308               		.loc 2 624 0
 3309 0088 8093 F100 		sts 241,r24
 3310               	.LVL348:
 3311               	.LBE452:
 3312               	.LBE451:
  65:../../LUFA-111009/LUFA/Drivers/USB/Core/AVR8/Template/Template_Endpoint_Control_W.c **** 				BytesInEndpoint++;
 3313               		.loc 4 65 0
 3314 008c 2197      		sbiw r28,1
 3315               	.LVL349:
  66:../../LUFA-111009/LUFA/Drivers/USB/Core/AVR8/Template/Template_Endpoint_Control_W.c **** 			}
 3316               		.loc 4 66 0
 3317 008e 2FEF      		ldi r18,-1
 3318 0090 E21A      		sub r14,r18
 3319 0092 F20A      		sbc r15,r18
 3320               	.LVL350:
 3321 0094 00C0      		rjmp .L314
 3322               	.LVL351:
 3323               	.L315:
  69:../../LUFA-111009/LUFA/Drivers/USB/Core/AVR8/Template/Template_Endpoint_Control_W.c **** 			Endpoint_ClearIN();
 3324               		.loc 4 69 0
 3325 0096 21E0      		ldi r18,lo8(1)
 3326 0098 38E0      		ldi r19,8
 3327 009a E316      		cp r14,r19
 3328 009c F104      		cpc r15,__zero_reg__
 3329 009e 01F0      		breq .L317
 3330 00a0 20E0      		ldi r18,0
 3331               	.L317:
 3332               	.LVL352:
 3333               	.LBB453:
 3334               	.LBB454:
 516:../../LUFA-111009/LUFA/Drivers/USB/Core/AVR8/../AVR8/../AVR8/Endpoint_AVR8.h **** 				#else
 3335               		.loc 2 516 0
 3336 00a2 3091 E800 		lds r19,232
 3337 00a6 3E77      		andi r19,lo8(126)
 3338 00a8 3093 E800 		sts 232,r19
 3339 00ac 6C01      		movw r12,r24
 3340 00ae 00C0      		rjmp .L313
 3341               	.LVL353:
 3342               	.L335:
 3343               	.LBE454:
 3344               	.LBE453:
 3345               	.LBE461:
 3346               	.LBE462:
  44:../../LUFA-111009/LUFA/Drivers/USB/Core/AVR8/Template/Template_Endpoint_Control_W.c **** 	{
 3347               		.loc 4 44 0 discriminator 1
 3348 00b0 2111      		cpse r18,__zero_reg__
 3349 00b2 00C0      		rjmp .L318
 3350 00b4 00C0      		rjmp .L331
 3351               	.L319:
 3352               	.LBB463:
  76:../../LUFA-111009/LUFA/Drivers/USB/Core/AVR8/Template/Template_Endpoint_Control_W.c **** 
 3353               		.loc 4 76 0
 3354 00b6 8EB3      		in r24,0x1e
 3355               	.LVL354:
  78:../../LUFA-111009/LUFA/Drivers/USB/Core/AVR8/Template/Template_Endpoint_Control_W.c **** 		  return ENDPOINT_RWCSTREAM_DeviceDisconnected;
 3356               		.loc 4 78 0
 3357 00b8 8823      		tst r24
 3358 00ba 01F0      		breq .L324
  80:../../LUFA-111009/LUFA/Drivers/USB/Core/AVR8/Template/Template_Endpoint_Control_W.c **** 		  return ENDPOINT_RWCSTREAM_BusSuspended;
 3359               		.loc 4 80 0
 3360 00bc 8530      		cpi r24,lo8(5)
 3361 00be 01F0      		breq .L325
 3362               	.LVL355:
 3363               	.L331:
 3364               	.LBE463:
 3365               	.LBB464:
 3366               	.LBB465:
 479:../../LUFA-111009/LUFA/Drivers/USB/Core/AVR8/../AVR8/../AVR8/Endpoint_AVR8.h **** 			}
 3367               		.loc 2 479 0
 3368 00c0 8091 E800 		lds r24,232
 3369               	.LBE465:
 3370               	.LBE464:
  74:../../LUFA-111009/LUFA/Drivers/USB/Core/AVR8/Template/Template_Endpoint_Control_W.c **** 	{
 3371               		.loc 4 74 0
 3372 00c4 82FF      		sbrs r24,2
 3373 00c6 00C0      		rjmp .L319
  84:../../LUFA-111009/LUFA/Drivers/USB/Core/AVR8/Template/Template_Endpoint_Control_W.c **** }
 3374               		.loc 4 84 0
 3375 00c8 80E0      		ldi r24,0
 3376 00ca 00C0      		rjmp .L311
 3377               	.L323:
 3378               	.LBB466:
  53:../../LUFA-111009/LUFA/Drivers/USB/Core/AVR8/Template/Template_Endpoint_Control_W.c **** 		else if (Endpoint_IsOUTReceived())
 3379               		.loc 4 53 0
 3380 00cc 81E0      		ldi r24,lo8(1)
 3381 00ce 00C0      		rjmp .L311
 3382               	.L324:
  49:../../LUFA-111009/LUFA/Drivers/USB/Core/AVR8/Template/Template_Endpoint_Control_W.c **** 		else if (USB_DeviceState_LCL == DEVICE_STATE_Suspended)
 3383               		.loc 4 49 0
 3384 00d0 82E0      		ldi r24,lo8(2)
 3385 00d2 00C0      		rjmp .L311
 3386               	.L325:
  51:../../LUFA-111009/LUFA/Drivers/USB/Core/AVR8/Template/Template_Endpoint_Control_W.c **** 		else if (Endpoint_IsSETUPReceived())
 3387               		.loc 4 51 0
 3388 00d4 83E0      		ldi r24,lo8(3)
 3389               	.L311:
 3390               	/* epilogue start */
 3391               	.LBE466:
 3392               		.loc 4 85 0
 3393 00d6 DF91      		pop r29
 3394 00d8 CF91      		pop r28
 3395               	.LVL356:
 3396 00da 1F91      		pop r17
 3397 00dc 0F91      		pop r16
 3398 00de FF90      		pop r15
 3399 00e0 EF90      		pop r14
 3400 00e2 DF90      		pop r13
 3401 00e4 CF90      		pop r12
 3402               	.LVL357:
 3403 00e6 0895      		ret
 3404               		.cfi_endproc
 3405               	.LFE99:
 3407               		.section	.text.Endpoint_Write_Control_EStream_BE,"ax",@progbits
 3408               	.global	Endpoint_Write_Control_EStream_BE
 3410               	Endpoint_Write_Control_EStream_BE:
 3411               	.LFB100:
  35:../../LUFA-111009/LUFA/Drivers/USB/Core/AVR8/Template/Template_Endpoint_Control_W.c **** 	uint8_t* DataStream     = ((uint8_t*)Buffer + TEMPLATE_BUFFER_OFFSET(Length));
 3412               		.loc 4 35 0
 3413               		.cfi_startproc
 3414               	.LVL358:
 3415 0000 CF92      		push r12
 3416               	.LCFI100:
 3417               		.cfi_def_cfa_offset 3
 3418               		.cfi_offset 12, -2
 3419 0002 DF92      		push r13
 3420               	.LCFI101:
 3421               		.cfi_def_cfa_offset 4
 3422               		.cfi_offset 13, -3
 3423 0004 EF92      		push r14
 3424               	.LCFI102:
 3425               		.cfi_def_cfa_offset 5
 3426               		.cfi_offset 14, -4
 3427 0006 FF92      		push r15
 3428               	.LCFI103:
 3429               		.cfi_def_cfa_offset 6
 3430               		.cfi_offset 15, -5
 3431 0008 0F93      		push r16
 3432               	.LCFI104:
 3433               		.cfi_def_cfa_offset 7
 3434               		.cfi_offset 16, -6
 3435 000a 1F93      		push r17
 3436               	.LCFI105:
 3437               		.cfi_def_cfa_offset 8
 3438               		.cfi_offset 17, -7
 3439 000c CF93      		push r28
 3440               	.LCFI106:
 3441               		.cfi_def_cfa_offset 9
 3442               		.cfi_offset 28, -8
 3443 000e DF93      		push r29
 3444               	.LCFI107:
 3445               		.cfi_def_cfa_offset 10
 3446               		.cfi_offset 29, -9
 3447               	/* prologue: function */
 3448               	/* frame size = 0 */
 3449               	/* stack size = 8 */
 3450               	.L__stack_usage = 8
 3451 0010 EB01      		movw r28,r22
  36:../../LUFA-111009/LUFA/Drivers/USB/Core/AVR8/Template/Template_Endpoint_Control_W.c **** 	bool     LastPacketFull = false;
 3452               		.loc 4 36 0
 3453 0012 6B01      		movw r12,r22
 3454 0014 21E0      		ldi r18,1
 3455 0016 C21A      		sub r12,r18
 3456 0018 D108      		sbc r13,__zero_reg__
 3457 001a C80E      		add r12,r24
 3458 001c D91E      		adc r13,r25
 3459               	.LVL359:
  39:../../LUFA-111009/LUFA/Drivers/USB/Core/AVR8/Template/Template_Endpoint_Control_W.c **** 	  Length = USB_ControlRequest.wLength;
 3460               		.loc 4 39 0
 3461 001e 8091 0000 		lds r24,USB_ControlRequest+6
 3462 0022 9091 0000 		lds r25,USB_ControlRequest+6+1
 3463               	.LVL360:
 3464 0026 8617      		cp r24,r22
 3465 0028 9707      		cpc r25,r23
 3466 002a 00F0      		brlo .L348
  41:../../LUFA-111009/LUFA/Drivers/USB/Core/AVR8/Template/Template_Endpoint_Control_W.c **** 	  Endpoint_ClearIN();
 3467               		.loc 4 41 0
 3468 002c 2097      		sbiw r28,0
 3469 002e 01F4      		brne .L337
 3470               	.LBB467:
 3471               	.LBB468:
 516:../../LUFA-111009/LUFA/Drivers/USB/Core/AVR8/../AVR8/../AVR8/Endpoint_AVR8.h **** 				#else
 3472               		.loc 2 516 0
 3473 0030 8091 E800 		lds r24,232
 3474 0034 8E77      		andi r24,lo8(126)
 3475 0036 8093 E800 		sts 232,r24
 3476 003a 00C0      		rjmp .L337
 3477               	.L348:
 3478               	.LBE468:
 3479               	.LBE467:
 3480 003c EC01      		movw r28,r24
 3481               	.L337:
 3482               	.LBB469:
 3483               	.LBB470:
  61:../../LUFA-111009/LUFA/Drivers/USB/Core/AVR8/Template/Template_Endpoint_Control_W.c **** 			{
 3484               		.loc 4 61 0
 3485 003e 20E0      		ldi r18,0
 3486               	.LVL361:
 3487               	.L341:
 3488               	.LBE470:
 3489               	.LBE469:
  44:../../LUFA-111009/LUFA/Drivers/USB/Core/AVR8/Template/Template_Endpoint_Control_W.c **** 	{
 3490               		.loc 4 44 0
 3491 0040 2097      		sbiw r28,0
 3492 0042 01F0      		breq .L363
 3493               	.L346:
 3494               	.LBB484:
  46:../../LUFA-111009/LUFA/Drivers/USB/Core/AVR8/Template/Template_Endpoint_Control_W.c **** 
 3495               		.loc 4 46 0
 3496 0044 8EB3      		in r24,0x1e
 3497               	.LVL362:
  48:../../LUFA-111009/LUFA/Drivers/USB/Core/AVR8/Template/Template_Endpoint_Control_W.c **** 		  return ENDPOINT_RWCSTREAM_DeviceDisconnected;
 3498               		.loc 4 48 0
 3499 0046 8823      		tst r24
 3500 0048 01F4      		brne .+2
 3501 004a 00C0      		rjmp .L352
  50:../../LUFA-111009/LUFA/Drivers/USB/Core/AVR8/Template/Template_Endpoint_Control_W.c **** 		  return ENDPOINT_RWCSTREAM_BusSuspended;
 3502               		.loc 4 50 0
 3503 004c 8530      		cpi r24,lo8(5)
 3504 004e 01F4      		brne .+2
 3505 0050 00C0      		rjmp .L353
 3506               	.LBB477:
 3507               	.LBB478:
 491:../../LUFA-111009/LUFA/Drivers/USB/Core/AVR8/../AVR8/../AVR8/Endpoint_AVR8.h **** 			}
 3508               		.loc 2 491 0
 3509 0052 8091 E800 		lds r24,232
 3510               	.LVL363:
 3511               	.LBE478:
 3512               	.LBE477:
  52:../../LUFA-111009/LUFA/Drivers/USB/Core/AVR8/Template/Template_Endpoint_Control_W.c **** 		  return ENDPOINT_RWCSTREAM_HostAborted;
 3513               		.loc 4 52 0
 3514 0056 83FD      		sbrc r24,3
 3515 0058 00C0      		rjmp .L351
 3516               	.LBB479:
 3517               	.LBB480:
 479:../../LUFA-111009/LUFA/Drivers/USB/Core/AVR8/../AVR8/../AVR8/Endpoint_AVR8.h **** 			}
 3518               		.loc 2 479 0
 3519 005a 8091 E800 		lds r24,232
 3520               	.LBE480:
 3521               	.LBE479:
  54:../../LUFA-111009/LUFA/Drivers/USB/Core/AVR8/Template/Template_Endpoint_Control_W.c **** 		  break;
 3522               		.loc 4 54 0
 3523 005e 82FD      		sbrc r24,2
 3524 0060 00C0      		rjmp .L359
 3525               	.LBB481:
 3526               	.LBB482:
 467:../../LUFA-111009/LUFA/Drivers/USB/Core/AVR8/../AVR8/../AVR8/Endpoint_AVR8.h **** 			}
 3527               		.loc 2 467 0
 3528 0062 8091 E800 		lds r24,232
 3529               	.LBE482:
 3530               	.LBE481:
  57:../../LUFA-111009/LUFA/Drivers/USB/Core/AVR8/Template/Template_Endpoint_Control_W.c **** 		{
 3531               		.loc 4 57 0
 3532 0066 80FF      		sbrs r24,0
 3533 0068 00C0      		rjmp .L341
 3534               	.LBB483:
 3535               	.LBB471:
 3536               	.LBB472:
 295:../../LUFA-111009/LUFA/Drivers/USB/Core/AVR8/../AVR8/../AVR8/Endpoint_AVR8.h **** 				#elif defined(USB_SERIES_2_AVR)
 3537               		.loc 2 295 0
 3538 006a 8091 F300 		lds r24,243
 3539 006e 0091 F200 		lds r16,242
 3540 0072 10E0      		ldi r17,0
 3541 0074 182B      		or r17,r24
 3542               	.LBE472:
 3543               	.LBE471:
  61:../../LUFA-111009/LUFA/Drivers/USB/Core/AVR8/Template/Template_Endpoint_Control_W.c **** 			{
 3544               		.loc 4 61 0
 3545 0076 7E01      		movw r14,r28
 3546               	.LVL364:
 3547               	.L342:
 3548 0078 C701      		movw r24,r14
 3549 007a 8C1B      		sub r24,r28
 3550 007c 9D0B      		sbc r25,r29
 3551 007e 8C0D      		add r24,r12
 3552 0080 9D1D      		adc r25,r13
 3553               	.LVL365:
 3554 0082 E114      		cp r14,__zero_reg__
 3555 0084 F104      		cpc r15,__zero_reg__
 3556 0086 01F0      		breq .L343
  61:../../LUFA-111009/LUFA/Drivers/USB/Core/AVR8/Template/Template_Endpoint_Control_W.c **** 			{
 3557               		.loc 4 61 0 is_stmt 0 discriminator 1
 3558 0088 0830      		cpi r16,8
 3559 008a 1105      		cpc r17,__zero_reg__
 3560 008c 00F4      		brsh .L343
  63:../../LUFA-111009/LUFA/Drivers/USB/Core/AVR8/Template/Template_Endpoint_Control_W.c **** 				TEMPLATE_BUFFER_MOVE(DataStream, 1);
 3561               		.loc 4 63 0 is_stmt 1
 3562 008e 0E94 0000 		call eeprom_read_byte
 3563               	.LVL366:
 3564               	.LBB473:
 3565               	.LBB474:
 624:../../LUFA-111009/LUFA/Drivers/USB/Core/AVR8/../AVR8/../AVR8/Endpoint_AVR8.h **** 			}
 3566               		.loc 2 624 0
 3567 0092 8093 F100 		sts 241,r24
 3568               	.LVL367:
 3569               	.LBE474:
 3570               	.LBE473:
  65:../../LUFA-111009/LUFA/Drivers/USB/Core/AVR8/Template/Template_Endpoint_Control_W.c **** 				BytesInEndpoint++;
 3571               		.loc 4 65 0
 3572 0096 81E0      		ldi r24,1
 3573 0098 E81A      		sub r14,r24
 3574 009a F108      		sbc r15,__zero_reg__
 3575               	.LVL368:
  66:../../LUFA-111009/LUFA/Drivers/USB/Core/AVR8/Template/Template_Endpoint_Control_W.c **** 			}
 3576               		.loc 4 66 0
 3577 009c 0F5F      		subi r16,-1
 3578 009e 1F4F      		sbci r17,-1
 3579               	.LVL369:
 3580 00a0 00C0      		rjmp .L342
 3581               	.LVL370:
 3582               	.L343:
  69:../../LUFA-111009/LUFA/Drivers/USB/Core/AVR8/Template/Template_Endpoint_Control_W.c **** 			Endpoint_ClearIN();
 3583               		.loc 4 69 0
 3584 00a2 21E0      		ldi r18,lo8(1)
 3585 00a4 0830      		cpi r16,8
 3586 00a6 1105      		cpc r17,__zero_reg__
 3587 00a8 01F0      		breq .L345
 3588 00aa 20E0      		ldi r18,0
 3589               	.L345:
 3590               	.LVL371:
 3591               	.LBB475:
 3592               	.LBB476:
 516:../../LUFA-111009/LUFA/Drivers/USB/Core/AVR8/../AVR8/../AVR8/Endpoint_AVR8.h **** 				#else
 3593               		.loc 2 516 0
 3594 00ac 3091 E800 		lds r19,232
 3595 00b0 3E77      		andi r19,lo8(126)
 3596 00b2 3093 E800 		sts 232,r19
 3597 00b6 6C01      		movw r12,r24
 3598 00b8 E701      		movw r28,r14
 3599 00ba 00C0      		rjmp .L341
 3600               	.LVL372:
 3601               	.L363:
 3602               	.LBE476:
 3603               	.LBE475:
 3604               	.LBE483:
 3605               	.LBE484:
  44:../../LUFA-111009/LUFA/Drivers/USB/Core/AVR8/Template/Template_Endpoint_Control_W.c **** 	{
 3606               		.loc 4 44 0 discriminator 1
 3607 00bc 2111      		cpse r18,__zero_reg__
 3608 00be 00C0      		rjmp .L346
 3609 00c0 00C0      		rjmp .L359
 3610               	.L347:
 3611               	.LBB485:
  76:../../LUFA-111009/LUFA/Drivers/USB/Core/AVR8/Template/Template_Endpoint_Control_W.c **** 
 3612               		.loc 4 76 0
 3613 00c2 8EB3      		in r24,0x1e
 3614               	.LVL373:
  78:../../LUFA-111009/LUFA/Drivers/USB/Core/AVR8/Template/Template_Endpoint_Control_W.c **** 		  return ENDPOINT_RWCSTREAM_DeviceDisconnected;
 3615               		.loc 4 78 0
 3616 00c4 8823      		tst r24
 3617 00c6 01F0      		breq .L352
  80:../../LUFA-111009/LUFA/Drivers/USB/Core/AVR8/Template/Template_Endpoint_Control_W.c **** 		  return ENDPOINT_RWCSTREAM_BusSuspended;
 3618               		.loc 4 80 0
 3619 00c8 8530      		cpi r24,lo8(5)
 3620 00ca 01F0      		breq .L353
 3621               	.LVL374:
 3622               	.L359:
 3623               	.LBE485:
 3624               	.LBB486:
 3625               	.LBB487:
 479:../../LUFA-111009/LUFA/Drivers/USB/Core/AVR8/../AVR8/../AVR8/Endpoint_AVR8.h **** 			}
 3626               		.loc 2 479 0
 3627 00cc 8091 E800 		lds r24,232
 3628               	.LBE487:
 3629               	.LBE486:
  74:../../LUFA-111009/LUFA/Drivers/USB/Core/AVR8/Template/Template_Endpoint_Control_W.c **** 	{
 3630               		.loc 4 74 0
 3631 00d0 82FF      		sbrs r24,2
 3632 00d2 00C0      		rjmp .L347
  84:../../LUFA-111009/LUFA/Drivers/USB/Core/AVR8/Template/Template_Endpoint_Control_W.c **** }
 3633               		.loc 4 84 0
 3634 00d4 80E0      		ldi r24,0
 3635 00d6 00C0      		rjmp .L339
 3636               	.L351:
 3637               	.LBB488:
  53:../../LUFA-111009/LUFA/Drivers/USB/Core/AVR8/Template/Template_Endpoint_Control_W.c **** 		else if (Endpoint_IsOUTReceived())
 3638               		.loc 4 53 0
 3639 00d8 81E0      		ldi r24,lo8(1)
 3640 00da 00C0      		rjmp .L339
 3641               	.L352:
  49:../../LUFA-111009/LUFA/Drivers/USB/Core/AVR8/Template/Template_Endpoint_Control_W.c **** 		else if (USB_DeviceState_LCL == DEVICE_STATE_Suspended)
 3642               		.loc 4 49 0
 3643 00dc 82E0      		ldi r24,lo8(2)
 3644 00de 00C0      		rjmp .L339
 3645               	.L353:
  51:../../LUFA-111009/LUFA/Drivers/USB/Core/AVR8/Template/Template_Endpoint_Control_W.c **** 		else if (Endpoint_IsSETUPReceived())
 3646               		.loc 4 51 0
 3647 00e0 83E0      		ldi r24,lo8(3)
 3648               	.L339:
 3649               	/* epilogue start */
 3650               	.LBE488:
 3651               		.loc 4 85 0
 3652 00e2 DF91      		pop r29
 3653 00e4 CF91      		pop r28
 3654               	.LVL375:
 3655 00e6 1F91      		pop r17
 3656 00e8 0F91      		pop r16
 3657 00ea FF90      		pop r15
 3658 00ec EF90      		pop r14
 3659 00ee DF90      		pop r13
 3660 00f0 CF90      		pop r12
 3661               	.LVL376:
 3662 00f2 0895      		ret
 3663               		.cfi_endproc
 3664               	.LFE100:
 3666               		.section	.text.Endpoint_Read_Control_EStream_LE,"ax",@progbits
 3667               	.global	Endpoint_Read_Control_EStream_LE
 3669               	Endpoint_Read_Control_EStream_LE:
 3670               	.LFB101:
  35:../../LUFA-111009/LUFA/Drivers/USB/Core/AVR8/Template/Template_Endpoint_Control_R.c **** 	uint8_t* DataStream = ((uint8_t*)Buffer + TEMPLATE_BUFFER_OFFSET(Length));
 3671               		.loc 5 35 0
 3672               		.cfi_startproc
 3673               	.LVL377:
 3674 0000 0F93      		push r16
 3675               	.LCFI108:
 3676               		.cfi_def_cfa_offset 3
 3677               		.cfi_offset 16, -2
 3678 0002 1F93      		push r17
 3679               	.LCFI109:
 3680               		.cfi_def_cfa_offset 4
 3681               		.cfi_offset 17, -3
 3682 0004 CF93      		push r28
 3683               	.LCFI110:
 3684               		.cfi_def_cfa_offset 5
 3685               		.cfi_offset 28, -4
 3686 0006 DF93      		push r29
 3687               	.LCFI111:
 3688               		.cfi_def_cfa_offset 6
 3689               		.cfi_offset 29, -5
 3690               	/* prologue: function */
 3691               	/* frame size = 0 */
 3692               	/* stack size = 4 */
 3693               	.L__stack_usage = 4
 3694 0008 EB01      		movw r28,r22
 3695               	.LVL378:
  38:../../LUFA-111009/LUFA/Drivers/USB/Core/AVR8/Template/Template_Endpoint_Control_R.c **** 	  Endpoint_ClearOUT();
 3696               		.loc 5 38 0
 3697 000a 2097      		sbiw r28,0
 3698 000c 01F4      		brne .L365
 3699               	.LBB489:
 3700               	.LBB490:
 531:../../LUFA-111009/LUFA/Drivers/USB/Core/AVR8/../AVR8/../AVR8/Endpoint_AVR8.h **** 				#else
 3701               		.loc 2 531 0
 3702 000e 2091 E800 		lds r18,232
 3703 0012 2B77      		andi r18,lo8(123)
 3704 0014 2093 E800 		sts 232,r18
 3705               	.L365:
 3706               	.LBE490:
 3707               	.LBE489:
  35:../../LUFA-111009/LUFA/Drivers/USB/Core/AVR8/Template/Template_Endpoint_Control_R.c **** 	uint8_t* DataStream = ((uint8_t*)Buffer + TEMPLATE_BUFFER_OFFSET(Length));
 3708               		.loc 5 35 0
 3709 0018 8C01      		movw r16,r24
 3710               	.LVL379:
 3711               	.L369:
  41:../../LUFA-111009/LUFA/Drivers/USB/Core/AVR8/Template/Template_Endpoint_Control_R.c **** 	{
 3712               		.loc 5 41 0
 3713 001a 2097      		sbiw r28,0
 3714 001c 01F0      		breq .L374
 3715               	.LBB491:
  43:../../LUFA-111009/LUFA/Drivers/USB/Core/AVR8/Template/Template_Endpoint_Control_R.c **** 
 3716               		.loc 5 43 0
 3717 001e 8EB3      		in r24,0x1e
 3718               	.LVL380:
  45:../../LUFA-111009/LUFA/Drivers/USB/Core/AVR8/Template/Template_Endpoint_Control_R.c **** 		  return ENDPOINT_RWCSTREAM_DeviceDisconnected;
 3719               		.loc 5 45 0
 3720 0020 8823      		tst r24
 3721 0022 01F0      		breq .L379
  47:../../LUFA-111009/LUFA/Drivers/USB/Core/AVR8/Template/Template_Endpoint_Control_R.c **** 		  return ENDPOINT_RWCSTREAM_BusSuspended;
 3722               		.loc 5 47 0
 3723 0024 8530      		cpi r24,lo8(5)
 3724 0026 01F0      		breq .L380
 3725               	.LBB492:
 3726               	.LBB493:
 491:../../LUFA-111009/LUFA/Drivers/USB/Core/AVR8/../AVR8/../AVR8/Endpoint_AVR8.h **** 			}
 3727               		.loc 2 491 0
 3728 0028 8091 E800 		lds r24,232
 3729               	.LVL381:
 3730               	.LBE493:
 3731               	.LBE492:
  49:../../LUFA-111009/LUFA/Drivers/USB/Core/AVR8/Template/Template_Endpoint_Control_R.c **** 		  return ENDPOINT_RWCSTREAM_HostAborted;
 3732               		.loc 5 49 0
 3733 002c 83FD      		sbrc r24,3
 3734 002e 00C0      		rjmp .L378
 3735               	.LBB494:
 3736               	.LBB495:
 479:../../LUFA-111009/LUFA/Drivers/USB/Core/AVR8/../AVR8/../AVR8/Endpoint_AVR8.h **** 			}
 3737               		.loc 2 479 0
 3738 0030 8091 E800 		lds r24,232
 3739               	.LBE495:
 3740               	.LBE494:
  52:../../LUFA-111009/LUFA/Drivers/USB/Core/AVR8/Template/Template_Endpoint_Control_R.c **** 		{
 3741               		.loc 5 52 0
 3742 0034 82FF      		sbrs r24,2
 3743 0036 00C0      		rjmp .L369
 3744               	.L370:
 3745               	.LBB496:
 3746               	.LBB497:
 295:../../LUFA-111009/LUFA/Drivers/USB/Core/AVR8/../AVR8/../AVR8/Endpoint_AVR8.h **** 				#elif defined(USB_SERIES_2_AVR)
 3747               		.loc 2 295 0
 3748 0038 2091 F300 		lds r18,243
 3749 003c 8091 F200 		lds r24,242
 3750               	.LBE497:
 3751               	.LBE496:
  54:../../LUFA-111009/LUFA/Drivers/USB/Core/AVR8/Template/Template_Endpoint_Control_R.c **** 			{
 3752               		.loc 5 54 0
 3753 0040 90E0      		ldi r25,0
 3754 0042 922B      		or r25,r18
 3755 0044 892B      		or r24,r25
 3756 0046 01F0      		breq .L371
 3757               	.LBB498:
 3758               	.LBB499:
 612:../../LUFA-111009/LUFA/Drivers/USB/Core/AVR8/../AVR8/../AVR8/Endpoint_AVR8.h **** 			}
 3759               		.loc 2 612 0
 3760 0048 6091 F100 		lds r22,241
 3761               	.LBE499:
 3762               	.LBE498:
  56:../../LUFA-111009/LUFA/Drivers/USB/Core/AVR8/Template/Template_Endpoint_Control_R.c **** 				TEMPLATE_BUFFER_MOVE(DataStream, 1);
 3763               		.loc 5 56 0
 3764 004c C801      		movw r24,r16
 3765 004e 0E94 0000 		call eeprom_update_byte
 3766               	.LVL382:
  57:../../LUFA-111009/LUFA/Drivers/USB/Core/AVR8/Template/Template_Endpoint_Control_R.c **** 				Length--;
 3767               		.loc 5 57 0
 3768 0052 0F5F      		subi r16,-1
 3769 0054 1F4F      		sbci r17,-1
 3770               	.LVL383:
  58:../../LUFA-111009/LUFA/Drivers/USB/Core/AVR8/Template/Template_Endpoint_Control_R.c **** 			}
 3771               		.loc 5 58 0
 3772 0056 2197      		sbiw r28,1
 3773               	.LVL384:
  54:../../LUFA-111009/LUFA/Drivers/USB/Core/AVR8/Template/Template_Endpoint_Control_R.c **** 			{
 3774               		.loc 5 54 0
 3775 0058 01F4      		brne .L370
 3776               	.L371:
 3777               	.LBB500:
 3778               	.LBB501:
 531:../../LUFA-111009/LUFA/Drivers/USB/Core/AVR8/../AVR8/../AVR8/Endpoint_AVR8.h **** 				#else
 3779               		.loc 2 531 0
 3780 005a 8091 E800 		lds r24,232
 3781 005e 8B77      		andi r24,lo8(123)
 3782 0060 8093 E800 		sts 232,r24
 3783 0064 00C0      		rjmp .L369
 3784               	.L375:
 3785               	.LBE501:
 3786               	.LBE500:
 3787               	.LBE491:
 3788               	.LBB502:
  67:../../LUFA-111009/LUFA/Drivers/USB/Core/AVR8/Template/Template_Endpoint_Control_R.c **** 
 3789               		.loc 5 67 0
 3790 0066 8EB3      		in r24,0x1e
 3791               	.LVL385:
  69:../../LUFA-111009/LUFA/Drivers/USB/Core/AVR8/Template/Template_Endpoint_Control_R.c **** 		  return ENDPOINT_RWCSTREAM_DeviceDisconnected;
 3792               		.loc 5 69 0
 3793 0068 8823      		tst r24
 3794 006a 01F0      		breq .L379
  71:../../LUFA-111009/LUFA/Drivers/USB/Core/AVR8/Template/Template_Endpoint_Control_R.c **** 		  return ENDPOINT_RWCSTREAM_BusSuspended;
 3795               		.loc 5 71 0
 3796 006c 8530      		cpi r24,lo8(5)
 3797 006e 01F0      		breq .L380
 3798               	.LVL386:
 3799               	.L374:
 3800               	.LBE502:
 3801               	.LBB503:
 3802               	.LBB504:
 467:../../LUFA-111009/LUFA/Drivers/USB/Core/AVR8/../AVR8/../AVR8/Endpoint_AVR8.h **** 			}
 3803               		.loc 2 467 0
 3804 0070 8091 E800 		lds r24,232
 3805               	.LBE504:
 3806               	.LBE503:
  65:../../LUFA-111009/LUFA/Drivers/USB/Core/AVR8/Template/Template_Endpoint_Control_R.c **** 	{
 3807               		.loc 5 65 0
 3808 0074 80FF      		sbrs r24,0
 3809 0076 00C0      		rjmp .L375
  75:../../LUFA-111009/LUFA/Drivers/USB/Core/AVR8/Template/Template_Endpoint_Control_R.c **** }
 3810               		.loc 5 75 0
 3811 0078 80E0      		ldi r24,0
 3812 007a 00C0      		rjmp .L367
 3813               	.L378:
 3814               	.LBB505:
  50:../../LUFA-111009/LUFA/Drivers/USB/Core/AVR8/Template/Template_Endpoint_Control_R.c **** 
 3815               		.loc 5 50 0
 3816 007c 81E0      		ldi r24,lo8(1)
 3817 007e 00C0      		rjmp .L367
 3818               	.L379:
  46:../../LUFA-111009/LUFA/Drivers/USB/Core/AVR8/Template/Template_Endpoint_Control_R.c **** 		else if (USB_DeviceState_LCL == DEVICE_STATE_Suspended)
 3819               		.loc 5 46 0
 3820 0080 82E0      		ldi r24,lo8(2)
 3821 0082 00C0      		rjmp .L367
 3822               	.L380:
  48:../../LUFA-111009/LUFA/Drivers/USB/Core/AVR8/Template/Template_Endpoint_Control_R.c **** 		else if (Endpoint_IsSETUPReceived())
 3823               		.loc 5 48 0
 3824 0084 83E0      		ldi r24,lo8(3)
 3825               	.L367:
 3826               	/* epilogue start */
 3827               	.LBE505:
 3828               		.loc 5 76 0
 3829 0086 DF91      		pop r29
 3830 0088 CF91      		pop r28
 3831               	.LVL387:
 3832 008a 1F91      		pop r17
 3833 008c 0F91      		pop r16
 3834               	.LVL388:
 3835 008e 0895      		ret
 3836               		.cfi_endproc
 3837               	.LFE101:
 3839               		.section	.text.Endpoint_Read_Control_EStream_BE,"ax",@progbits
 3840               	.global	Endpoint_Read_Control_EStream_BE
 3842               	Endpoint_Read_Control_EStream_BE:
 3843               	.LFB102:
  35:../../LUFA-111009/LUFA/Drivers/USB/Core/AVR8/Template/Template_Endpoint_Control_R.c **** 	uint8_t* DataStream = ((uint8_t*)Buffer + TEMPLATE_BUFFER_OFFSET(Length));
 3844               		.loc 5 35 0
 3845               		.cfi_startproc
 3846               	.LVL389:
 3847 0000 0F93      		push r16
 3848               	.LCFI112:
 3849               		.cfi_def_cfa_offset 3
 3850               		.cfi_offset 16, -2
 3851 0002 1F93      		push r17
 3852               	.LCFI113:
 3853               		.cfi_def_cfa_offset 4
 3854               		.cfi_offset 17, -3
 3855 0004 CF93      		push r28
 3856               	.LCFI114:
 3857               		.cfi_def_cfa_offset 5
 3858               		.cfi_offset 28, -4
 3859 0006 DF93      		push r29
 3860               	.LCFI115:
 3861               		.cfi_def_cfa_offset 6
 3862               		.cfi_offset 29, -5
 3863               	/* prologue: function */
 3864               	/* frame size = 0 */
 3865               	/* stack size = 4 */
 3866               	.L__stack_usage = 4
 3867 0008 EB01      		movw r28,r22
  36:../../LUFA-111009/LUFA/Drivers/USB/Core/AVR8/Template/Template_Endpoint_Control_R.c **** 
 3868               		.loc 5 36 0
 3869 000a 8B01      		movw r16,r22
 3870 000c 0150      		subi r16,1
 3871 000e 1109      		sbc r17,__zero_reg__
 3872 0010 080F      		add r16,r24
 3873 0012 191F      		adc r17,r25
 3874               	.LVL390:
  38:../../LUFA-111009/LUFA/Drivers/USB/Core/AVR8/Template/Template_Endpoint_Control_R.c **** 	  Endpoint_ClearOUT();
 3875               		.loc 5 38 0
 3876 0014 2097      		sbiw r28,0
 3877 0016 01F4      		brne .L387
 3878               	.LVL391:
 3879               	.L389:
 3880               	.LBB506:
 3881               	.LBB507:
 3882               	.LBB508:
 531:../../LUFA-111009/LUFA/Drivers/USB/Core/AVR8/../AVR8/../AVR8/Endpoint_AVR8.h **** 				#else
 3883               		.loc 2 531 0
 3884 0018 8091 E800 		lds r24,232
 3885 001c 8B77      		andi r24,lo8(123)
 3886 001e 8093 E800 		sts 232,r24
 3887               	.L387:
 3888               	.LBE508:
 3889               	.LBE507:
 3890               	.LBE506:
  41:../../LUFA-111009/LUFA/Drivers/USB/Core/AVR8/Template/Template_Endpoint_Control_R.c **** 	{
 3891               		.loc 5 41 0
 3892 0022 2097      		sbiw r28,0
 3893 0024 01F0      		breq .L392
 3894               	.LBB517:
  43:../../LUFA-111009/LUFA/Drivers/USB/Core/AVR8/Template/Template_Endpoint_Control_R.c **** 
 3895               		.loc 5 43 0
 3896 0026 8EB3      		in r24,0x1e
 3897               	.LVL392:
  45:../../LUFA-111009/LUFA/Drivers/USB/Core/AVR8/Template/Template_Endpoint_Control_R.c **** 		  return ENDPOINT_RWCSTREAM_DeviceDisconnected;
 3898               		.loc 5 45 0
 3899 0028 8823      		tst r24
 3900 002a 01F0      		breq .L397
  47:../../LUFA-111009/LUFA/Drivers/USB/Core/AVR8/Template/Template_Endpoint_Control_R.c **** 		  return ENDPOINT_RWCSTREAM_BusSuspended;
 3901               		.loc 5 47 0
 3902 002c 8530      		cpi r24,lo8(5)
 3903 002e 01F0      		breq .L398
 3904               	.LBB509:
 3905               	.LBB510:
 491:../../LUFA-111009/LUFA/Drivers/USB/Core/AVR8/../AVR8/../AVR8/Endpoint_AVR8.h **** 			}
 3906               		.loc 2 491 0
 3907 0030 8091 E800 		lds r24,232
 3908               	.LVL393:
 3909               	.LBE510:
 3910               	.LBE509:
  49:../../LUFA-111009/LUFA/Drivers/USB/Core/AVR8/Template/Template_Endpoint_Control_R.c **** 		  return ENDPOINT_RWCSTREAM_HostAborted;
 3911               		.loc 5 49 0
 3912 0034 83FD      		sbrc r24,3
 3913 0036 00C0      		rjmp .L396
 3914               	.LBB511:
 3915               	.LBB512:
 479:../../LUFA-111009/LUFA/Drivers/USB/Core/AVR8/../AVR8/../AVR8/Endpoint_AVR8.h **** 			}
 3916               		.loc 2 479 0
 3917 0038 8091 E800 		lds r24,232
 3918               	.LBE512:
 3919               	.LBE511:
  52:../../LUFA-111009/LUFA/Drivers/USB/Core/AVR8/Template/Template_Endpoint_Control_R.c **** 		{
 3920               		.loc 5 52 0
 3921 003c 82FF      		sbrs r24,2
 3922 003e 00C0      		rjmp .L387
 3923               	.L388:
 3924               	.LBB513:
 3925               	.LBB514:
 295:../../LUFA-111009/LUFA/Drivers/USB/Core/AVR8/../AVR8/../AVR8/Endpoint_AVR8.h **** 				#elif defined(USB_SERIES_2_AVR)
 3926               		.loc 2 295 0
 3927 0040 2091 F300 		lds r18,243
 3928 0044 8091 F200 		lds r24,242
 3929               	.LBE514:
 3930               	.LBE513:
  54:../../LUFA-111009/LUFA/Drivers/USB/Core/AVR8/Template/Template_Endpoint_Control_R.c **** 			{
 3931               		.loc 5 54 0
 3932 0048 90E0      		ldi r25,0
 3933 004a 922B      		or r25,r18
 3934 004c 892B      		or r24,r25
 3935 004e 01F0      		breq .L389
 3936               	.LBB515:
 3937               	.LBB516:
 612:../../LUFA-111009/LUFA/Drivers/USB/Core/AVR8/../AVR8/../AVR8/Endpoint_AVR8.h **** 			}
 3938               		.loc 2 612 0
 3939 0050 6091 F100 		lds r22,241
 3940               	.LBE516:
 3941               	.LBE515:
  56:../../LUFA-111009/LUFA/Drivers/USB/Core/AVR8/Template/Template_Endpoint_Control_R.c **** 				TEMPLATE_BUFFER_MOVE(DataStream, 1);
 3942               		.loc 5 56 0
 3943 0054 C801      		movw r24,r16
 3944 0056 0E94 0000 		call eeprom_update_byte
 3945               	.LVL394:
  57:../../LUFA-111009/LUFA/Drivers/USB/Core/AVR8/Template/Template_Endpoint_Control_R.c **** 				Length--;
 3946               		.loc 5 57 0
 3947 005a 0150      		subi r16,1
 3948 005c 1109      		sbc r17,__zero_reg__
 3949               	.LVL395:
  58:../../LUFA-111009/LUFA/Drivers/USB/Core/AVR8/Template/Template_Endpoint_Control_R.c **** 			}
 3950               		.loc 5 58 0
 3951 005e 2197      		sbiw r28,1
 3952               	.LVL396:
  54:../../LUFA-111009/LUFA/Drivers/USB/Core/AVR8/Template/Template_Endpoint_Control_R.c **** 			{
 3953               		.loc 5 54 0
 3954 0060 01F4      		brne .L388
 3955 0062 00C0      		rjmp .L389
 3956               	.L393:
 3957               	.LBE517:
 3958               	.LBB518:
  67:../../LUFA-111009/LUFA/Drivers/USB/Core/AVR8/Template/Template_Endpoint_Control_R.c **** 
 3959               		.loc 5 67 0
 3960 0064 8EB3      		in r24,0x1e
 3961               	.LVL397:
  69:../../LUFA-111009/LUFA/Drivers/USB/Core/AVR8/Template/Template_Endpoint_Control_R.c **** 		  return ENDPOINT_RWCSTREAM_DeviceDisconnected;
 3962               		.loc 5 69 0
 3963 0066 8823      		tst r24
 3964 0068 01F0      		breq .L397
  71:../../LUFA-111009/LUFA/Drivers/USB/Core/AVR8/Template/Template_Endpoint_Control_R.c **** 		  return ENDPOINT_RWCSTREAM_BusSuspended;
 3965               		.loc 5 71 0
 3966 006a 8530      		cpi r24,lo8(5)
 3967 006c 01F0      		breq .L398
 3968               	.LVL398:
 3969               	.L392:
 3970               	.LBE518:
 3971               	.LBB519:
 3972               	.LBB520:
 467:../../LUFA-111009/LUFA/Drivers/USB/Core/AVR8/../AVR8/../AVR8/Endpoint_AVR8.h **** 			}
 3973               		.loc 2 467 0
 3974 006e 8091 E800 		lds r24,232
 3975               	.LBE520:
 3976               	.LBE519:
  65:../../LUFA-111009/LUFA/Drivers/USB/Core/AVR8/Template/Template_Endpoint_Control_R.c **** 	{
 3977               		.loc 5 65 0
 3978 0072 80FF      		sbrs r24,0
 3979 0074 00C0      		rjmp .L393
  75:../../LUFA-111009/LUFA/Drivers/USB/Core/AVR8/Template/Template_Endpoint_Control_R.c **** }
 3980               		.loc 5 75 0
 3981 0076 80E0      		ldi r24,0
 3982 0078 00C0      		rjmp .L385
 3983               	.L396:
 3984               	.LBB521:
  50:../../LUFA-111009/LUFA/Drivers/USB/Core/AVR8/Template/Template_Endpoint_Control_R.c **** 
 3985               		.loc 5 50 0
 3986 007a 81E0      		ldi r24,lo8(1)
 3987 007c 00C0      		rjmp .L385
 3988               	.L397:
  46:../../LUFA-111009/LUFA/Drivers/USB/Core/AVR8/Template/Template_Endpoint_Control_R.c **** 		else if (USB_DeviceState_LCL == DEVICE_STATE_Suspended)
 3989               		.loc 5 46 0
 3990 007e 82E0      		ldi r24,lo8(2)
 3991 0080 00C0      		rjmp .L385
 3992               	.L398:
  48:../../LUFA-111009/LUFA/Drivers/USB/Core/AVR8/Template/Template_Endpoint_Control_R.c **** 		else if (Endpoint_IsSETUPReceived())
 3993               		.loc 5 48 0
 3994 0082 83E0      		ldi r24,lo8(3)
 3995               	.L385:
 3996               	/* epilogue start */
 3997               	.LBE521:
 3998               		.loc 5 76 0
 3999 0084 DF91      		pop r29
 4000 0086 CF91      		pop r28
 4001               	.LVL399:
 4002 0088 1F91      		pop r17
 4003 008a 0F91      		pop r16
 4004               	.LVL400:
 4005 008c 0895      		ret
 4006               		.cfi_endproc
 4007               	.LFE102:
 4009               		.text
 4010               	.Letext0:
 4011               		.file 6 "/usr/lib/avr/include/stdint.h"
 4012               		.file 7 "../../LUFA-111009/LUFA/Drivers/USB/Core/AVR8/../AVR8/../StdRequestType.h"
 4013               		.file 8 "../../LUFA-111009/LUFA/Drivers/USB/Core/AVR8/../AVR8/../Device.h"
 4014               		.file 9 "../../LUFA-111009/LUFA/Drivers/USB/Core/AVR8/../AVR8/../EndpointStream.h"
 4015               		.file 10 "../../LUFA-111009/LUFA/Drivers/USB/Core/AVR8/../USBTask.h"
 4016               		.file 11 "/usr/lib/avr/include/avr/eeprom.h"
DEFINED SYMBOLS
                            *ABS*:0000000000000000 EndpointStream_AVR8.c
     /tmp/ccx1AxJu.s:2      *ABS*:000000000000003e __SP_H__
     /tmp/ccx1AxJu.s:3      *ABS*:000000000000003d __SP_L__
     /tmp/ccx1AxJu.s:4      *ABS*:000000000000003f __SREG__
     /tmp/ccx1AxJu.s:5      *ABS*:0000000000000000 __tmp_reg__
     /tmp/ccx1AxJu.s:6      *ABS*:0000000000000001 __zero_reg__
     /tmp/ccx1AxJu.s:13     .text.Endpoint_Discard_Stream:0000000000000000 Endpoint_Discard_Stream
     /tmp/ccx1AxJu.s:157    .text.Endpoint_Null_Stream:0000000000000000 Endpoint_Null_Stream
     /tmp/ccx1AxJu.s:300    .text.Endpoint_Write_Stream_LE:0000000000000000 Endpoint_Write_Stream_LE
     /tmp/ccx1AxJu.s:468    .text.Endpoint_Write_Stream_BE:0000000000000000 Endpoint_Write_Stream_BE
     /tmp/ccx1AxJu.s:645    .text.Endpoint_Read_Stream_LE:0000000000000000 Endpoint_Read_Stream_LE
     /tmp/ccx1AxJu.s:811    .text.Endpoint_Read_Stream_BE:0000000000000000 Endpoint_Read_Stream_BE
     /tmp/ccx1AxJu.s:986    .text.Endpoint_Write_PStream_LE:0000000000000000 Endpoint_Write_PStream_LE
     /tmp/ccx1AxJu.s:1165   .text.Endpoint_Write_PStream_BE:0000000000000000 Endpoint_Write_PStream_BE
     /tmp/ccx1AxJu.s:1351   .text.Endpoint_Write_EStream_LE:0000000000000000 Endpoint_Write_EStream_LE
     /tmp/ccx1AxJu.s:1522   .text.Endpoint_Write_EStream_BE:0000000000000000 Endpoint_Write_EStream_BE
     /tmp/ccx1AxJu.s:1700   .text.Endpoint_Read_EStream_LE:0000000000000000 Endpoint_Read_EStream_LE
     /tmp/ccx1AxJu.s:1870   .text.Endpoint_Read_EStream_BE:0000000000000000 Endpoint_Read_EStream_BE
     /tmp/ccx1AxJu.s:2047   .text.Endpoint_Write_Control_Stream_LE:0000000000000000 Endpoint_Write_Control_Stream_LE
     /tmp/ccx1AxJu.s:2238   .text.Endpoint_Write_Control_Stream_BE:0000000000000000 Endpoint_Write_Control_Stream_BE
     /tmp/ccx1AxJu.s:2445   .text.Endpoint_Read_Control_Stream_LE:0000000000000000 Endpoint_Read_Control_Stream_LE
     /tmp/ccx1AxJu.s:2591   .text.Endpoint_Read_Control_Stream_BE:0000000000000000 Endpoint_Read_Control_Stream_BE
     /tmp/ccx1AxJu.s:2739   .text.Endpoint_Write_Control_PStream_LE:0000000000000000 Endpoint_Write_Control_PStream_LE
     /tmp/ccx1AxJu.s:2943   .text.Endpoint_Write_Control_PStream_BE:0000000000000000 Endpoint_Write_Control_PStream_BE
     /tmp/ccx1AxJu.s:3158   .text.Endpoint_Write_Control_EStream_LE:0000000000000000 Endpoint_Write_Control_EStream_LE
     /tmp/ccx1AxJu.s:3410   .text.Endpoint_Write_Control_EStream_BE:0000000000000000 Endpoint_Write_Control_EStream_BE
     /tmp/ccx1AxJu.s:3669   .text.Endpoint_Read_Control_EStream_LE:0000000000000000 Endpoint_Read_Control_EStream_LE
     /tmp/ccx1AxJu.s:3842   .text.Endpoint_Read_Control_EStream_BE:0000000000000000 Endpoint_Read_Control_EStream_BE

UNDEFINED SYMBOLS
Endpoint_WaitUntilReady
USB_USBTask
eeprom_read_byte
eeprom_update_byte
USB_ControlRequest
