   1               		.file	"EndpointStream_AVR8.c"
   2               	__SP_H__ = 0x3e
   3               	__SP_L__ = 0x3d
   4               	__SREG__ = 0x3f
   5               	__tmp_reg__ = 0
   6               	__zero_reg__ = 1
   7               		.text
   8               	.Ltext0:
   9               		.cfi_sections	.debug_frame
  10               		.section	.text.Endpoint_Discard_Stream,"ax",@progbits
  11               	.global	Endpoint_Discard_Stream
  13               	Endpoint_Discard_Stream:
  14               	.LVL0:
  15               	.LFB81:
  16               		.file 1 "../../LUFA-111009/LUFA/Drivers/USB/Core/AVR8/EndpointStream_AVR8.c"
   1:../../LUFA-111009/LUFA/Drivers/USB/Core/AVR8/EndpointStream_AVR8.c **** /*
   2:../../LUFA-111009/LUFA/Drivers/USB/Core/AVR8/EndpointStream_AVR8.c ****              LUFA Library
   3:../../LUFA-111009/LUFA/Drivers/USB/Core/AVR8/EndpointStream_AVR8.c ****      Copyright (C) Dean Camera, 2011.
   4:../../LUFA-111009/LUFA/Drivers/USB/Core/AVR8/EndpointStream_AVR8.c ****               
   5:../../LUFA-111009/LUFA/Drivers/USB/Core/AVR8/EndpointStream_AVR8.c ****   dean [at] fourwalledcubicle [dot] com
   6:../../LUFA-111009/LUFA/Drivers/USB/Core/AVR8/EndpointStream_AVR8.c ****            www.lufa-lib.org
   7:../../LUFA-111009/LUFA/Drivers/USB/Core/AVR8/EndpointStream_AVR8.c **** */
   8:../../LUFA-111009/LUFA/Drivers/USB/Core/AVR8/EndpointStream_AVR8.c **** 
   9:../../LUFA-111009/LUFA/Drivers/USB/Core/AVR8/EndpointStream_AVR8.c **** /*
  10:../../LUFA-111009/LUFA/Drivers/USB/Core/AVR8/EndpointStream_AVR8.c ****   Copyright 2011  Dean Camera (dean [at] fourwalledcubicle [dot] com)
  11:../../LUFA-111009/LUFA/Drivers/USB/Core/AVR8/EndpointStream_AVR8.c **** 
  12:../../LUFA-111009/LUFA/Drivers/USB/Core/AVR8/EndpointStream_AVR8.c ****   Permission to use, copy, modify, distribute, and sell this 
  13:../../LUFA-111009/LUFA/Drivers/USB/Core/AVR8/EndpointStream_AVR8.c ****   software and its documentation for any purpose is hereby granted
  14:../../LUFA-111009/LUFA/Drivers/USB/Core/AVR8/EndpointStream_AVR8.c ****   without fee, provided that the above copyright notice appear in 
  15:../../LUFA-111009/LUFA/Drivers/USB/Core/AVR8/EndpointStream_AVR8.c ****   all copies and that both that the copyright notice and this
  16:../../LUFA-111009/LUFA/Drivers/USB/Core/AVR8/EndpointStream_AVR8.c ****   permission notice and warranty disclaimer appear in supporting 
  17:../../LUFA-111009/LUFA/Drivers/USB/Core/AVR8/EndpointStream_AVR8.c ****   documentation, and that the name of the author not be used in 
  18:../../LUFA-111009/LUFA/Drivers/USB/Core/AVR8/EndpointStream_AVR8.c ****   advertising or publicity pertaining to distribution of the 
  19:../../LUFA-111009/LUFA/Drivers/USB/Core/AVR8/EndpointStream_AVR8.c ****   software without specific, written prior permission.
  20:../../LUFA-111009/LUFA/Drivers/USB/Core/AVR8/EndpointStream_AVR8.c **** 
  21:../../LUFA-111009/LUFA/Drivers/USB/Core/AVR8/EndpointStream_AVR8.c ****   The author disclaim all warranties with regard to this
  22:../../LUFA-111009/LUFA/Drivers/USB/Core/AVR8/EndpointStream_AVR8.c ****   software, including all implied warranties of merchantability
  23:../../LUFA-111009/LUFA/Drivers/USB/Core/AVR8/EndpointStream_AVR8.c ****   and fitness.  In no event shall the author be liable for any
  24:../../LUFA-111009/LUFA/Drivers/USB/Core/AVR8/EndpointStream_AVR8.c ****   special, indirect or consequential damages or any damages
  25:../../LUFA-111009/LUFA/Drivers/USB/Core/AVR8/EndpointStream_AVR8.c ****   whatsoever resulting from loss of use, data or profits, whether
  26:../../LUFA-111009/LUFA/Drivers/USB/Core/AVR8/EndpointStream_AVR8.c ****   in an action of contract, negligence or other tortious action,
  27:../../LUFA-111009/LUFA/Drivers/USB/Core/AVR8/EndpointStream_AVR8.c ****   arising out of or in connection with the use or performance of
  28:../../LUFA-111009/LUFA/Drivers/USB/Core/AVR8/EndpointStream_AVR8.c ****   this software.
  29:../../LUFA-111009/LUFA/Drivers/USB/Core/AVR8/EndpointStream_AVR8.c **** */
  30:../../LUFA-111009/LUFA/Drivers/USB/Core/AVR8/EndpointStream_AVR8.c **** 
  31:../../LUFA-111009/LUFA/Drivers/USB/Core/AVR8/EndpointStream_AVR8.c **** #define  __INCLUDE_FROM_USB_DRIVER
  32:../../LUFA-111009/LUFA/Drivers/USB/Core/AVR8/EndpointStream_AVR8.c **** #include "../USBMode.h"
  33:../../LUFA-111009/LUFA/Drivers/USB/Core/AVR8/EndpointStream_AVR8.c **** 
  34:../../LUFA-111009/LUFA/Drivers/USB/Core/AVR8/EndpointStream_AVR8.c **** #if defined(USB_CAN_BE_DEVICE)
  35:../../LUFA-111009/LUFA/Drivers/USB/Core/AVR8/EndpointStream_AVR8.c **** 
  36:../../LUFA-111009/LUFA/Drivers/USB/Core/AVR8/EndpointStream_AVR8.c **** #include "EndpointStream_AVR8.h"
  37:../../LUFA-111009/LUFA/Drivers/USB/Core/AVR8/EndpointStream_AVR8.c **** 
  38:../../LUFA-111009/LUFA/Drivers/USB/Core/AVR8/EndpointStream_AVR8.c **** #if !defined(CONTROL_ONLY_DEVICE)
  39:../../LUFA-111009/LUFA/Drivers/USB/Core/AVR8/EndpointStream_AVR8.c **** uint8_t Endpoint_Discard_Stream(uint16_t Length,
  40:../../LUFA-111009/LUFA/Drivers/USB/Core/AVR8/EndpointStream_AVR8.c ****                                 uint16_t* const BytesProcessed)
  41:../../LUFA-111009/LUFA/Drivers/USB/Core/AVR8/EndpointStream_AVR8.c **** {
  17               		.loc 1 41 1 view -0
  18               		.cfi_startproc
  19               		.loc 1 41 1 is_stmt 0 view .LVU1
  20 0000 CF92      		push r12
  21               	.LCFI0:
  22               		.cfi_def_cfa_offset 3
  23               		.cfi_offset 12, -2
  24 0002 DF92      		push r13
  25               	.LCFI1:
  26               		.cfi_def_cfa_offset 4
  27               		.cfi_offset 13, -3
  28 0004 FF92      		push r15
  29               	.LCFI2:
  30               		.cfi_def_cfa_offset 5
  31               		.cfi_offset 15, -4
  32 0006 0F93      		push r16
  33               	.LCFI3:
  34               		.cfi_def_cfa_offset 6
  35               		.cfi_offset 16, -5
  36 0008 1F93      		push r17
  37               	.LCFI4:
  38               		.cfi_def_cfa_offset 7
  39               		.cfi_offset 17, -6
  40 000a CF93      		push r28
  41               	.LCFI5:
  42               		.cfi_def_cfa_offset 8
  43               		.cfi_offset 28, -7
  44 000c DF93      		push r29
  45               	.LCFI6:
  46               		.cfi_def_cfa_offset 9
  47               		.cfi_offset 29, -8
  48               	/* prologue: function */
  49               	/* frame size = 0 */
  50               	/* stack size = 7 */
  51               	.L__stack_usage = 7
  52 000e EC01      		movw r28,r24
  53 0010 8B01      		movw r16,r22
  42:../../LUFA-111009/LUFA/Drivers/USB/Core/AVR8/EndpointStream_AVR8.c **** 	uint8_t  ErrorCode;
  54               		.loc 1 42 2 is_stmt 1 view .LVU2
  43:../../LUFA-111009/LUFA/Drivers/USB/Core/AVR8/EndpointStream_AVR8.c **** 	uint16_t BytesInTransfer = 0;
  55               		.loc 1 43 2 view .LVU3
  56               	.LVL1:
  44:../../LUFA-111009/LUFA/Drivers/USB/Core/AVR8/EndpointStream_AVR8.c **** 	
  45:../../LUFA-111009/LUFA/Drivers/USB/Core/AVR8/EndpointStream_AVR8.c **** 	if ((ErrorCode = Endpoint_WaitUntilReady()))
  57               		.loc 1 45 2 view .LVU4
  58               		.loc 1 45 19 is_stmt 0 view .LVU5
  59 0012 0E94 0000 		call Endpoint_WaitUntilReady
  60               	.LVL2:
  61               		.loc 1 45 19 view .LVU6
  62 0016 F82E      		mov r15,r24
  63               	.LVL3:
  64               		.loc 1 45 5 view .LVU7
  65 0018 8111      		cpse r24,__zero_reg__
  66 001a 00C0      		rjmp .L1
  46:../../LUFA-111009/LUFA/Drivers/USB/Core/AVR8/EndpointStream_AVR8.c **** 	  return ErrorCode;
  47:../../LUFA-111009/LUFA/Drivers/USB/Core/AVR8/EndpointStream_AVR8.c **** 	  
  48:../../LUFA-111009/LUFA/Drivers/USB/Core/AVR8/EndpointStream_AVR8.c **** 	if (BytesProcessed != NULL)
  67               		.loc 1 48 2 is_stmt 1 view .LVU8
  68               		.loc 1 48 5 is_stmt 0 view .LVU9
  69 001c 0115      		cp r16,__zero_reg__
  70 001e 1105      		cpc r17,__zero_reg__
  71 0020 01F0      		breq .L3
  49:../../LUFA-111009/LUFA/Drivers/USB/Core/AVR8/EndpointStream_AVR8.c **** 	  Length -= *BytesProcessed;
  72               		.loc 1 49 4 is_stmt 1 view .LVU10
  73               		.loc 1 49 11 is_stmt 0 view .LVU11
  74 0022 F801      		movw r30,r16
  75 0024 8081      		ld r24,Z
  76 0026 9181      		ldd r25,Z+1
  77 0028 C81B      		sub r28,r24
  78 002a D90B      		sbc r29,r25
  79               	.LVL4:
  80               	.L3:
  41:../../LUFA-111009/LUFA/Drivers/USB/Core/AVR8/EndpointStream_AVR8.c **** 	uint8_t  ErrorCode;
  81               		.loc 1 41 1 view .LVU12
  82 002c D12C      		mov r13,__zero_reg__
  83 002e C12C      		mov r12,__zero_reg__
  84               	.LVL5:
  85               	.L4:
  50:../../LUFA-111009/LUFA/Drivers/USB/Core/AVR8/EndpointStream_AVR8.c **** 
  51:../../LUFA-111009/LUFA/Drivers/USB/Core/AVR8/EndpointStream_AVR8.c **** 	while (Length)
  86               		.loc 1 51 8 is_stmt 1 view .LVU13
  87 0030 2097      		sbiw r28,0
  88 0032 01F0      		breq .L1
  52:../../LUFA-111009/LUFA/Drivers/USB/Core/AVR8/EndpointStream_AVR8.c **** 	{
  53:../../LUFA-111009/LUFA/Drivers/USB/Core/AVR8/EndpointStream_AVR8.c **** 		if (!(Endpoint_IsReadWriteAllowed()))
  89               		.loc 1 53 3 view .LVU14
  90               	.LBB256:
  91               	.LBI256:
  92               		.file 2 "../../LUFA-111009/LUFA/Drivers/USB/Core/AVR8/../AVR8/../AVR8/Endpoint_AVR8.h"
   1:../../LUFA-111009/LUFA/Drivers/USB/Core/AVR8/../AVR8/../AVR8/Endpoint_AVR8.h **** /*
   2:../../LUFA-111009/LUFA/Drivers/USB/Core/AVR8/../AVR8/../AVR8/Endpoint_AVR8.h ****              LUFA Library
   3:../../LUFA-111009/LUFA/Drivers/USB/Core/AVR8/../AVR8/../AVR8/Endpoint_AVR8.h ****      Copyright (C) Dean Camera, 2011.
   4:../../LUFA-111009/LUFA/Drivers/USB/Core/AVR8/../AVR8/../AVR8/Endpoint_AVR8.h **** 
   5:../../LUFA-111009/LUFA/Drivers/USB/Core/AVR8/../AVR8/../AVR8/Endpoint_AVR8.h ****   dean [at] fourwalledcubicle [dot] com
   6:../../LUFA-111009/LUFA/Drivers/USB/Core/AVR8/../AVR8/../AVR8/Endpoint_AVR8.h ****            www.lufa-lib.org
   7:../../LUFA-111009/LUFA/Drivers/USB/Core/AVR8/../AVR8/../AVR8/Endpoint_AVR8.h **** */
   8:../../LUFA-111009/LUFA/Drivers/USB/Core/AVR8/../AVR8/../AVR8/Endpoint_AVR8.h **** 
   9:../../LUFA-111009/LUFA/Drivers/USB/Core/AVR8/../AVR8/../AVR8/Endpoint_AVR8.h **** /*
  10:../../LUFA-111009/LUFA/Drivers/USB/Core/AVR8/../AVR8/../AVR8/Endpoint_AVR8.h ****   Copyright 2011  Dean Camera (dean [at] fourwalledcubicle [dot] com)
  11:../../LUFA-111009/LUFA/Drivers/USB/Core/AVR8/../AVR8/../AVR8/Endpoint_AVR8.h **** 
  12:../../LUFA-111009/LUFA/Drivers/USB/Core/AVR8/../AVR8/../AVR8/Endpoint_AVR8.h ****   Permission to use, copy, modify, distribute, and sell this
  13:../../LUFA-111009/LUFA/Drivers/USB/Core/AVR8/../AVR8/../AVR8/Endpoint_AVR8.h ****   software and its documentation for any purpose is hereby granted
  14:../../LUFA-111009/LUFA/Drivers/USB/Core/AVR8/../AVR8/../AVR8/Endpoint_AVR8.h ****   without fee, provided that the above copyright notice appear in
  15:../../LUFA-111009/LUFA/Drivers/USB/Core/AVR8/../AVR8/../AVR8/Endpoint_AVR8.h ****   all copies and that both that the copyright notice and this
  16:../../LUFA-111009/LUFA/Drivers/USB/Core/AVR8/../AVR8/../AVR8/Endpoint_AVR8.h ****   permission notice and warranty disclaimer appear in supporting
  17:../../LUFA-111009/LUFA/Drivers/USB/Core/AVR8/../AVR8/../AVR8/Endpoint_AVR8.h ****   documentation, and that the name of the author not be used in
  18:../../LUFA-111009/LUFA/Drivers/USB/Core/AVR8/../AVR8/../AVR8/Endpoint_AVR8.h ****   advertising or publicity pertaining to distribution of the
  19:../../LUFA-111009/LUFA/Drivers/USB/Core/AVR8/../AVR8/../AVR8/Endpoint_AVR8.h ****   software without specific, written prior permission.
  20:../../LUFA-111009/LUFA/Drivers/USB/Core/AVR8/../AVR8/../AVR8/Endpoint_AVR8.h **** 
  21:../../LUFA-111009/LUFA/Drivers/USB/Core/AVR8/../AVR8/../AVR8/Endpoint_AVR8.h ****   The author disclaim all warranties with regard to this
  22:../../LUFA-111009/LUFA/Drivers/USB/Core/AVR8/../AVR8/../AVR8/Endpoint_AVR8.h ****   software, including all implied warranties of merchantability
  23:../../LUFA-111009/LUFA/Drivers/USB/Core/AVR8/../AVR8/../AVR8/Endpoint_AVR8.h ****   and fitness.  In no event shall the author be liable for any
  24:../../LUFA-111009/LUFA/Drivers/USB/Core/AVR8/../AVR8/../AVR8/Endpoint_AVR8.h ****   special, indirect or consequential damages or any damages
  25:../../LUFA-111009/LUFA/Drivers/USB/Core/AVR8/../AVR8/../AVR8/Endpoint_AVR8.h ****   whatsoever resulting from loss of use, data or profits, whether
  26:../../LUFA-111009/LUFA/Drivers/USB/Core/AVR8/../AVR8/../AVR8/Endpoint_AVR8.h ****   in an action of contract, negligence or other tortious action,
  27:../../LUFA-111009/LUFA/Drivers/USB/Core/AVR8/../AVR8/../AVR8/Endpoint_AVR8.h ****   arising out of or in connection with the use or performance of
  28:../../LUFA-111009/LUFA/Drivers/USB/Core/AVR8/../AVR8/../AVR8/Endpoint_AVR8.h ****   this software.
  29:../../LUFA-111009/LUFA/Drivers/USB/Core/AVR8/../AVR8/../AVR8/Endpoint_AVR8.h **** */
  30:../../LUFA-111009/LUFA/Drivers/USB/Core/AVR8/../AVR8/../AVR8/Endpoint_AVR8.h **** 
  31:../../LUFA-111009/LUFA/Drivers/USB/Core/AVR8/../AVR8/../AVR8/Endpoint_AVR8.h **** /** \file
  32:../../LUFA-111009/LUFA/Drivers/USB/Core/AVR8/../AVR8/../AVR8/Endpoint_AVR8.h ****  *  \brief USB Endpoint definitions for the AVR8 microcontrollers.
  33:../../LUFA-111009/LUFA/Drivers/USB/Core/AVR8/../AVR8/../AVR8/Endpoint_AVR8.h ****  *  \copydetails Group_EndpointManagement_AVR8
  34:../../LUFA-111009/LUFA/Drivers/USB/Core/AVR8/../AVR8/../AVR8/Endpoint_AVR8.h ****  *
  35:../../LUFA-111009/LUFA/Drivers/USB/Core/AVR8/../AVR8/../AVR8/Endpoint_AVR8.h ****  *  \note This file should not be included directly. It is automatically included as needed by the 
  36:../../LUFA-111009/LUFA/Drivers/USB/Core/AVR8/../AVR8/../AVR8/Endpoint_AVR8.h ****  *        dispatch header located in LUFA/Drivers/USB/USB.h.
  37:../../LUFA-111009/LUFA/Drivers/USB/Core/AVR8/../AVR8/../AVR8/Endpoint_AVR8.h ****  */
  38:../../LUFA-111009/LUFA/Drivers/USB/Core/AVR8/../AVR8/../AVR8/Endpoint_AVR8.h **** 
  39:../../LUFA-111009/LUFA/Drivers/USB/Core/AVR8/../AVR8/../AVR8/Endpoint_AVR8.h **** /** \ingroup Group_EndpointRW
  40:../../LUFA-111009/LUFA/Drivers/USB/Core/AVR8/../AVR8/../AVR8/Endpoint_AVR8.h ****  *  \defgroup Group_EndpointRW_AVR8 Endpoint Data Reading and Writing (AVR8)
  41:../../LUFA-111009/LUFA/Drivers/USB/Core/AVR8/../AVR8/../AVR8/Endpoint_AVR8.h ****  *  \brief Endpoint data read/write definitions for the Atmel AVR8 architecture.
  42:../../LUFA-111009/LUFA/Drivers/USB/Core/AVR8/../AVR8/../AVR8/Endpoint_AVR8.h ****  *
  43:../../LUFA-111009/LUFA/Drivers/USB/Core/AVR8/../AVR8/../AVR8/Endpoint_AVR8.h ****  *  Functions, macros, variables, enums and types related to data reading and writing from and to e
  44:../../LUFA-111009/LUFA/Drivers/USB/Core/AVR8/../AVR8/../AVR8/Endpoint_AVR8.h ****  */
  45:../../LUFA-111009/LUFA/Drivers/USB/Core/AVR8/../AVR8/../AVR8/Endpoint_AVR8.h **** 
  46:../../LUFA-111009/LUFA/Drivers/USB/Core/AVR8/../AVR8/../AVR8/Endpoint_AVR8.h **** /** \ingroup Group_EndpointPrimitiveRW
  47:../../LUFA-111009/LUFA/Drivers/USB/Core/AVR8/../AVR8/../AVR8/Endpoint_AVR8.h ****  *  \defgroup Group_EndpointPrimitiveRW_AVR8 Read/Write of Primitive Data Types (AVR8)
  48:../../LUFA-111009/LUFA/Drivers/USB/Core/AVR8/../AVR8/../AVR8/Endpoint_AVR8.h ****  *  \brief Endpoint primitive read/write definitions for the Atmel AVR8 architecture.
  49:../../LUFA-111009/LUFA/Drivers/USB/Core/AVR8/../AVR8/../AVR8/Endpoint_AVR8.h ****  *
  50:../../LUFA-111009/LUFA/Drivers/USB/Core/AVR8/../AVR8/../AVR8/Endpoint_AVR8.h ****  *  Functions, macros, variables, enums and types related to data reading and writing of primitive 
  51:../../LUFA-111009/LUFA/Drivers/USB/Core/AVR8/../AVR8/../AVR8/Endpoint_AVR8.h ****  *  from and to endpoints.
  52:../../LUFA-111009/LUFA/Drivers/USB/Core/AVR8/../AVR8/../AVR8/Endpoint_AVR8.h ****  */
  53:../../LUFA-111009/LUFA/Drivers/USB/Core/AVR8/../AVR8/../AVR8/Endpoint_AVR8.h **** 
  54:../../LUFA-111009/LUFA/Drivers/USB/Core/AVR8/../AVR8/../AVR8/Endpoint_AVR8.h **** /** \ingroup Group_EndpointPacketManagement
  55:../../LUFA-111009/LUFA/Drivers/USB/Core/AVR8/../AVR8/../AVR8/Endpoint_AVR8.h ****  *  \defgroup Group_EndpointPacketManagement_AVR8 Endpoint Packet Management (AVR8)
  56:../../LUFA-111009/LUFA/Drivers/USB/Core/AVR8/../AVR8/../AVR8/Endpoint_AVR8.h ****  *  \brief Endpoint packet management definitions for the Atmel AVR8 architecture.
  57:../../LUFA-111009/LUFA/Drivers/USB/Core/AVR8/../AVR8/../AVR8/Endpoint_AVR8.h ****  *
  58:../../LUFA-111009/LUFA/Drivers/USB/Core/AVR8/../AVR8/../AVR8/Endpoint_AVR8.h ****  *  Functions, macros, variables, enums and types related to packet management of endpoints.
  59:../../LUFA-111009/LUFA/Drivers/USB/Core/AVR8/../AVR8/../AVR8/Endpoint_AVR8.h ****  */
  60:../../LUFA-111009/LUFA/Drivers/USB/Core/AVR8/../AVR8/../AVR8/Endpoint_AVR8.h **** 
  61:../../LUFA-111009/LUFA/Drivers/USB/Core/AVR8/../AVR8/../AVR8/Endpoint_AVR8.h **** /** \ingroup Group_EndpointManagement
  62:../../LUFA-111009/LUFA/Drivers/USB/Core/AVR8/../AVR8/../AVR8/Endpoint_AVR8.h ****  *  \defgroup Group_EndpointManagement_AVR8 Endpoint Management (AVR8)
  63:../../LUFA-111009/LUFA/Drivers/USB/Core/AVR8/../AVR8/../AVR8/Endpoint_AVR8.h ****  *  \brief Endpoint management definitions for the Atmel AVR8 architecture.
  64:../../LUFA-111009/LUFA/Drivers/USB/Core/AVR8/../AVR8/../AVR8/Endpoint_AVR8.h ****  *
  65:../../LUFA-111009/LUFA/Drivers/USB/Core/AVR8/../AVR8/../AVR8/Endpoint_AVR8.h ****  *  Functions, macros and enums related to endpoint management when in USB Device mode. This
  66:../../LUFA-111009/LUFA/Drivers/USB/Core/AVR8/../AVR8/../AVR8/Endpoint_AVR8.h ****  *  module contains the endpoint management macros, as well as endpoint interrupt and data
  67:../../LUFA-111009/LUFA/Drivers/USB/Core/AVR8/../AVR8/../AVR8/Endpoint_AVR8.h ****  *  send/receive functions for various data types.
  68:../../LUFA-111009/LUFA/Drivers/USB/Core/AVR8/../AVR8/../AVR8/Endpoint_AVR8.h ****  *
  69:../../LUFA-111009/LUFA/Drivers/USB/Core/AVR8/../AVR8/../AVR8/Endpoint_AVR8.h ****  *  @{
  70:../../LUFA-111009/LUFA/Drivers/USB/Core/AVR8/../AVR8/../AVR8/Endpoint_AVR8.h ****  */
  71:../../LUFA-111009/LUFA/Drivers/USB/Core/AVR8/../AVR8/../AVR8/Endpoint_AVR8.h **** 
  72:../../LUFA-111009/LUFA/Drivers/USB/Core/AVR8/../AVR8/../AVR8/Endpoint_AVR8.h **** #ifndef __ENDPOINT_AVR8_H__
  73:../../LUFA-111009/LUFA/Drivers/USB/Core/AVR8/../AVR8/../AVR8/Endpoint_AVR8.h **** #define __ENDPOINT_AVR8_H__
  74:../../LUFA-111009/LUFA/Drivers/USB/Core/AVR8/../AVR8/../AVR8/Endpoint_AVR8.h **** 
  75:../../LUFA-111009/LUFA/Drivers/USB/Core/AVR8/../AVR8/../AVR8/Endpoint_AVR8.h **** 	/* Includes: */
  76:../../LUFA-111009/LUFA/Drivers/USB/Core/AVR8/../AVR8/../AVR8/Endpoint_AVR8.h **** 		#include "../../../../Common/Common.h"
  77:../../LUFA-111009/LUFA/Drivers/USB/Core/AVR8/../AVR8/../AVR8/Endpoint_AVR8.h **** 		#include "../USBTask.h"
  78:../../LUFA-111009/LUFA/Drivers/USB/Core/AVR8/../AVR8/../AVR8/Endpoint_AVR8.h **** 		#include "../USBInterrupt.h"
  79:../../LUFA-111009/LUFA/Drivers/USB/Core/AVR8/../AVR8/../AVR8/Endpoint_AVR8.h **** 
  80:../../LUFA-111009/LUFA/Drivers/USB/Core/AVR8/../AVR8/../AVR8/Endpoint_AVR8.h **** 	/* Enable C linkage for C++ Compilers: */
  81:../../LUFA-111009/LUFA/Drivers/USB/Core/AVR8/../AVR8/../AVR8/Endpoint_AVR8.h **** 		#if defined(__cplusplus)
  82:../../LUFA-111009/LUFA/Drivers/USB/Core/AVR8/../AVR8/../AVR8/Endpoint_AVR8.h **** 			extern "C" {
  83:../../LUFA-111009/LUFA/Drivers/USB/Core/AVR8/../AVR8/../AVR8/Endpoint_AVR8.h **** 		#endif
  84:../../LUFA-111009/LUFA/Drivers/USB/Core/AVR8/../AVR8/../AVR8/Endpoint_AVR8.h **** 
  85:../../LUFA-111009/LUFA/Drivers/USB/Core/AVR8/../AVR8/../AVR8/Endpoint_AVR8.h **** 	/* Preprocessor Checks: */
  86:../../LUFA-111009/LUFA/Drivers/USB/Core/AVR8/../AVR8/../AVR8/Endpoint_AVR8.h **** 		#if !defined(__INCLUDE_FROM_USB_DRIVER)
  87:../../LUFA-111009/LUFA/Drivers/USB/Core/AVR8/../AVR8/../AVR8/Endpoint_AVR8.h **** 			#error Do not include this file directly. Include LUFA/Drivers/USB/USB.h instead.
  88:../../LUFA-111009/LUFA/Drivers/USB/Core/AVR8/../AVR8/../AVR8/Endpoint_AVR8.h **** 		#endif
  89:../../LUFA-111009/LUFA/Drivers/USB/Core/AVR8/../AVR8/../AVR8/Endpoint_AVR8.h **** 
  90:../../LUFA-111009/LUFA/Drivers/USB/Core/AVR8/../AVR8/../AVR8/Endpoint_AVR8.h **** 	/* Private Interface - For use in library only: */
  91:../../LUFA-111009/LUFA/Drivers/USB/Core/AVR8/../AVR8/../AVR8/Endpoint_AVR8.h **** 	#if !defined(__DOXYGEN__)
  92:../../LUFA-111009/LUFA/Drivers/USB/Core/AVR8/../AVR8/../AVR8/Endpoint_AVR8.h **** 		/* Macros: */
  93:../../LUFA-111009/LUFA/Drivers/USB/Core/AVR8/../AVR8/../AVR8/Endpoint_AVR8.h **** 			#define _ENDPOINT_GET_MAXSIZE(EPIndex)         _ENDPOINT_GET_MAXSIZE2(ENDPOINT_DETAILS_EP ## EPI
  94:../../LUFA-111009/LUFA/Drivers/USB/Core/AVR8/../AVR8/../AVR8/Endpoint_AVR8.h **** 			#define _ENDPOINT_GET_MAXSIZE2(EPDetails)      _ENDPOINT_GET_MAXSIZE3(EPDetails)
  95:../../LUFA-111009/LUFA/Drivers/USB/Core/AVR8/../AVR8/../AVR8/Endpoint_AVR8.h **** 			#define _ENDPOINT_GET_MAXSIZE3(MaxSize, Banks) (MaxSize)
  96:../../LUFA-111009/LUFA/Drivers/USB/Core/AVR8/../AVR8/../AVR8/Endpoint_AVR8.h **** 
  97:../../LUFA-111009/LUFA/Drivers/USB/Core/AVR8/../AVR8/../AVR8/Endpoint_AVR8.h **** 			#define _ENDPOINT_GET_BANKS(EPIndex)           _ENDPOINT_GET_BANKS2(ENDPOINT_DETAILS_EP ## EPInd
  98:../../LUFA-111009/LUFA/Drivers/USB/Core/AVR8/../AVR8/../AVR8/Endpoint_AVR8.h **** 			#define _ENDPOINT_GET_BANKS2(EPDetails)        _ENDPOINT_GET_BANKS3(EPDetails)
  99:../../LUFA-111009/LUFA/Drivers/USB/Core/AVR8/../AVR8/../AVR8/Endpoint_AVR8.h **** 			#define _ENDPOINT_GET_BANKS3(MaxSize, Banks)   (Banks)
 100:../../LUFA-111009/LUFA/Drivers/USB/Core/AVR8/../AVR8/../AVR8/Endpoint_AVR8.h **** 
 101:../../LUFA-111009/LUFA/Drivers/USB/Core/AVR8/../AVR8/../AVR8/Endpoint_AVR8.h **** 			#if defined(USB_SERIES_4_AVR) || defined(USB_SERIES_6_AVR) || defined(USB_SERIES_7_AVR)
 102:../../LUFA-111009/LUFA/Drivers/USB/Core/AVR8/../AVR8/../AVR8/Endpoint_AVR8.h **** 				#define ENDPOINT_DETAILS_MAXEP             7
 103:../../LUFA-111009/LUFA/Drivers/USB/Core/AVR8/../AVR8/../AVR8/Endpoint_AVR8.h **** 
 104:../../LUFA-111009/LUFA/Drivers/USB/Core/AVR8/../AVR8/../AVR8/Endpoint_AVR8.h **** 				#define ENDPOINT_DETAILS_EP0               64,  1
 105:../../LUFA-111009/LUFA/Drivers/USB/Core/AVR8/../AVR8/../AVR8/Endpoint_AVR8.h **** 				#define ENDPOINT_DETAILS_EP1               256, 2
 106:../../LUFA-111009/LUFA/Drivers/USB/Core/AVR8/../AVR8/../AVR8/Endpoint_AVR8.h **** 				#define ENDPOINT_DETAILS_EP2               64,  2
 107:../../LUFA-111009/LUFA/Drivers/USB/Core/AVR8/../AVR8/../AVR8/Endpoint_AVR8.h **** 				#define ENDPOINT_DETAILS_EP3               64,  2
 108:../../LUFA-111009/LUFA/Drivers/USB/Core/AVR8/../AVR8/../AVR8/Endpoint_AVR8.h **** 				#define ENDPOINT_DETAILS_EP4               64,  2
 109:../../LUFA-111009/LUFA/Drivers/USB/Core/AVR8/../AVR8/../AVR8/Endpoint_AVR8.h **** 				#define ENDPOINT_DETAILS_EP5               64,  2
 110:../../LUFA-111009/LUFA/Drivers/USB/Core/AVR8/../AVR8/../AVR8/Endpoint_AVR8.h **** 				#define ENDPOINT_DETAILS_EP6               64,  2
 111:../../LUFA-111009/LUFA/Drivers/USB/Core/AVR8/../AVR8/../AVR8/Endpoint_AVR8.h **** 			#else
 112:../../LUFA-111009/LUFA/Drivers/USB/Core/AVR8/../AVR8/../AVR8/Endpoint_AVR8.h **** 				#define ENDPOINT_DETAILS_MAXEP             5
 113:../../LUFA-111009/LUFA/Drivers/USB/Core/AVR8/../AVR8/../AVR8/Endpoint_AVR8.h **** 
 114:../../LUFA-111009/LUFA/Drivers/USB/Core/AVR8/../AVR8/../AVR8/Endpoint_AVR8.h **** 				#define ENDPOINT_DETAILS_EP0               64,  1
 115:../../LUFA-111009/LUFA/Drivers/USB/Core/AVR8/../AVR8/../AVR8/Endpoint_AVR8.h **** 				#define ENDPOINT_DETAILS_EP1               64,  1
 116:../../LUFA-111009/LUFA/Drivers/USB/Core/AVR8/../AVR8/../AVR8/Endpoint_AVR8.h **** 				#define ENDPOINT_DETAILS_EP2               64,  1
 117:../../LUFA-111009/LUFA/Drivers/USB/Core/AVR8/../AVR8/../AVR8/Endpoint_AVR8.h **** 				#define ENDPOINT_DETAILS_EP3               64,  2
 118:../../LUFA-111009/LUFA/Drivers/USB/Core/AVR8/../AVR8/../AVR8/Endpoint_AVR8.h **** 				#define ENDPOINT_DETAILS_EP4               64,  2
 119:../../LUFA-111009/LUFA/Drivers/USB/Core/AVR8/../AVR8/../AVR8/Endpoint_AVR8.h **** 			#endif
 120:../../LUFA-111009/LUFA/Drivers/USB/Core/AVR8/../AVR8/../AVR8/Endpoint_AVR8.h **** 
 121:../../LUFA-111009/LUFA/Drivers/USB/Core/AVR8/../AVR8/../AVR8/Endpoint_AVR8.h **** 		/* Inline Functions: */
 122:../../LUFA-111009/LUFA/Drivers/USB/Core/AVR8/../AVR8/../AVR8/Endpoint_AVR8.h **** 			static inline uint8_t Endpoint_BytesToEPSizeMask(const uint16_t Bytes) ATTR_WARN_UNUSED_RESULT A
 123:../../LUFA-111009/LUFA/Drivers/USB/Core/AVR8/../AVR8/../AVR8/Endpoint_AVR8.h **** 			                                                                       ATTR_ALWAYS_INLINE;
 124:../../LUFA-111009/LUFA/Drivers/USB/Core/AVR8/../AVR8/../AVR8/Endpoint_AVR8.h **** 			static inline uint8_t Endpoint_BytesToEPSizeMask(const uint16_t Bytes)
 125:../../LUFA-111009/LUFA/Drivers/USB/Core/AVR8/../AVR8/../AVR8/Endpoint_AVR8.h **** 			{
 126:../../LUFA-111009/LUFA/Drivers/USB/Core/AVR8/../AVR8/../AVR8/Endpoint_AVR8.h **** 				uint8_t  MaskVal    = 0;
 127:../../LUFA-111009/LUFA/Drivers/USB/Core/AVR8/../AVR8/../AVR8/Endpoint_AVR8.h **** 				uint16_t CheckBytes = 8;
 128:../../LUFA-111009/LUFA/Drivers/USB/Core/AVR8/../AVR8/../AVR8/Endpoint_AVR8.h **** 
 129:../../LUFA-111009/LUFA/Drivers/USB/Core/AVR8/../AVR8/../AVR8/Endpoint_AVR8.h **** 				while (CheckBytes < Bytes)
 130:../../LUFA-111009/LUFA/Drivers/USB/Core/AVR8/../AVR8/../AVR8/Endpoint_AVR8.h **** 				{
 131:../../LUFA-111009/LUFA/Drivers/USB/Core/AVR8/../AVR8/../AVR8/Endpoint_AVR8.h **** 					MaskVal++;
 132:../../LUFA-111009/LUFA/Drivers/USB/Core/AVR8/../AVR8/../AVR8/Endpoint_AVR8.h **** 					CheckBytes <<= 1;
 133:../../LUFA-111009/LUFA/Drivers/USB/Core/AVR8/../AVR8/../AVR8/Endpoint_AVR8.h **** 				}
 134:../../LUFA-111009/LUFA/Drivers/USB/Core/AVR8/../AVR8/../AVR8/Endpoint_AVR8.h **** 
 135:../../LUFA-111009/LUFA/Drivers/USB/Core/AVR8/../AVR8/../AVR8/Endpoint_AVR8.h **** 				return (MaskVal << EPSIZE0);
 136:../../LUFA-111009/LUFA/Drivers/USB/Core/AVR8/../AVR8/../AVR8/Endpoint_AVR8.h **** 			}
 137:../../LUFA-111009/LUFA/Drivers/USB/Core/AVR8/../AVR8/../AVR8/Endpoint_AVR8.h **** 
 138:../../LUFA-111009/LUFA/Drivers/USB/Core/AVR8/../AVR8/../AVR8/Endpoint_AVR8.h **** 		/* Function Prototypes: */
 139:../../LUFA-111009/LUFA/Drivers/USB/Core/AVR8/../AVR8/../AVR8/Endpoint_AVR8.h **** 			void Endpoint_ClearEndpoints(void);
 140:../../LUFA-111009/LUFA/Drivers/USB/Core/AVR8/../AVR8/../AVR8/Endpoint_AVR8.h **** 			bool Endpoint_ConfigureEndpoint_Prv(const uint8_t Number,
 141:../../LUFA-111009/LUFA/Drivers/USB/Core/AVR8/../AVR8/../AVR8/Endpoint_AVR8.h **** 			                                    const uint8_t UECFG0XData,
 142:../../LUFA-111009/LUFA/Drivers/USB/Core/AVR8/../AVR8/../AVR8/Endpoint_AVR8.h **** 			                                    const uint8_t UECFG1XData);
 143:../../LUFA-111009/LUFA/Drivers/USB/Core/AVR8/../AVR8/../AVR8/Endpoint_AVR8.h **** 
 144:../../LUFA-111009/LUFA/Drivers/USB/Core/AVR8/../AVR8/../AVR8/Endpoint_AVR8.h **** 	#endif
 145:../../LUFA-111009/LUFA/Drivers/USB/Core/AVR8/../AVR8/../AVR8/Endpoint_AVR8.h **** 
 146:../../LUFA-111009/LUFA/Drivers/USB/Core/AVR8/../AVR8/../AVR8/Endpoint_AVR8.h **** 	/* Public Interface - May be used in end-application: */
 147:../../LUFA-111009/LUFA/Drivers/USB/Core/AVR8/../AVR8/../AVR8/Endpoint_AVR8.h **** 		/* Macros: */			
 148:../../LUFA-111009/LUFA/Drivers/USB/Core/AVR8/../AVR8/../AVR8/Endpoint_AVR8.h **** 			/** \name Endpoint Bank Mode Masks */
 149:../../LUFA-111009/LUFA/Drivers/USB/Core/AVR8/../AVR8/../AVR8/Endpoint_AVR8.h **** 			//@{
 150:../../LUFA-111009/LUFA/Drivers/USB/Core/AVR8/../AVR8/../AVR8/Endpoint_AVR8.h **** 			/** Mask for the bank mode selection for the \ref Endpoint_ConfigureEndpoint() macro. This indic
 151:../../LUFA-111009/LUFA/Drivers/USB/Core/AVR8/../AVR8/../AVR8/Endpoint_AVR8.h **** 			 *  that the endpoint should have one single bank, which requires less USB FIFO memory but resul
 152:../../LUFA-111009/LUFA/Drivers/USB/Core/AVR8/../AVR8/../AVR8/Endpoint_AVR8.h **** 			 *  in slower transfers as only one USB device (the AVR or the host) can access the endpoint's
 153:../../LUFA-111009/LUFA/Drivers/USB/Core/AVR8/../AVR8/../AVR8/Endpoint_AVR8.h **** 			 *  bank at the one time.
 154:../../LUFA-111009/LUFA/Drivers/USB/Core/AVR8/../AVR8/../AVR8/Endpoint_AVR8.h **** 			 */
 155:../../LUFA-111009/LUFA/Drivers/USB/Core/AVR8/../AVR8/../AVR8/Endpoint_AVR8.h **** 			#define ENDPOINT_BANK_SINGLE                    (0 << EPBK0)
 156:../../LUFA-111009/LUFA/Drivers/USB/Core/AVR8/../AVR8/../AVR8/Endpoint_AVR8.h **** 
 157:../../LUFA-111009/LUFA/Drivers/USB/Core/AVR8/../AVR8/../AVR8/Endpoint_AVR8.h **** 			/** Mask for the bank mode selection for the \ref Endpoint_ConfigureEndpoint() macro. This indic
 158:../../LUFA-111009/LUFA/Drivers/USB/Core/AVR8/../AVR8/../AVR8/Endpoint_AVR8.h **** 			 *  that the endpoint should have two banks, which requires more USB FIFO memory but results
 159:../../LUFA-111009/LUFA/Drivers/USB/Core/AVR8/../AVR8/../AVR8/Endpoint_AVR8.h **** 			 *  in faster transfers as one USB device (the AVR or the host) can access one bank while the ot
 160:../../LUFA-111009/LUFA/Drivers/USB/Core/AVR8/../AVR8/../AVR8/Endpoint_AVR8.h **** 			 *  accesses the second bank.
 161:../../LUFA-111009/LUFA/Drivers/USB/Core/AVR8/../AVR8/../AVR8/Endpoint_AVR8.h **** 			 */
 162:../../LUFA-111009/LUFA/Drivers/USB/Core/AVR8/../AVR8/../AVR8/Endpoint_AVR8.h **** 			#define ENDPOINT_BANK_DOUBLE                    (1 << EPBK0)
 163:../../LUFA-111009/LUFA/Drivers/USB/Core/AVR8/../AVR8/../AVR8/Endpoint_AVR8.h **** 			//@}
 164:../../LUFA-111009/LUFA/Drivers/USB/Core/AVR8/../AVR8/../AVR8/Endpoint_AVR8.h **** 
 165:../../LUFA-111009/LUFA/Drivers/USB/Core/AVR8/../AVR8/../AVR8/Endpoint_AVR8.h **** 			#if (!defined(FIXED_CONTROL_ENDPOINT_SIZE) || defined(__DOXYGEN__))
 166:../../LUFA-111009/LUFA/Drivers/USB/Core/AVR8/../AVR8/../AVR8/Endpoint_AVR8.h **** 				/** Default size of the default control endpoint's bank, until altered by the control endpoint 
 167:../../LUFA-111009/LUFA/Drivers/USB/Core/AVR8/../AVR8/../AVR8/Endpoint_AVR8.h **** 				 *  value in the device descriptor. Not available if the \c FIXED_CONTROL_ENDPOINT_SIZE token i
 168:../../LUFA-111009/LUFA/Drivers/USB/Core/AVR8/../AVR8/../AVR8/Endpoint_AVR8.h **** 				 */
 169:../../LUFA-111009/LUFA/Drivers/USB/Core/AVR8/../AVR8/../AVR8/Endpoint_AVR8.h **** 				#define ENDPOINT_CONTROLEP_DEFAULT_SIZE     8
 170:../../LUFA-111009/LUFA/Drivers/USB/Core/AVR8/../AVR8/../AVR8/Endpoint_AVR8.h **** 			#endif
 171:../../LUFA-111009/LUFA/Drivers/USB/Core/AVR8/../AVR8/../AVR8/Endpoint_AVR8.h **** 
 172:../../LUFA-111009/LUFA/Drivers/USB/Core/AVR8/../AVR8/../AVR8/Endpoint_AVR8.h **** 			/** Retrieves the maximum bank size in bytes of a given endpoint.
 173:../../LUFA-111009/LUFA/Drivers/USB/Core/AVR8/../AVR8/../AVR8/Endpoint_AVR8.h **** 			 *
 174:../../LUFA-111009/LUFA/Drivers/USB/Core/AVR8/../AVR8/../AVR8/Endpoint_AVR8.h **** 			 *  \note This macro will only work correctly on endpoint indexes that are compile-time constant
 175:../../LUFA-111009/LUFA/Drivers/USB/Core/AVR8/../AVR8/../AVR8/Endpoint_AVR8.h **** 			 *        defined by the preprocessor.
 176:../../LUFA-111009/LUFA/Drivers/USB/Core/AVR8/../AVR8/../AVR8/Endpoint_AVR8.h **** 			 *
 177:../../LUFA-111009/LUFA/Drivers/USB/Core/AVR8/../AVR8/../AVR8/Endpoint_AVR8.h **** 			 *  \param[in] EPIndex  Endpoint number, a value between 0 and (\ref ENDPOINT_TOTAL_ENDPOINTS - 
 178:../../LUFA-111009/LUFA/Drivers/USB/Core/AVR8/../AVR8/../AVR8/Endpoint_AVR8.h **** 			 */
 179:../../LUFA-111009/LUFA/Drivers/USB/Core/AVR8/../AVR8/../AVR8/Endpoint_AVR8.h **** 			#define ENDPOINT_MAX_SIZE(EPIndex)              _ENDPOINT_GET_MAXSIZE(EPIndex)
 180:../../LUFA-111009/LUFA/Drivers/USB/Core/AVR8/../AVR8/../AVR8/Endpoint_AVR8.h **** 
 181:../../LUFA-111009/LUFA/Drivers/USB/Core/AVR8/../AVR8/../AVR8/Endpoint_AVR8.h **** 			/** Retrieves the total number of banks supported by the given endpoint.
 182:../../LUFA-111009/LUFA/Drivers/USB/Core/AVR8/../AVR8/../AVR8/Endpoint_AVR8.h **** 			 *
 183:../../LUFA-111009/LUFA/Drivers/USB/Core/AVR8/../AVR8/../AVR8/Endpoint_AVR8.h **** 			 *  \note This macro will only work correctly on endpoint indexes that are compile-time constant
 184:../../LUFA-111009/LUFA/Drivers/USB/Core/AVR8/../AVR8/../AVR8/Endpoint_AVR8.h **** 			 *        defined by the preprocessor.
 185:../../LUFA-111009/LUFA/Drivers/USB/Core/AVR8/../AVR8/../AVR8/Endpoint_AVR8.h **** 			 *
 186:../../LUFA-111009/LUFA/Drivers/USB/Core/AVR8/../AVR8/../AVR8/Endpoint_AVR8.h **** 			 *  \param[in] EPIndex  Endpoint number, a value between 0 and (\ref ENDPOINT_TOTAL_ENDPOINTS - 
 187:../../LUFA-111009/LUFA/Drivers/USB/Core/AVR8/../AVR8/../AVR8/Endpoint_AVR8.h **** 			 */
 188:../../LUFA-111009/LUFA/Drivers/USB/Core/AVR8/../AVR8/../AVR8/Endpoint_AVR8.h **** 			#define ENDPOINT_BANKS_SUPPORTED(EPIndex)       _ENDPOINT_GET_BANKS(EPIndex)
 189:../../LUFA-111009/LUFA/Drivers/USB/Core/AVR8/../AVR8/../AVR8/Endpoint_AVR8.h **** 
 190:../../LUFA-111009/LUFA/Drivers/USB/Core/AVR8/../AVR8/../AVR8/Endpoint_AVR8.h **** 			#if !defined(CONTROL_ONLY_DEVICE) || defined(__DOXYGEN__)
 191:../../LUFA-111009/LUFA/Drivers/USB/Core/AVR8/../AVR8/../AVR8/Endpoint_AVR8.h **** 				/** Total number of endpoints (including the default control endpoint at address 0) which may
 192:../../LUFA-111009/LUFA/Drivers/USB/Core/AVR8/../AVR8/../AVR8/Endpoint_AVR8.h **** 				 *  be used in the device. Different USB AVR models support different amounts of endpoints,
 193:../../LUFA-111009/LUFA/Drivers/USB/Core/AVR8/../AVR8/../AVR8/Endpoint_AVR8.h **** 				 *  this value reflects the maximum number of endpoints for the currently selected AVR model.
 194:../../LUFA-111009/LUFA/Drivers/USB/Core/AVR8/../AVR8/../AVR8/Endpoint_AVR8.h **** 				 */
 195:../../LUFA-111009/LUFA/Drivers/USB/Core/AVR8/../AVR8/../AVR8/Endpoint_AVR8.h **** 				#define ENDPOINT_TOTAL_ENDPOINTS            ENDPOINT_DETAILS_MAXEP
 196:../../LUFA-111009/LUFA/Drivers/USB/Core/AVR8/../AVR8/../AVR8/Endpoint_AVR8.h **** 			#else
 197:../../LUFA-111009/LUFA/Drivers/USB/Core/AVR8/../AVR8/../AVR8/Endpoint_AVR8.h **** 				#define ENDPOINT_TOTAL_ENDPOINTS            1
 198:../../LUFA-111009/LUFA/Drivers/USB/Core/AVR8/../AVR8/../AVR8/Endpoint_AVR8.h **** 			#endif
 199:../../LUFA-111009/LUFA/Drivers/USB/Core/AVR8/../AVR8/../AVR8/Endpoint_AVR8.h **** 
 200:../../LUFA-111009/LUFA/Drivers/USB/Core/AVR8/../AVR8/../AVR8/Endpoint_AVR8.h **** 		/* Enums: */
 201:../../LUFA-111009/LUFA/Drivers/USB/Core/AVR8/../AVR8/../AVR8/Endpoint_AVR8.h **** 			/** Enum for the possible error return codes of the \ref Endpoint_WaitUntilReady() function.
 202:../../LUFA-111009/LUFA/Drivers/USB/Core/AVR8/../AVR8/../AVR8/Endpoint_AVR8.h **** 			 *
 203:../../LUFA-111009/LUFA/Drivers/USB/Core/AVR8/../AVR8/../AVR8/Endpoint_AVR8.h **** 			 *  \ingroup Group_EndpointRW_AVR8
 204:../../LUFA-111009/LUFA/Drivers/USB/Core/AVR8/../AVR8/../AVR8/Endpoint_AVR8.h **** 			 */
 205:../../LUFA-111009/LUFA/Drivers/USB/Core/AVR8/../AVR8/../AVR8/Endpoint_AVR8.h **** 			enum Endpoint_WaitUntilReady_ErrorCodes_t
 206:../../LUFA-111009/LUFA/Drivers/USB/Core/AVR8/../AVR8/../AVR8/Endpoint_AVR8.h **** 			{
 207:../../LUFA-111009/LUFA/Drivers/USB/Core/AVR8/../AVR8/../AVR8/Endpoint_AVR8.h **** 				ENDPOINT_READYWAIT_NoError                 = 0, /**< Endpoint is ready for next packet, no erro
 208:../../LUFA-111009/LUFA/Drivers/USB/Core/AVR8/../AVR8/../AVR8/Endpoint_AVR8.h **** 				ENDPOINT_READYWAIT_EndpointStalled         = 1, /**< The endpoint was stalled during the stream
 209:../../LUFA-111009/LUFA/Drivers/USB/Core/AVR8/../AVR8/../AVR8/Endpoint_AVR8.h **** 				                                                 *   transfer by the host or device.
 210:../../LUFA-111009/LUFA/Drivers/USB/Core/AVR8/../AVR8/../AVR8/Endpoint_AVR8.h **** 				                                                 */
 211:../../LUFA-111009/LUFA/Drivers/USB/Core/AVR8/../AVR8/../AVR8/Endpoint_AVR8.h **** 				ENDPOINT_READYWAIT_DeviceDisconnected      = 2,	/**< Device was disconnected from the host whil
 212:../../LUFA-111009/LUFA/Drivers/USB/Core/AVR8/../AVR8/../AVR8/Endpoint_AVR8.h **** 				                                                 *   waiting for the endpoint to become ready.
 213:../../LUFA-111009/LUFA/Drivers/USB/Core/AVR8/../AVR8/../AVR8/Endpoint_AVR8.h **** 				                                                 */
 214:../../LUFA-111009/LUFA/Drivers/USB/Core/AVR8/../AVR8/../AVR8/Endpoint_AVR8.h **** 				ENDPOINT_READYWAIT_BusSuspended            = 3, /**< The USB bus has been suspended by the host
 215:../../LUFA-111009/LUFA/Drivers/USB/Core/AVR8/../AVR8/../AVR8/Endpoint_AVR8.h **** 				                                                 *   no USB endpoint traffic can occur until th
 216:../../LUFA-111009/LUFA/Drivers/USB/Core/AVR8/../AVR8/../AVR8/Endpoint_AVR8.h **** 				                                                 *   has resumed.
 217:../../LUFA-111009/LUFA/Drivers/USB/Core/AVR8/../AVR8/../AVR8/Endpoint_AVR8.h **** 				                                                 */
 218:../../LUFA-111009/LUFA/Drivers/USB/Core/AVR8/../AVR8/../AVR8/Endpoint_AVR8.h **** 				ENDPOINT_READYWAIT_Timeout                 = 4, /**< The host failed to accept or send the next
 219:../../LUFA-111009/LUFA/Drivers/USB/Core/AVR8/../AVR8/../AVR8/Endpoint_AVR8.h **** 				                                                 *   within the software timeout period set by 
 220:../../LUFA-111009/LUFA/Drivers/USB/Core/AVR8/../AVR8/../AVR8/Endpoint_AVR8.h **** 				                                                 *   \ref USB_STREAM_TIMEOUT_MS macro.
 221:../../LUFA-111009/LUFA/Drivers/USB/Core/AVR8/../AVR8/../AVR8/Endpoint_AVR8.h **** 				                                                 */
 222:../../LUFA-111009/LUFA/Drivers/USB/Core/AVR8/../AVR8/../AVR8/Endpoint_AVR8.h **** 			};
 223:../../LUFA-111009/LUFA/Drivers/USB/Core/AVR8/../AVR8/../AVR8/Endpoint_AVR8.h **** 
 224:../../LUFA-111009/LUFA/Drivers/USB/Core/AVR8/../AVR8/../AVR8/Endpoint_AVR8.h **** 		/* Inline Functions: */
 225:../../LUFA-111009/LUFA/Drivers/USB/Core/AVR8/../AVR8/../AVR8/Endpoint_AVR8.h **** 			/** Configures the specified endpoint number with the given endpoint type, direction, bank size
 226:../../LUFA-111009/LUFA/Drivers/USB/Core/AVR8/../AVR8/../AVR8/Endpoint_AVR8.h **** 			 *  and banking mode. Once configured, the endpoint may be read from or written to, depending
 227:../../LUFA-111009/LUFA/Drivers/USB/Core/AVR8/../AVR8/../AVR8/Endpoint_AVR8.h **** 			 *  on its direction.
 228:../../LUFA-111009/LUFA/Drivers/USB/Core/AVR8/../AVR8/../AVR8/Endpoint_AVR8.h **** 			 *
 229:../../LUFA-111009/LUFA/Drivers/USB/Core/AVR8/../AVR8/../AVR8/Endpoint_AVR8.h **** 			 *  \param[in] Number     Endpoint number to configure. This must be more than 0 and less than
 230:../../LUFA-111009/LUFA/Drivers/USB/Core/AVR8/../AVR8/../AVR8/Endpoint_AVR8.h **** 			 *                        \ref ENDPOINT_TOTAL_ENDPOINTS.
 231:../../LUFA-111009/LUFA/Drivers/USB/Core/AVR8/../AVR8/../AVR8/Endpoint_AVR8.h **** 			 *
 232:../../LUFA-111009/LUFA/Drivers/USB/Core/AVR8/../AVR8/../AVR8/Endpoint_AVR8.h **** 			 *  \param[in] Type       Type of endpoint to configure, a \c EP_TYPE_* mask. Not all endpoint t
 233:../../LUFA-111009/LUFA/Drivers/USB/Core/AVR8/../AVR8/../AVR8/Endpoint_AVR8.h **** 			 *                        are available on Low Speed USB devices - refer to the USB 2.0 specific
 234:../../LUFA-111009/LUFA/Drivers/USB/Core/AVR8/../AVR8/../AVR8/Endpoint_AVR8.h **** 			 *
 235:../../LUFA-111009/LUFA/Drivers/USB/Core/AVR8/../AVR8/../AVR8/Endpoint_AVR8.h **** 			 *  \param[in] Direction  Endpoint data direction, either \ref ENDPOINT_DIR_OUT or \ref ENDPOINT
 236:../../LUFA-111009/LUFA/Drivers/USB/Core/AVR8/../AVR8/../AVR8/Endpoint_AVR8.h **** 			 *                        All endpoints (except Control type) are unidirectional - data may only
 237:../../LUFA-111009/LUFA/Drivers/USB/Core/AVR8/../AVR8/../AVR8/Endpoint_AVR8.h **** 			 *                        from or written to the endpoint bank based on its direction, not both.
 238:../../LUFA-111009/LUFA/Drivers/USB/Core/AVR8/../AVR8/../AVR8/Endpoint_AVR8.h **** 			 *
 239:../../LUFA-111009/LUFA/Drivers/USB/Core/AVR8/../AVR8/../AVR8/Endpoint_AVR8.h **** 			 *  \param[in] Size       Size of the endpoint's bank, where packets are stored before they are 
 240:../../LUFA-111009/LUFA/Drivers/USB/Core/AVR8/../AVR8/../AVR8/Endpoint_AVR8.h **** 			 *                        to the USB host, or after they have been received from the USB host (d
 241:../../LUFA-111009/LUFA/Drivers/USB/Core/AVR8/../AVR8/../AVR8/Endpoint_AVR8.h **** 			 *                        the endpoint's data direction). The bank size must indicate the maximu
 242:../../LUFA-111009/LUFA/Drivers/USB/Core/AVR8/../AVR8/../AVR8/Endpoint_AVR8.h **** 			 *                        that the endpoint can handle.
 243:../../LUFA-111009/LUFA/Drivers/USB/Core/AVR8/../AVR8/../AVR8/Endpoint_AVR8.h **** 			 *
 244:../../LUFA-111009/LUFA/Drivers/USB/Core/AVR8/../AVR8/../AVR8/Endpoint_AVR8.h **** 			 *  \param[in] Banks      Number of banks to use for the endpoint being configured, an \c ENDPOI
 245:../../LUFA-111009/LUFA/Drivers/USB/Core/AVR8/../AVR8/../AVR8/Endpoint_AVR8.h **** 			 *                        More banks uses more USB DPRAM, but offers better performance. Isochro
 246:../../LUFA-111009/LUFA/Drivers/USB/Core/AVR8/../AVR8/../AVR8/Endpoint_AVR8.h **** 			 *                        endpoints <b>must</b> have at least two banks.
 247:../../LUFA-111009/LUFA/Drivers/USB/Core/AVR8/../AVR8/../AVR8/Endpoint_AVR8.h **** 			 *
 248:../../LUFA-111009/LUFA/Drivers/USB/Core/AVR8/../AVR8/../AVR8/Endpoint_AVR8.h **** 			 *  \note When the \c ORDERED_EP_CONFIG compile time option is used, Endpoints <b>must</b> be co
 249:../../LUFA-111009/LUFA/Drivers/USB/Core/AVR8/../AVR8/../AVR8/Endpoint_AVR8.h **** 			 *        ascending order, or bank corruption will occur.
 250:../../LUFA-111009/LUFA/Drivers/USB/Core/AVR8/../AVR8/../AVR8/Endpoint_AVR8.h **** 			 *        \n\n
 251:../../LUFA-111009/LUFA/Drivers/USB/Core/AVR8/../AVR8/../AVR8/Endpoint_AVR8.h **** 			 *
 252:../../LUFA-111009/LUFA/Drivers/USB/Core/AVR8/../AVR8/../AVR8/Endpoint_AVR8.h **** 			 *  \note Different endpoints may have different maximum packet sizes based on the endpoint's in
 253:../../LUFA-111009/LUFA/Drivers/USB/Core/AVR8/../AVR8/../AVR8/Endpoint_AVR8.h **** 			 *        the chosen microcontroller model's datasheet to determine the maximum bank size for ea
 254:../../LUFA-111009/LUFA/Drivers/USB/Core/AVR8/../AVR8/../AVR8/Endpoint_AVR8.h **** 			 *        \n\n
 255:../../LUFA-111009/LUFA/Drivers/USB/Core/AVR8/../AVR8/../AVR8/Endpoint_AVR8.h **** 			 *
 256:../../LUFA-111009/LUFA/Drivers/USB/Core/AVR8/../AVR8/../AVR8/Endpoint_AVR8.h **** 			 *  \note The default control endpoint should not be manually configured by the user application
 257:../../LUFA-111009/LUFA/Drivers/USB/Core/AVR8/../AVR8/../AVR8/Endpoint_AVR8.h **** 			 *        it is automatically configured by the library internally.
 258:../../LUFA-111009/LUFA/Drivers/USB/Core/AVR8/../AVR8/../AVR8/Endpoint_AVR8.h **** 			 *        \n\n
 259:../../LUFA-111009/LUFA/Drivers/USB/Core/AVR8/../AVR8/../AVR8/Endpoint_AVR8.h **** 			 *
 260:../../LUFA-111009/LUFA/Drivers/USB/Core/AVR8/../AVR8/../AVR8/Endpoint_AVR8.h **** 			 *  \note This routine will automatically select the specified endpoint upon success. Upon failu
 261:../../LUFA-111009/LUFA/Drivers/USB/Core/AVR8/../AVR8/../AVR8/Endpoint_AVR8.h **** 			 *        which failed to reconfigure correctly will be selected.
 262:../../LUFA-111009/LUFA/Drivers/USB/Core/AVR8/../AVR8/../AVR8/Endpoint_AVR8.h **** 			 *
 263:../../LUFA-111009/LUFA/Drivers/USB/Core/AVR8/../AVR8/../AVR8/Endpoint_AVR8.h **** 			 *  \return Boolean \c true if the configuration succeeded, \c false otherwise.
 264:../../LUFA-111009/LUFA/Drivers/USB/Core/AVR8/../AVR8/../AVR8/Endpoint_AVR8.h **** 			 */
 265:../../LUFA-111009/LUFA/Drivers/USB/Core/AVR8/../AVR8/../AVR8/Endpoint_AVR8.h **** 			static inline bool Endpoint_ConfigureEndpoint(const uint8_t Number,
 266:../../LUFA-111009/LUFA/Drivers/USB/Core/AVR8/../AVR8/../AVR8/Endpoint_AVR8.h **** 			                                              const uint8_t Type,
 267:../../LUFA-111009/LUFA/Drivers/USB/Core/AVR8/../AVR8/../AVR8/Endpoint_AVR8.h **** 			                                              const uint8_t Direction,
 268:../../LUFA-111009/LUFA/Drivers/USB/Core/AVR8/../AVR8/../AVR8/Endpoint_AVR8.h **** 			                                              const uint16_t Size,
 269:../../LUFA-111009/LUFA/Drivers/USB/Core/AVR8/../AVR8/../AVR8/Endpoint_AVR8.h **** 			                                              const uint8_t Banks) ATTR_ALWAYS_INLINE;
 270:../../LUFA-111009/LUFA/Drivers/USB/Core/AVR8/../AVR8/../AVR8/Endpoint_AVR8.h **** 			static inline bool Endpoint_ConfigureEndpoint(const uint8_t Number,
 271:../../LUFA-111009/LUFA/Drivers/USB/Core/AVR8/../AVR8/../AVR8/Endpoint_AVR8.h **** 			                                              const uint8_t Type,
 272:../../LUFA-111009/LUFA/Drivers/USB/Core/AVR8/../AVR8/../AVR8/Endpoint_AVR8.h **** 			                                              const uint8_t Direction,
 273:../../LUFA-111009/LUFA/Drivers/USB/Core/AVR8/../AVR8/../AVR8/Endpoint_AVR8.h **** 			                                              const uint16_t Size,
 274:../../LUFA-111009/LUFA/Drivers/USB/Core/AVR8/../AVR8/../AVR8/Endpoint_AVR8.h **** 			                                              const uint8_t Banks)
 275:../../LUFA-111009/LUFA/Drivers/USB/Core/AVR8/../AVR8/../AVR8/Endpoint_AVR8.h **** 			{
 276:../../LUFA-111009/LUFA/Drivers/USB/Core/AVR8/../AVR8/../AVR8/Endpoint_AVR8.h **** 				return Endpoint_ConfigureEndpoint_Prv(Number, ((Type << EPTYPE0) | (Direction ? (1 << EPDIR) : 
 277:../../LUFA-111009/LUFA/Drivers/USB/Core/AVR8/../AVR8/../AVR8/Endpoint_AVR8.h **** 				                                      ((1 << ALLOC) | Banks | Endpoint_BytesToEPSizeMask(Size))
 278:../../LUFA-111009/LUFA/Drivers/USB/Core/AVR8/../AVR8/../AVR8/Endpoint_AVR8.h **** 			}
 279:../../LUFA-111009/LUFA/Drivers/USB/Core/AVR8/../AVR8/../AVR8/Endpoint_AVR8.h **** 
 280:../../LUFA-111009/LUFA/Drivers/USB/Core/AVR8/../AVR8/../AVR8/Endpoint_AVR8.h **** 			/** Indicates the number of bytes currently stored in the current endpoint's selected bank.
 281:../../LUFA-111009/LUFA/Drivers/USB/Core/AVR8/../AVR8/../AVR8/Endpoint_AVR8.h **** 			 *
 282:../../LUFA-111009/LUFA/Drivers/USB/Core/AVR8/../AVR8/../AVR8/Endpoint_AVR8.h **** 			 *  \note The return width of this function may differ, depending on the maximum endpoint bank s
 283:../../LUFA-111009/LUFA/Drivers/USB/Core/AVR8/../AVR8/../AVR8/Endpoint_AVR8.h **** 			 *        of the selected AVR model.
 284:../../LUFA-111009/LUFA/Drivers/USB/Core/AVR8/../AVR8/../AVR8/Endpoint_AVR8.h **** 			 *
 285:../../LUFA-111009/LUFA/Drivers/USB/Core/AVR8/../AVR8/../AVR8/Endpoint_AVR8.h **** 			 *  \ingroup Group_EndpointRW_AVR8
 286:../../LUFA-111009/LUFA/Drivers/USB/Core/AVR8/../AVR8/../AVR8/Endpoint_AVR8.h **** 			 *
 287:../../LUFA-111009/LUFA/Drivers/USB/Core/AVR8/../AVR8/../AVR8/Endpoint_AVR8.h **** 			 *  \return Total number of bytes in the currently selected Endpoint's FIFO buffer.
 288:../../LUFA-111009/LUFA/Drivers/USB/Core/AVR8/../AVR8/../AVR8/Endpoint_AVR8.h **** 			 */
 289:../../LUFA-111009/LUFA/Drivers/USB/Core/AVR8/../AVR8/../AVR8/Endpoint_AVR8.h **** 			static inline uint16_t Endpoint_BytesInEndpoint(void) ATTR_WARN_UNUSED_RESULT ATTR_ALWAYS_INLINE
 290:../../LUFA-111009/LUFA/Drivers/USB/Core/AVR8/../AVR8/../AVR8/Endpoint_AVR8.h **** 			static inline uint16_t Endpoint_BytesInEndpoint(void)
 291:../../LUFA-111009/LUFA/Drivers/USB/Core/AVR8/../AVR8/../AVR8/Endpoint_AVR8.h **** 			{
 292:../../LUFA-111009/LUFA/Drivers/USB/Core/AVR8/../AVR8/../AVR8/Endpoint_AVR8.h **** 				#if defined(USB_SERIES_6_AVR) || defined(USB_SERIES_7_AVR)
 293:../../LUFA-111009/LUFA/Drivers/USB/Core/AVR8/../AVR8/../AVR8/Endpoint_AVR8.h **** 					return UEBCX;
 294:../../LUFA-111009/LUFA/Drivers/USB/Core/AVR8/../AVR8/../AVR8/Endpoint_AVR8.h **** 				#elif defined(USB_SERIES_4_AVR)
 295:../../LUFA-111009/LUFA/Drivers/USB/Core/AVR8/../AVR8/../AVR8/Endpoint_AVR8.h **** 					return (((uint16_t)UEBCHX << 8) | UEBCLX);
 296:../../LUFA-111009/LUFA/Drivers/USB/Core/AVR8/../AVR8/../AVR8/Endpoint_AVR8.h **** 				#elif defined(USB_SERIES_2_AVR)
 297:../../LUFA-111009/LUFA/Drivers/USB/Core/AVR8/../AVR8/../AVR8/Endpoint_AVR8.h **** 					return UEBCLX;
 298:../../LUFA-111009/LUFA/Drivers/USB/Core/AVR8/../AVR8/../AVR8/Endpoint_AVR8.h **** 				#endif
 299:../../LUFA-111009/LUFA/Drivers/USB/Core/AVR8/../AVR8/../AVR8/Endpoint_AVR8.h **** 			}
 300:../../LUFA-111009/LUFA/Drivers/USB/Core/AVR8/../AVR8/../AVR8/Endpoint_AVR8.h **** 
 301:../../LUFA-111009/LUFA/Drivers/USB/Core/AVR8/../AVR8/../AVR8/Endpoint_AVR8.h **** 			/** Get the endpoint address of the currently selected endpoint. This is typically used to save
 302:../../LUFA-111009/LUFA/Drivers/USB/Core/AVR8/../AVR8/../AVR8/Endpoint_AVR8.h **** 			 *  the currently selected endpoint number so that it can be restored after another endpoint has
 303:../../LUFA-111009/LUFA/Drivers/USB/Core/AVR8/../AVR8/../AVR8/Endpoint_AVR8.h **** 			 *  been manipulated.
 304:../../LUFA-111009/LUFA/Drivers/USB/Core/AVR8/../AVR8/../AVR8/Endpoint_AVR8.h **** 			 *
 305:../../LUFA-111009/LUFA/Drivers/USB/Core/AVR8/../AVR8/../AVR8/Endpoint_AVR8.h **** 			 *  \return Index of the currently selected endpoint.
 306:../../LUFA-111009/LUFA/Drivers/USB/Core/AVR8/../AVR8/../AVR8/Endpoint_AVR8.h **** 			 */
 307:../../LUFA-111009/LUFA/Drivers/USB/Core/AVR8/../AVR8/../AVR8/Endpoint_AVR8.h **** 			static inline uint8_t Endpoint_GetCurrentEndpoint(void) ATTR_WARN_UNUSED_RESULT ATTR_ALWAYS_INLI
 308:../../LUFA-111009/LUFA/Drivers/USB/Core/AVR8/../AVR8/../AVR8/Endpoint_AVR8.h **** 			static inline uint8_t Endpoint_GetCurrentEndpoint(void)
 309:../../LUFA-111009/LUFA/Drivers/USB/Core/AVR8/../AVR8/../AVR8/Endpoint_AVR8.h **** 			{
 310:../../LUFA-111009/LUFA/Drivers/USB/Core/AVR8/../AVR8/../AVR8/Endpoint_AVR8.h **** 				#if !defined(CONTROL_ONLY_DEVICE)
 311:../../LUFA-111009/LUFA/Drivers/USB/Core/AVR8/../AVR8/../AVR8/Endpoint_AVR8.h **** 					return (UENUM & ENDPOINT_EPNUM_MASK);
 312:../../LUFA-111009/LUFA/Drivers/USB/Core/AVR8/../AVR8/../AVR8/Endpoint_AVR8.h **** 				#else
 313:../../LUFA-111009/LUFA/Drivers/USB/Core/AVR8/../AVR8/../AVR8/Endpoint_AVR8.h **** 					return ENDPOINT_CONTROLEP;
 314:../../LUFA-111009/LUFA/Drivers/USB/Core/AVR8/../AVR8/../AVR8/Endpoint_AVR8.h **** 				#endif
 315:../../LUFA-111009/LUFA/Drivers/USB/Core/AVR8/../AVR8/../AVR8/Endpoint_AVR8.h **** 			}
 316:../../LUFA-111009/LUFA/Drivers/USB/Core/AVR8/../AVR8/../AVR8/Endpoint_AVR8.h **** 
 317:../../LUFA-111009/LUFA/Drivers/USB/Core/AVR8/../AVR8/../AVR8/Endpoint_AVR8.h **** 			/** Selects the given endpoint number. If the address from the device descriptors is used, the
 318:../../LUFA-111009/LUFA/Drivers/USB/Core/AVR8/../AVR8/../AVR8/Endpoint_AVR8.h **** 			 *  value should be masked with the \ref ENDPOINT_EPNUM_MASK constant to extract only the endpoi
 319:../../LUFA-111009/LUFA/Drivers/USB/Core/AVR8/../AVR8/../AVR8/Endpoint_AVR8.h **** 			 *  number (and discarding the endpoint direction bit).
 320:../../LUFA-111009/LUFA/Drivers/USB/Core/AVR8/../AVR8/../AVR8/Endpoint_AVR8.h **** 			 *
 321:../../LUFA-111009/LUFA/Drivers/USB/Core/AVR8/../AVR8/../AVR8/Endpoint_AVR8.h **** 			 *  Any endpoint operations which do not require the endpoint number to be indicated will operat
 322:../../LUFA-111009/LUFA/Drivers/USB/Core/AVR8/../AVR8/../AVR8/Endpoint_AVR8.h **** 			 *  the currently selected endpoint.
 323:../../LUFA-111009/LUFA/Drivers/USB/Core/AVR8/../AVR8/../AVR8/Endpoint_AVR8.h **** 			 *
 324:../../LUFA-111009/LUFA/Drivers/USB/Core/AVR8/../AVR8/../AVR8/Endpoint_AVR8.h **** 			 *  \param[in] EndpointNumber Endpoint number to select.
 325:../../LUFA-111009/LUFA/Drivers/USB/Core/AVR8/../AVR8/../AVR8/Endpoint_AVR8.h **** 			 */
 326:../../LUFA-111009/LUFA/Drivers/USB/Core/AVR8/../AVR8/../AVR8/Endpoint_AVR8.h **** 			static inline void Endpoint_SelectEndpoint(const uint8_t EndpointNumber) ATTR_ALWAYS_INLINE;
 327:../../LUFA-111009/LUFA/Drivers/USB/Core/AVR8/../AVR8/../AVR8/Endpoint_AVR8.h **** 			static inline void Endpoint_SelectEndpoint(const uint8_t EndpointNumber)
 328:../../LUFA-111009/LUFA/Drivers/USB/Core/AVR8/../AVR8/../AVR8/Endpoint_AVR8.h **** 			{
 329:../../LUFA-111009/LUFA/Drivers/USB/Core/AVR8/../AVR8/../AVR8/Endpoint_AVR8.h **** 				#if !defined(CONTROL_ONLY_DEVICE)
 330:../../LUFA-111009/LUFA/Drivers/USB/Core/AVR8/../AVR8/../AVR8/Endpoint_AVR8.h **** 					UENUM = EndpointNumber;
 331:../../LUFA-111009/LUFA/Drivers/USB/Core/AVR8/../AVR8/../AVR8/Endpoint_AVR8.h **** 				#endif
 332:../../LUFA-111009/LUFA/Drivers/USB/Core/AVR8/../AVR8/../AVR8/Endpoint_AVR8.h **** 			}
 333:../../LUFA-111009/LUFA/Drivers/USB/Core/AVR8/../AVR8/../AVR8/Endpoint_AVR8.h **** 
 334:../../LUFA-111009/LUFA/Drivers/USB/Core/AVR8/../AVR8/../AVR8/Endpoint_AVR8.h **** 			/** Resets the endpoint bank FIFO. This clears all the endpoint banks and resets the USB control
 335:../../LUFA-111009/LUFA/Drivers/USB/Core/AVR8/../AVR8/../AVR8/Endpoint_AVR8.h **** 			 *  data In and Out pointers to the bank's contents.
 336:../../LUFA-111009/LUFA/Drivers/USB/Core/AVR8/../AVR8/../AVR8/Endpoint_AVR8.h **** 			 *
 337:../../LUFA-111009/LUFA/Drivers/USB/Core/AVR8/../AVR8/../AVR8/Endpoint_AVR8.h **** 			 *  \param[in] EndpointNumber Endpoint number whose FIFO buffers are to be reset.
 338:../../LUFA-111009/LUFA/Drivers/USB/Core/AVR8/../AVR8/../AVR8/Endpoint_AVR8.h **** 			 */
 339:../../LUFA-111009/LUFA/Drivers/USB/Core/AVR8/../AVR8/../AVR8/Endpoint_AVR8.h **** 			static inline void Endpoint_ResetEndpoint(const uint8_t EndpointNumber) ATTR_ALWAYS_INLINE;
 340:../../LUFA-111009/LUFA/Drivers/USB/Core/AVR8/../AVR8/../AVR8/Endpoint_AVR8.h **** 			static inline void Endpoint_ResetEndpoint(const uint8_t EndpointNumber)
 341:../../LUFA-111009/LUFA/Drivers/USB/Core/AVR8/../AVR8/../AVR8/Endpoint_AVR8.h **** 			{
 342:../../LUFA-111009/LUFA/Drivers/USB/Core/AVR8/../AVR8/../AVR8/Endpoint_AVR8.h **** 				UERST = (1 << EndpointNumber);
 343:../../LUFA-111009/LUFA/Drivers/USB/Core/AVR8/../AVR8/../AVR8/Endpoint_AVR8.h **** 				UERST = 0;
 344:../../LUFA-111009/LUFA/Drivers/USB/Core/AVR8/../AVR8/../AVR8/Endpoint_AVR8.h **** 			}
 345:../../LUFA-111009/LUFA/Drivers/USB/Core/AVR8/../AVR8/../AVR8/Endpoint_AVR8.h **** 
 346:../../LUFA-111009/LUFA/Drivers/USB/Core/AVR8/../AVR8/../AVR8/Endpoint_AVR8.h **** 			/** Enables the currently selected endpoint so that data can be sent and received through it to
 347:../../LUFA-111009/LUFA/Drivers/USB/Core/AVR8/../AVR8/../AVR8/Endpoint_AVR8.h **** 			 *  and from a host.
 348:../../LUFA-111009/LUFA/Drivers/USB/Core/AVR8/../AVR8/../AVR8/Endpoint_AVR8.h **** 			 *
 349:../../LUFA-111009/LUFA/Drivers/USB/Core/AVR8/../AVR8/../AVR8/Endpoint_AVR8.h **** 			 *  \note Endpoints must first be configured properly via \ref Endpoint_ConfigureEndpoint().
 350:../../LUFA-111009/LUFA/Drivers/USB/Core/AVR8/../AVR8/../AVR8/Endpoint_AVR8.h **** 			 */
 351:../../LUFA-111009/LUFA/Drivers/USB/Core/AVR8/../AVR8/../AVR8/Endpoint_AVR8.h **** 			static inline void Endpoint_EnableEndpoint(void) ATTR_ALWAYS_INLINE;
 352:../../LUFA-111009/LUFA/Drivers/USB/Core/AVR8/../AVR8/../AVR8/Endpoint_AVR8.h **** 			static inline void Endpoint_EnableEndpoint(void)
 353:../../LUFA-111009/LUFA/Drivers/USB/Core/AVR8/../AVR8/../AVR8/Endpoint_AVR8.h **** 			{
 354:../../LUFA-111009/LUFA/Drivers/USB/Core/AVR8/../AVR8/../AVR8/Endpoint_AVR8.h **** 				UECONX |= (1 << EPEN);
 355:../../LUFA-111009/LUFA/Drivers/USB/Core/AVR8/../AVR8/../AVR8/Endpoint_AVR8.h **** 			}
 356:../../LUFA-111009/LUFA/Drivers/USB/Core/AVR8/../AVR8/../AVR8/Endpoint_AVR8.h **** 
 357:../../LUFA-111009/LUFA/Drivers/USB/Core/AVR8/../AVR8/../AVR8/Endpoint_AVR8.h **** 			/** Disables the currently selected endpoint so that data cannot be sent and received through it
 358:../../LUFA-111009/LUFA/Drivers/USB/Core/AVR8/../AVR8/../AVR8/Endpoint_AVR8.h **** 			 *  to and from a host.
 359:../../LUFA-111009/LUFA/Drivers/USB/Core/AVR8/../AVR8/../AVR8/Endpoint_AVR8.h **** 			 */
 360:../../LUFA-111009/LUFA/Drivers/USB/Core/AVR8/../AVR8/../AVR8/Endpoint_AVR8.h **** 			static inline void Endpoint_DisableEndpoint(void) ATTR_ALWAYS_INLINE;
 361:../../LUFA-111009/LUFA/Drivers/USB/Core/AVR8/../AVR8/../AVR8/Endpoint_AVR8.h **** 			static inline void Endpoint_DisableEndpoint(void)
 362:../../LUFA-111009/LUFA/Drivers/USB/Core/AVR8/../AVR8/../AVR8/Endpoint_AVR8.h **** 			{
 363:../../LUFA-111009/LUFA/Drivers/USB/Core/AVR8/../AVR8/../AVR8/Endpoint_AVR8.h **** 				UECONX &= ~(1 << EPEN);
 364:../../LUFA-111009/LUFA/Drivers/USB/Core/AVR8/../AVR8/../AVR8/Endpoint_AVR8.h **** 			}
 365:../../LUFA-111009/LUFA/Drivers/USB/Core/AVR8/../AVR8/../AVR8/Endpoint_AVR8.h **** 
 366:../../LUFA-111009/LUFA/Drivers/USB/Core/AVR8/../AVR8/../AVR8/Endpoint_AVR8.h **** 			/** Determines if the currently selected endpoint is enabled, but not necessarily configured.
 367:../../LUFA-111009/LUFA/Drivers/USB/Core/AVR8/../AVR8/../AVR8/Endpoint_AVR8.h **** 			 *
 368:../../LUFA-111009/LUFA/Drivers/USB/Core/AVR8/../AVR8/../AVR8/Endpoint_AVR8.h **** 			 * \return Boolean \c true if the currently selected endpoint is enabled, \c false otherwise.
 369:../../LUFA-111009/LUFA/Drivers/USB/Core/AVR8/../AVR8/../AVR8/Endpoint_AVR8.h **** 			 */
 370:../../LUFA-111009/LUFA/Drivers/USB/Core/AVR8/../AVR8/../AVR8/Endpoint_AVR8.h **** 			static inline bool Endpoint_IsEnabled(void) ATTR_WARN_UNUSED_RESULT ATTR_ALWAYS_INLINE;
 371:../../LUFA-111009/LUFA/Drivers/USB/Core/AVR8/../AVR8/../AVR8/Endpoint_AVR8.h **** 			static inline bool Endpoint_IsEnabled(void)
 372:../../LUFA-111009/LUFA/Drivers/USB/Core/AVR8/../AVR8/../AVR8/Endpoint_AVR8.h **** 			{
 373:../../LUFA-111009/LUFA/Drivers/USB/Core/AVR8/../AVR8/../AVR8/Endpoint_AVR8.h **** 				return ((UECONX & (1 << EPEN)) ? true : false);
 374:../../LUFA-111009/LUFA/Drivers/USB/Core/AVR8/../AVR8/../AVR8/Endpoint_AVR8.h **** 			}
 375:../../LUFA-111009/LUFA/Drivers/USB/Core/AVR8/../AVR8/../AVR8/Endpoint_AVR8.h **** 
 376:../../LUFA-111009/LUFA/Drivers/USB/Core/AVR8/../AVR8/../AVR8/Endpoint_AVR8.h **** 			/** Retrieves the number of busy banks in the currently selected endpoint, which have been queue
 377:../../LUFA-111009/LUFA/Drivers/USB/Core/AVR8/../AVR8/../AVR8/Endpoint_AVR8.h **** 			 *  transmission via the \ref Endpoint_ClearIN() command, or are awaiting acknowledgement via th
 378:../../LUFA-111009/LUFA/Drivers/USB/Core/AVR8/../AVR8/../AVR8/Endpoint_AVR8.h **** 			 *  \ref Endpoint_ClearOUT() command.
 379:../../LUFA-111009/LUFA/Drivers/USB/Core/AVR8/../AVR8/../AVR8/Endpoint_AVR8.h **** 			 *
 380:../../LUFA-111009/LUFA/Drivers/USB/Core/AVR8/../AVR8/../AVR8/Endpoint_AVR8.h **** 			 *  \ingroup Group_EndpointPacketManagement_AVR8
 381:../../LUFA-111009/LUFA/Drivers/USB/Core/AVR8/../AVR8/../AVR8/Endpoint_AVR8.h **** 			 *
 382:../../LUFA-111009/LUFA/Drivers/USB/Core/AVR8/../AVR8/../AVR8/Endpoint_AVR8.h **** 			 *  \return Total number of busy banks in the selected endpoint.
 383:../../LUFA-111009/LUFA/Drivers/USB/Core/AVR8/../AVR8/../AVR8/Endpoint_AVR8.h **** 			 */
 384:../../LUFA-111009/LUFA/Drivers/USB/Core/AVR8/../AVR8/../AVR8/Endpoint_AVR8.h **** 			static inline uint8_t Endpoint_GetBusyBanks(void) ATTR_ALWAYS_INLINE ATTR_WARN_UNUSED_RESULT;
 385:../../LUFA-111009/LUFA/Drivers/USB/Core/AVR8/../AVR8/../AVR8/Endpoint_AVR8.h **** 			static inline uint8_t Endpoint_GetBusyBanks(void)
 386:../../LUFA-111009/LUFA/Drivers/USB/Core/AVR8/../AVR8/../AVR8/Endpoint_AVR8.h **** 			{
 387:../../LUFA-111009/LUFA/Drivers/USB/Core/AVR8/../AVR8/../AVR8/Endpoint_AVR8.h **** 				return (UESTA0X & (0x03 << NBUSYBK0));
 388:../../LUFA-111009/LUFA/Drivers/USB/Core/AVR8/../AVR8/../AVR8/Endpoint_AVR8.h **** 			}
 389:../../LUFA-111009/LUFA/Drivers/USB/Core/AVR8/../AVR8/../AVR8/Endpoint_AVR8.h **** 
 390:../../LUFA-111009/LUFA/Drivers/USB/Core/AVR8/../AVR8/../AVR8/Endpoint_AVR8.h **** 			/** Aborts all pending IN transactions on the currently selected endpoint, once the bank
 391:../../LUFA-111009/LUFA/Drivers/USB/Core/AVR8/../AVR8/../AVR8/Endpoint_AVR8.h **** 			 *  has been queued for transmission to the host via \ref Endpoint_ClearIN(). This function
 392:../../LUFA-111009/LUFA/Drivers/USB/Core/AVR8/../AVR8/../AVR8/Endpoint_AVR8.h **** 			 *  will terminate all queued transactions, resetting the endpoint banks ready for a new
 393:../../LUFA-111009/LUFA/Drivers/USB/Core/AVR8/../AVR8/../AVR8/Endpoint_AVR8.h **** 			 *  packet.
 394:../../LUFA-111009/LUFA/Drivers/USB/Core/AVR8/../AVR8/../AVR8/Endpoint_AVR8.h **** 			 *
 395:../../LUFA-111009/LUFA/Drivers/USB/Core/AVR8/../AVR8/../AVR8/Endpoint_AVR8.h **** 			 *  \ingroup Group_EndpointPacketManagement_AVR8
 396:../../LUFA-111009/LUFA/Drivers/USB/Core/AVR8/../AVR8/../AVR8/Endpoint_AVR8.h **** 			 */
 397:../../LUFA-111009/LUFA/Drivers/USB/Core/AVR8/../AVR8/../AVR8/Endpoint_AVR8.h **** 			static inline void Endpoint_AbortPendingIN(void)
 398:../../LUFA-111009/LUFA/Drivers/USB/Core/AVR8/../AVR8/../AVR8/Endpoint_AVR8.h **** 			{
 399:../../LUFA-111009/LUFA/Drivers/USB/Core/AVR8/../AVR8/../AVR8/Endpoint_AVR8.h **** 				while (Endpoint_GetBusyBanks() != 0)
 400:../../LUFA-111009/LUFA/Drivers/USB/Core/AVR8/../AVR8/../AVR8/Endpoint_AVR8.h **** 				{
 401:../../LUFA-111009/LUFA/Drivers/USB/Core/AVR8/../AVR8/../AVR8/Endpoint_AVR8.h **** 					UEINTX |= (1 << RXOUTI);
 402:../../LUFA-111009/LUFA/Drivers/USB/Core/AVR8/../AVR8/../AVR8/Endpoint_AVR8.h **** 					while (UEINTX & (1 << RXOUTI));
 403:../../LUFA-111009/LUFA/Drivers/USB/Core/AVR8/../AVR8/../AVR8/Endpoint_AVR8.h **** 				}
 404:../../LUFA-111009/LUFA/Drivers/USB/Core/AVR8/../AVR8/../AVR8/Endpoint_AVR8.h **** 			}
 405:../../LUFA-111009/LUFA/Drivers/USB/Core/AVR8/../AVR8/../AVR8/Endpoint_AVR8.h **** 
 406:../../LUFA-111009/LUFA/Drivers/USB/Core/AVR8/../AVR8/../AVR8/Endpoint_AVR8.h **** 			/** Determines if the currently selected endpoint may be read from (if data is waiting in the en
 407:../../LUFA-111009/LUFA/Drivers/USB/Core/AVR8/../AVR8/../AVR8/Endpoint_AVR8.h **** 			 *  bank and the endpoint is an OUT direction, or if the bank is not yet full if the endpoint is
 408:../../LUFA-111009/LUFA/Drivers/USB/Core/AVR8/../AVR8/../AVR8/Endpoint_AVR8.h **** 			 *  direction). This function will return false if an error has occurred in the endpoint, if the
 409:../../LUFA-111009/LUFA/Drivers/USB/Core/AVR8/../AVR8/../AVR8/Endpoint_AVR8.h **** 			 *  is an OUT direction and no packet (or an empty packet) has been received, or if the endpoint
 410:../../LUFA-111009/LUFA/Drivers/USB/Core/AVR8/../AVR8/../AVR8/Endpoint_AVR8.h **** 			 *  direction and the endpoint bank is full.
 411:../../LUFA-111009/LUFA/Drivers/USB/Core/AVR8/../AVR8/../AVR8/Endpoint_AVR8.h **** 			 *
 412:../../LUFA-111009/LUFA/Drivers/USB/Core/AVR8/../AVR8/../AVR8/Endpoint_AVR8.h **** 			 *  \ingroup Group_EndpointPacketManagement_AVR8
 413:../../LUFA-111009/LUFA/Drivers/USB/Core/AVR8/../AVR8/../AVR8/Endpoint_AVR8.h **** 			 *
 414:../../LUFA-111009/LUFA/Drivers/USB/Core/AVR8/../AVR8/../AVR8/Endpoint_AVR8.h **** 			 *  \return Boolean \c true if the currently selected endpoint may be read from or written to, d
 415:../../LUFA-111009/LUFA/Drivers/USB/Core/AVR8/../AVR8/../AVR8/Endpoint_AVR8.h **** 			 *          on its direction.
 416:../../LUFA-111009/LUFA/Drivers/USB/Core/AVR8/../AVR8/../AVR8/Endpoint_AVR8.h **** 			 */
 417:../../LUFA-111009/LUFA/Drivers/USB/Core/AVR8/../AVR8/../AVR8/Endpoint_AVR8.h **** 			static inline bool Endpoint_IsReadWriteAllowed(void) ATTR_WARN_UNUSED_RESULT ATTR_ALWAYS_INLINE;
 418:../../LUFA-111009/LUFA/Drivers/USB/Core/AVR8/../AVR8/../AVR8/Endpoint_AVR8.h **** 			static inline bool Endpoint_IsReadWriteAllowed(void)
  93               		.loc 2 418 23 view .LVU15
  94               	.LBB257:
 419:../../LUFA-111009/LUFA/Drivers/USB/Core/AVR8/../AVR8/../AVR8/Endpoint_AVR8.h **** 			{
 420:../../LUFA-111009/LUFA/Drivers/USB/Core/AVR8/../AVR8/../AVR8/Endpoint_AVR8.h **** 				return ((UEINTX & (1 << RWAL)) ? true : false);
  95               		.loc 2 420 5 view .LVU16
  96               		.loc 2 420 14 is_stmt 0 view .LVU17
  97 0034 8091 E800 		lds r24,232
  98               	.LBE257:
  99               	.LBE256:
 100               		.loc 1 53 6 view .LVU18
 101 0038 85FD      		sbrc r24,5
 102 003a 00C0      		rjmp .L5
  54:../../LUFA-111009/LUFA/Drivers/USB/Core/AVR8/EndpointStream_AVR8.c **** 		{
  55:../../LUFA-111009/LUFA/Drivers/USB/Core/AVR8/EndpointStream_AVR8.c **** 			Endpoint_ClearOUT();
 103               		.loc 1 55 4 is_stmt 1 view .LVU19
 104               	.LBB258:
 105               	.LBI258:
 421:../../LUFA-111009/LUFA/Drivers/USB/Core/AVR8/../AVR8/../AVR8/Endpoint_AVR8.h **** 			}
 422:../../LUFA-111009/LUFA/Drivers/USB/Core/AVR8/../AVR8/../AVR8/Endpoint_AVR8.h **** 
 423:../../LUFA-111009/LUFA/Drivers/USB/Core/AVR8/../AVR8/../AVR8/Endpoint_AVR8.h **** 			/** Determines if the currently selected endpoint is configured.
 424:../../LUFA-111009/LUFA/Drivers/USB/Core/AVR8/../AVR8/../AVR8/Endpoint_AVR8.h **** 			 *
 425:../../LUFA-111009/LUFA/Drivers/USB/Core/AVR8/../AVR8/../AVR8/Endpoint_AVR8.h **** 			 *  \return Boolean \c true if the currently selected endpoint has been configured, \c false oth
 426:../../LUFA-111009/LUFA/Drivers/USB/Core/AVR8/../AVR8/../AVR8/Endpoint_AVR8.h **** 			 */
 427:../../LUFA-111009/LUFA/Drivers/USB/Core/AVR8/../AVR8/../AVR8/Endpoint_AVR8.h **** 			static inline bool Endpoint_IsConfigured(void) ATTR_WARN_UNUSED_RESULT ATTR_ALWAYS_INLINE;
 428:../../LUFA-111009/LUFA/Drivers/USB/Core/AVR8/../AVR8/../AVR8/Endpoint_AVR8.h **** 			static inline bool Endpoint_IsConfigured(void)
 429:../../LUFA-111009/LUFA/Drivers/USB/Core/AVR8/../AVR8/../AVR8/Endpoint_AVR8.h **** 			{
 430:../../LUFA-111009/LUFA/Drivers/USB/Core/AVR8/../AVR8/../AVR8/Endpoint_AVR8.h **** 				return ((UESTA0X & (1 << CFGOK)) ? true : false);
 431:../../LUFA-111009/LUFA/Drivers/USB/Core/AVR8/../AVR8/../AVR8/Endpoint_AVR8.h **** 			}
 432:../../LUFA-111009/LUFA/Drivers/USB/Core/AVR8/../AVR8/../AVR8/Endpoint_AVR8.h **** 
 433:../../LUFA-111009/LUFA/Drivers/USB/Core/AVR8/../AVR8/../AVR8/Endpoint_AVR8.h **** 			/** Returns a mask indicating which INTERRUPT type endpoints have interrupted - i.e. their
 434:../../LUFA-111009/LUFA/Drivers/USB/Core/AVR8/../AVR8/../AVR8/Endpoint_AVR8.h **** 			 *  interrupt duration has elapsed. Which endpoints have interrupted can be determined by
 435:../../LUFA-111009/LUFA/Drivers/USB/Core/AVR8/../AVR8/../AVR8/Endpoint_AVR8.h **** 			 *  masking the return value against <tt>(1 << <i>{Endpoint Number}</i>)</tt>.
 436:../../LUFA-111009/LUFA/Drivers/USB/Core/AVR8/../AVR8/../AVR8/Endpoint_AVR8.h **** 			 *
 437:../../LUFA-111009/LUFA/Drivers/USB/Core/AVR8/../AVR8/../AVR8/Endpoint_AVR8.h **** 			 *  \return Mask whose bits indicate which endpoints have interrupted.
 438:../../LUFA-111009/LUFA/Drivers/USB/Core/AVR8/../AVR8/../AVR8/Endpoint_AVR8.h **** 			 */
 439:../../LUFA-111009/LUFA/Drivers/USB/Core/AVR8/../AVR8/../AVR8/Endpoint_AVR8.h **** 			static inline uint8_t Endpoint_GetEndpointInterrupts(void) ATTR_WARN_UNUSED_RESULT ATTR_ALWAYS_I
 440:../../LUFA-111009/LUFA/Drivers/USB/Core/AVR8/../AVR8/../AVR8/Endpoint_AVR8.h **** 			static inline uint8_t Endpoint_GetEndpointInterrupts(void)
 441:../../LUFA-111009/LUFA/Drivers/USB/Core/AVR8/../AVR8/../AVR8/Endpoint_AVR8.h **** 			{
 442:../../LUFA-111009/LUFA/Drivers/USB/Core/AVR8/../AVR8/../AVR8/Endpoint_AVR8.h **** 				return UEINT;
 443:../../LUFA-111009/LUFA/Drivers/USB/Core/AVR8/../AVR8/../AVR8/Endpoint_AVR8.h **** 			}
 444:../../LUFA-111009/LUFA/Drivers/USB/Core/AVR8/../AVR8/../AVR8/Endpoint_AVR8.h **** 
 445:../../LUFA-111009/LUFA/Drivers/USB/Core/AVR8/../AVR8/../AVR8/Endpoint_AVR8.h **** 			/** Determines if the specified endpoint number has interrupted (valid only for INTERRUPT type
 446:../../LUFA-111009/LUFA/Drivers/USB/Core/AVR8/../AVR8/../AVR8/Endpoint_AVR8.h **** 			 *  endpoints).
 447:../../LUFA-111009/LUFA/Drivers/USB/Core/AVR8/../AVR8/../AVR8/Endpoint_AVR8.h **** 			 *
 448:../../LUFA-111009/LUFA/Drivers/USB/Core/AVR8/../AVR8/../AVR8/Endpoint_AVR8.h **** 			 *  \param[in] EndpointNumber  Index of the endpoint whose interrupt flag should be tested.
 449:../../LUFA-111009/LUFA/Drivers/USB/Core/AVR8/../AVR8/../AVR8/Endpoint_AVR8.h **** 			 *
 450:../../LUFA-111009/LUFA/Drivers/USB/Core/AVR8/../AVR8/../AVR8/Endpoint_AVR8.h **** 			 *  \return Boolean \c true if the specified endpoint has interrupted, \c false otherwise.
 451:../../LUFA-111009/LUFA/Drivers/USB/Core/AVR8/../AVR8/../AVR8/Endpoint_AVR8.h **** 			 */
 452:../../LUFA-111009/LUFA/Drivers/USB/Core/AVR8/../AVR8/../AVR8/Endpoint_AVR8.h **** 			static inline bool Endpoint_HasEndpointInterrupted(const uint8_t EndpointNumber) ATTR_WARN_UNUSE
 453:../../LUFA-111009/LUFA/Drivers/USB/Core/AVR8/../AVR8/../AVR8/Endpoint_AVR8.h **** 			static inline bool Endpoint_HasEndpointInterrupted(const uint8_t EndpointNumber)
 454:../../LUFA-111009/LUFA/Drivers/USB/Core/AVR8/../AVR8/../AVR8/Endpoint_AVR8.h **** 			{
 455:../../LUFA-111009/LUFA/Drivers/USB/Core/AVR8/../AVR8/../AVR8/Endpoint_AVR8.h **** 				return ((Endpoint_GetEndpointInterrupts() & (1 << EndpointNumber)) ? true : false);
 456:../../LUFA-111009/LUFA/Drivers/USB/Core/AVR8/../AVR8/../AVR8/Endpoint_AVR8.h **** 			}
 457:../../LUFA-111009/LUFA/Drivers/USB/Core/AVR8/../AVR8/../AVR8/Endpoint_AVR8.h **** 
 458:../../LUFA-111009/LUFA/Drivers/USB/Core/AVR8/../AVR8/../AVR8/Endpoint_AVR8.h **** 			/** Determines if the selected IN endpoint is ready for a new packet to be sent to the host.
 459:../../LUFA-111009/LUFA/Drivers/USB/Core/AVR8/../AVR8/../AVR8/Endpoint_AVR8.h **** 			 *
 460:../../LUFA-111009/LUFA/Drivers/USB/Core/AVR8/../AVR8/../AVR8/Endpoint_AVR8.h **** 			 *  \ingroup Group_EndpointPacketManagement_AVR8
 461:../../LUFA-111009/LUFA/Drivers/USB/Core/AVR8/../AVR8/../AVR8/Endpoint_AVR8.h **** 			 *
 462:../../LUFA-111009/LUFA/Drivers/USB/Core/AVR8/../AVR8/../AVR8/Endpoint_AVR8.h **** 			 *  \return Boolean \c true if the current endpoint is ready for an IN packet, \c false otherwis
 463:../../LUFA-111009/LUFA/Drivers/USB/Core/AVR8/../AVR8/../AVR8/Endpoint_AVR8.h **** 			 */
 464:../../LUFA-111009/LUFA/Drivers/USB/Core/AVR8/../AVR8/../AVR8/Endpoint_AVR8.h **** 			static inline bool Endpoint_IsINReady(void) ATTR_WARN_UNUSED_RESULT ATTR_ALWAYS_INLINE;
 465:../../LUFA-111009/LUFA/Drivers/USB/Core/AVR8/../AVR8/../AVR8/Endpoint_AVR8.h **** 			static inline bool Endpoint_IsINReady(void)
 466:../../LUFA-111009/LUFA/Drivers/USB/Core/AVR8/../AVR8/../AVR8/Endpoint_AVR8.h **** 			{
 467:../../LUFA-111009/LUFA/Drivers/USB/Core/AVR8/../AVR8/../AVR8/Endpoint_AVR8.h **** 				return ((UEINTX & (1 << TXINI)) ? true : false);
 468:../../LUFA-111009/LUFA/Drivers/USB/Core/AVR8/../AVR8/../AVR8/Endpoint_AVR8.h **** 			}
 469:../../LUFA-111009/LUFA/Drivers/USB/Core/AVR8/../AVR8/../AVR8/Endpoint_AVR8.h **** 
 470:../../LUFA-111009/LUFA/Drivers/USB/Core/AVR8/../AVR8/../AVR8/Endpoint_AVR8.h **** 			/** Determines if the selected OUT endpoint has received new packet from the host.
 471:../../LUFA-111009/LUFA/Drivers/USB/Core/AVR8/../AVR8/../AVR8/Endpoint_AVR8.h **** 			 *
 472:../../LUFA-111009/LUFA/Drivers/USB/Core/AVR8/../AVR8/../AVR8/Endpoint_AVR8.h **** 			 *  \ingroup Group_EndpointPacketManagement_AVR8
 473:../../LUFA-111009/LUFA/Drivers/USB/Core/AVR8/../AVR8/../AVR8/Endpoint_AVR8.h **** 			 *
 474:../../LUFA-111009/LUFA/Drivers/USB/Core/AVR8/../AVR8/../AVR8/Endpoint_AVR8.h **** 			 *  \return Boolean \c true if current endpoint is has received an OUT packet, \c false otherwis
 475:../../LUFA-111009/LUFA/Drivers/USB/Core/AVR8/../AVR8/../AVR8/Endpoint_AVR8.h **** 			 */
 476:../../LUFA-111009/LUFA/Drivers/USB/Core/AVR8/../AVR8/../AVR8/Endpoint_AVR8.h **** 			static inline bool Endpoint_IsOUTReceived(void) ATTR_WARN_UNUSED_RESULT ATTR_ALWAYS_INLINE;
 477:../../LUFA-111009/LUFA/Drivers/USB/Core/AVR8/../AVR8/../AVR8/Endpoint_AVR8.h **** 			static inline bool Endpoint_IsOUTReceived(void)
 478:../../LUFA-111009/LUFA/Drivers/USB/Core/AVR8/../AVR8/../AVR8/Endpoint_AVR8.h **** 			{
 479:../../LUFA-111009/LUFA/Drivers/USB/Core/AVR8/../AVR8/../AVR8/Endpoint_AVR8.h **** 				return ((UEINTX & (1 << RXOUTI)) ? true : false);
 480:../../LUFA-111009/LUFA/Drivers/USB/Core/AVR8/../AVR8/../AVR8/Endpoint_AVR8.h **** 			}
 481:../../LUFA-111009/LUFA/Drivers/USB/Core/AVR8/../AVR8/../AVR8/Endpoint_AVR8.h **** 
 482:../../LUFA-111009/LUFA/Drivers/USB/Core/AVR8/../AVR8/../AVR8/Endpoint_AVR8.h **** 			/** Determines if the current CONTROL type endpoint has received a SETUP packet.
 483:../../LUFA-111009/LUFA/Drivers/USB/Core/AVR8/../AVR8/../AVR8/Endpoint_AVR8.h **** 			 *
 484:../../LUFA-111009/LUFA/Drivers/USB/Core/AVR8/../AVR8/../AVR8/Endpoint_AVR8.h **** 			 *  \ingroup Group_EndpointPacketManagement_AVR8
 485:../../LUFA-111009/LUFA/Drivers/USB/Core/AVR8/../AVR8/../AVR8/Endpoint_AVR8.h **** 			 *
 486:../../LUFA-111009/LUFA/Drivers/USB/Core/AVR8/../AVR8/../AVR8/Endpoint_AVR8.h **** 			 *  \return Boolean \c true if the selected endpoint has received a SETUP packet, \c false other
 487:../../LUFA-111009/LUFA/Drivers/USB/Core/AVR8/../AVR8/../AVR8/Endpoint_AVR8.h **** 			 */
 488:../../LUFA-111009/LUFA/Drivers/USB/Core/AVR8/../AVR8/../AVR8/Endpoint_AVR8.h **** 			static inline bool Endpoint_IsSETUPReceived(void) ATTR_WARN_UNUSED_RESULT ATTR_ALWAYS_INLINE;
 489:../../LUFA-111009/LUFA/Drivers/USB/Core/AVR8/../AVR8/../AVR8/Endpoint_AVR8.h **** 			static inline bool Endpoint_IsSETUPReceived(void)
 490:../../LUFA-111009/LUFA/Drivers/USB/Core/AVR8/../AVR8/../AVR8/Endpoint_AVR8.h **** 			{
 491:../../LUFA-111009/LUFA/Drivers/USB/Core/AVR8/../AVR8/../AVR8/Endpoint_AVR8.h **** 				return ((UEINTX & (1 << RXSTPI)) ? true : false);
 492:../../LUFA-111009/LUFA/Drivers/USB/Core/AVR8/../AVR8/../AVR8/Endpoint_AVR8.h **** 			}
 493:../../LUFA-111009/LUFA/Drivers/USB/Core/AVR8/../AVR8/../AVR8/Endpoint_AVR8.h **** 
 494:../../LUFA-111009/LUFA/Drivers/USB/Core/AVR8/../AVR8/../AVR8/Endpoint_AVR8.h **** 			/** Clears a received SETUP packet on the currently selected CONTROL type endpoint, freeing up t
 495:../../LUFA-111009/LUFA/Drivers/USB/Core/AVR8/../AVR8/../AVR8/Endpoint_AVR8.h **** 			 *  endpoint for the next packet.
 496:../../LUFA-111009/LUFA/Drivers/USB/Core/AVR8/../AVR8/../AVR8/Endpoint_AVR8.h **** 			 *
 497:../../LUFA-111009/LUFA/Drivers/USB/Core/AVR8/../AVR8/../AVR8/Endpoint_AVR8.h **** 			 *  \ingroup Group_EndpointPacketManagement_AVR8
 498:../../LUFA-111009/LUFA/Drivers/USB/Core/AVR8/../AVR8/../AVR8/Endpoint_AVR8.h **** 			 *
 499:../../LUFA-111009/LUFA/Drivers/USB/Core/AVR8/../AVR8/../AVR8/Endpoint_AVR8.h **** 			 *  \note This is not applicable for non CONTROL type endpoints.
 500:../../LUFA-111009/LUFA/Drivers/USB/Core/AVR8/../AVR8/../AVR8/Endpoint_AVR8.h **** 			 */
 501:../../LUFA-111009/LUFA/Drivers/USB/Core/AVR8/../AVR8/../AVR8/Endpoint_AVR8.h **** 			static inline void Endpoint_ClearSETUP(void) ATTR_ALWAYS_INLINE;
 502:../../LUFA-111009/LUFA/Drivers/USB/Core/AVR8/../AVR8/../AVR8/Endpoint_AVR8.h **** 			static inline void Endpoint_ClearSETUP(void)
 503:../../LUFA-111009/LUFA/Drivers/USB/Core/AVR8/../AVR8/../AVR8/Endpoint_AVR8.h **** 			{
 504:../../LUFA-111009/LUFA/Drivers/USB/Core/AVR8/../AVR8/../AVR8/Endpoint_AVR8.h **** 				UEINTX &= ~(1 << RXSTPI);
 505:../../LUFA-111009/LUFA/Drivers/USB/Core/AVR8/../AVR8/../AVR8/Endpoint_AVR8.h **** 			}
 506:../../LUFA-111009/LUFA/Drivers/USB/Core/AVR8/../AVR8/../AVR8/Endpoint_AVR8.h **** 
 507:../../LUFA-111009/LUFA/Drivers/USB/Core/AVR8/../AVR8/../AVR8/Endpoint_AVR8.h **** 			/** Sends an IN packet to the host on the currently selected endpoint, freeing up the endpoint f
 508:../../LUFA-111009/LUFA/Drivers/USB/Core/AVR8/../AVR8/../AVR8/Endpoint_AVR8.h **** 			 *  next packet and switching to the alternative endpoint bank if double banked.
 509:../../LUFA-111009/LUFA/Drivers/USB/Core/AVR8/../AVR8/../AVR8/Endpoint_AVR8.h **** 			 *
 510:../../LUFA-111009/LUFA/Drivers/USB/Core/AVR8/../AVR8/../AVR8/Endpoint_AVR8.h **** 			 *  \ingroup Group_EndpointPacketManagement_AVR8
 511:../../LUFA-111009/LUFA/Drivers/USB/Core/AVR8/../AVR8/../AVR8/Endpoint_AVR8.h **** 			 */
 512:../../LUFA-111009/LUFA/Drivers/USB/Core/AVR8/../AVR8/../AVR8/Endpoint_AVR8.h **** 			static inline void Endpoint_ClearIN(void) ATTR_ALWAYS_INLINE;
 513:../../LUFA-111009/LUFA/Drivers/USB/Core/AVR8/../AVR8/../AVR8/Endpoint_AVR8.h **** 			static inline void Endpoint_ClearIN(void)
 514:../../LUFA-111009/LUFA/Drivers/USB/Core/AVR8/../AVR8/../AVR8/Endpoint_AVR8.h **** 			{
 515:../../LUFA-111009/LUFA/Drivers/USB/Core/AVR8/../AVR8/../AVR8/Endpoint_AVR8.h **** 				#if !defined(CONTROL_ONLY_DEVICE)
 516:../../LUFA-111009/LUFA/Drivers/USB/Core/AVR8/../AVR8/../AVR8/Endpoint_AVR8.h **** 					UEINTX &= ~((1 << TXINI) | (1 << FIFOCON));
 517:../../LUFA-111009/LUFA/Drivers/USB/Core/AVR8/../AVR8/../AVR8/Endpoint_AVR8.h **** 				#else
 518:../../LUFA-111009/LUFA/Drivers/USB/Core/AVR8/../AVR8/../AVR8/Endpoint_AVR8.h **** 					UEINTX &= ~(1 << TXINI);
 519:../../LUFA-111009/LUFA/Drivers/USB/Core/AVR8/../AVR8/../AVR8/Endpoint_AVR8.h **** 				#endif
 520:../../LUFA-111009/LUFA/Drivers/USB/Core/AVR8/../AVR8/../AVR8/Endpoint_AVR8.h **** 			}
 521:../../LUFA-111009/LUFA/Drivers/USB/Core/AVR8/../AVR8/../AVR8/Endpoint_AVR8.h **** 
 522:../../LUFA-111009/LUFA/Drivers/USB/Core/AVR8/../AVR8/../AVR8/Endpoint_AVR8.h **** 			/** Acknowledges an OUT packet to the host on the currently selected endpoint, freeing up the en
 523:../../LUFA-111009/LUFA/Drivers/USB/Core/AVR8/../AVR8/../AVR8/Endpoint_AVR8.h **** 			 *  for the next packet and switching to the alternative endpoint bank if double banked.
 524:../../LUFA-111009/LUFA/Drivers/USB/Core/AVR8/../AVR8/../AVR8/Endpoint_AVR8.h **** 			 *
 525:../../LUFA-111009/LUFA/Drivers/USB/Core/AVR8/../AVR8/../AVR8/Endpoint_AVR8.h **** 			 *  \ingroup Group_EndpointPacketManagement_AVR8
 526:../../LUFA-111009/LUFA/Drivers/USB/Core/AVR8/../AVR8/../AVR8/Endpoint_AVR8.h **** 			 */
 527:../../LUFA-111009/LUFA/Drivers/USB/Core/AVR8/../AVR8/../AVR8/Endpoint_AVR8.h **** 			static inline void Endpoint_ClearOUT(void) ATTR_ALWAYS_INLINE;
 528:../../LUFA-111009/LUFA/Drivers/USB/Core/AVR8/../AVR8/../AVR8/Endpoint_AVR8.h **** 			static inline void Endpoint_ClearOUT(void)
 106               		.loc 2 528 23 view .LVU20
 107               	.LBB259:
 529:../../LUFA-111009/LUFA/Drivers/USB/Core/AVR8/../AVR8/../AVR8/Endpoint_AVR8.h **** 			{
 530:../../LUFA-111009/LUFA/Drivers/USB/Core/AVR8/../AVR8/../AVR8/Endpoint_AVR8.h **** 				#if !defined(CONTROL_ONLY_DEVICE)
 531:../../LUFA-111009/LUFA/Drivers/USB/Core/AVR8/../AVR8/../AVR8/Endpoint_AVR8.h **** 					UEINTX &= ~((1 << RXOUTI) | (1 << FIFOCON));
 108               		.loc 2 531 6 view .LVU21
 109               		.loc 2 531 13 is_stmt 0 view .LVU22
 110 003c 8091 E800 		lds r24,232
 111 0040 8B77      		andi r24,lo8(123)
 112 0042 8093 E800 		sts 232,r24
 113               	.LBE259:
 114               	.LBE258:
  56:../../LUFA-111009/LUFA/Drivers/USB/Core/AVR8/EndpointStream_AVR8.c **** 
  57:../../LUFA-111009/LUFA/Drivers/USB/Core/AVR8/EndpointStream_AVR8.c **** 			if (BytesProcessed != NULL)
 115               		.loc 1 57 4 is_stmt 1 view .LVU23
 116               		.loc 1 57 7 is_stmt 0 view .LVU24
 117 0046 0115      		cp r16,__zero_reg__
 118 0048 1105      		cpc r17,__zero_reg__
 119 004a 01F0      		breq .L6
  58:../../LUFA-111009/LUFA/Drivers/USB/Core/AVR8/EndpointStream_AVR8.c **** 			{
  59:../../LUFA-111009/LUFA/Drivers/USB/Core/AVR8/EndpointStream_AVR8.c **** 				*BytesProcessed += BytesInTransfer;
 120               		.loc 1 59 5 is_stmt 1 view .LVU25
 121               		.loc 1 59 21 is_stmt 0 view .LVU26
 122 004c F801      		movw r30,r16
 123 004e 8081      		ld r24,Z
 124 0050 9181      		ldd r25,Z+1
 125 0052 C80E      		add r12,r24
 126 0054 D91E      		adc r13,r25
 127               	.LVL6:
 128               		.loc 1 59 21 view .LVU27
 129 0056 D182      		std Z+1,r13
 130 0058 C082      		st Z,r12
  60:../../LUFA-111009/LUFA/Drivers/USB/Core/AVR8/EndpointStream_AVR8.c **** 				return ENDPOINT_RWSTREAM_IncompleteTransfer;
 131               		.loc 1 60 5 is_stmt 1 view .LVU28
 132               		.loc 1 60 12 is_stmt 0 view .LVU29
 133 005a 85E0      		ldi r24,lo8(5)
 134 005c F82E      		mov r15,r24
 135               	.L1:
  61:../../LUFA-111009/LUFA/Drivers/USB/Core/AVR8/EndpointStream_AVR8.c **** 			}
  62:../../LUFA-111009/LUFA/Drivers/USB/Core/AVR8/EndpointStream_AVR8.c **** 
  63:../../LUFA-111009/LUFA/Drivers/USB/Core/AVR8/EndpointStream_AVR8.c **** 			if ((ErrorCode = Endpoint_WaitUntilReady()))
  64:../../LUFA-111009/LUFA/Drivers/USB/Core/AVR8/EndpointStream_AVR8.c **** 			  return ErrorCode;
  65:../../LUFA-111009/LUFA/Drivers/USB/Core/AVR8/EndpointStream_AVR8.c **** 		}
  66:../../LUFA-111009/LUFA/Drivers/USB/Core/AVR8/EndpointStream_AVR8.c **** 		else
  67:../../LUFA-111009/LUFA/Drivers/USB/Core/AVR8/EndpointStream_AVR8.c **** 		{
  68:../../LUFA-111009/LUFA/Drivers/USB/Core/AVR8/EndpointStream_AVR8.c **** 			Endpoint_Discard_8();
  69:../../LUFA-111009/LUFA/Drivers/USB/Core/AVR8/EndpointStream_AVR8.c **** 
  70:../../LUFA-111009/LUFA/Drivers/USB/Core/AVR8/EndpointStream_AVR8.c **** 			Length--;
  71:../../LUFA-111009/LUFA/Drivers/USB/Core/AVR8/EndpointStream_AVR8.c **** 			BytesInTransfer++;
  72:../../LUFA-111009/LUFA/Drivers/USB/Core/AVR8/EndpointStream_AVR8.c **** 		}
  73:../../LUFA-111009/LUFA/Drivers/USB/Core/AVR8/EndpointStream_AVR8.c **** 	}
  74:../../LUFA-111009/LUFA/Drivers/USB/Core/AVR8/EndpointStream_AVR8.c **** 	
  75:../../LUFA-111009/LUFA/Drivers/USB/Core/AVR8/EndpointStream_AVR8.c **** 	return ENDPOINT_RWSTREAM_NoError;
  76:../../LUFA-111009/LUFA/Drivers/USB/Core/AVR8/EndpointStream_AVR8.c **** }
 136               		.loc 1 76 1 view .LVU30
 137 005e 8F2D      		mov r24,r15
 138               	/* epilogue start */
 139 0060 DF91      		pop r29
 140 0062 CF91      		pop r28
 141               	.LVL7:
 142               		.loc 1 76 1 view .LVU31
 143 0064 1F91      		pop r17
 144 0066 0F91      		pop r16
 145               	.LVL8:
 146               		.loc 1 76 1 view .LVU32
 147 0068 FF90      		pop r15
 148 006a DF90      		pop r13
 149 006c CF90      		pop r12
 150 006e 0895      		ret
 151               	.LVL9:
 152               	.L6:
  63:../../LUFA-111009/LUFA/Drivers/USB/Core/AVR8/EndpointStream_AVR8.c **** 			  return ErrorCode;
 153               		.loc 1 63 4 is_stmt 1 view .LVU33
  63:../../LUFA-111009/LUFA/Drivers/USB/Core/AVR8/EndpointStream_AVR8.c **** 			  return ErrorCode;
 154               		.loc 1 63 21 is_stmt 0 view .LVU34
 155 0070 0E94 0000 		call Endpoint_WaitUntilReady
 156               	.LVL10:
  63:../../LUFA-111009/LUFA/Drivers/USB/Core/AVR8/EndpointStream_AVR8.c **** 			  return ErrorCode;
 157               		.loc 1 63 7 view .LVU35
 158 0074 8823      		tst r24
 159 0076 01F0      		breq .L4
  63:../../LUFA-111009/LUFA/Drivers/USB/Core/AVR8/EndpointStream_AVR8.c **** 			  return ErrorCode;
 160               		.loc 1 63 21 view .LVU36
 161 0078 F82E      		mov r15,r24
 162 007a 00C0      		rjmp .L1
 163               	.LVL11:
 164               	.L5:
  68:../../LUFA-111009/LUFA/Drivers/USB/Core/AVR8/EndpointStream_AVR8.c **** 
 165               		.loc 1 68 4 is_stmt 1 view .LVU37
 166               	.LBB260:
 167               	.LBI260:
 532:../../LUFA-111009/LUFA/Drivers/USB/Core/AVR8/../AVR8/../AVR8/Endpoint_AVR8.h **** 				#else
 533:../../LUFA-111009/LUFA/Drivers/USB/Core/AVR8/../AVR8/../AVR8/Endpoint_AVR8.h **** 					UEINTX &= ~(1 << RXOUTI);
 534:../../LUFA-111009/LUFA/Drivers/USB/Core/AVR8/../AVR8/../AVR8/Endpoint_AVR8.h **** 				#endif
 535:../../LUFA-111009/LUFA/Drivers/USB/Core/AVR8/../AVR8/../AVR8/Endpoint_AVR8.h **** 			}
 536:../../LUFA-111009/LUFA/Drivers/USB/Core/AVR8/../AVR8/../AVR8/Endpoint_AVR8.h **** 
 537:../../LUFA-111009/LUFA/Drivers/USB/Core/AVR8/../AVR8/../AVR8/Endpoint_AVR8.h **** 			/** Stalls the current endpoint, indicating to the host that a logical problem occurred with the
 538:../../LUFA-111009/LUFA/Drivers/USB/Core/AVR8/../AVR8/../AVR8/Endpoint_AVR8.h **** 			 *  indicated endpoint and that the current transfer sequence should be aborted. This provides a
 539:../../LUFA-111009/LUFA/Drivers/USB/Core/AVR8/../AVR8/../AVR8/Endpoint_AVR8.h **** 			 *  way for devices to indicate invalid commands to the host so that the current transfer can be
 540:../../LUFA-111009/LUFA/Drivers/USB/Core/AVR8/../AVR8/../AVR8/Endpoint_AVR8.h **** 			 *  aborted and the host can begin its own recovery sequence.
 541:../../LUFA-111009/LUFA/Drivers/USB/Core/AVR8/../AVR8/../AVR8/Endpoint_AVR8.h **** 			 *
 542:../../LUFA-111009/LUFA/Drivers/USB/Core/AVR8/../AVR8/../AVR8/Endpoint_AVR8.h **** 			 *  The currently selected endpoint remains stalled until either the \ref Endpoint_ClearStall() 
 543:../../LUFA-111009/LUFA/Drivers/USB/Core/AVR8/../AVR8/../AVR8/Endpoint_AVR8.h **** 			 *  is called, or the host issues a CLEAR FEATURE request to the device for the currently select
 544:../../LUFA-111009/LUFA/Drivers/USB/Core/AVR8/../AVR8/../AVR8/Endpoint_AVR8.h **** 			 *  endpoint.
 545:../../LUFA-111009/LUFA/Drivers/USB/Core/AVR8/../AVR8/../AVR8/Endpoint_AVR8.h **** 			 *
 546:../../LUFA-111009/LUFA/Drivers/USB/Core/AVR8/../AVR8/../AVR8/Endpoint_AVR8.h **** 			 *  \ingroup Group_EndpointPacketManagement_AVR8
 547:../../LUFA-111009/LUFA/Drivers/USB/Core/AVR8/../AVR8/../AVR8/Endpoint_AVR8.h **** 			 */
 548:../../LUFA-111009/LUFA/Drivers/USB/Core/AVR8/../AVR8/../AVR8/Endpoint_AVR8.h **** 			static inline void Endpoint_StallTransaction(void) ATTR_ALWAYS_INLINE;
 549:../../LUFA-111009/LUFA/Drivers/USB/Core/AVR8/../AVR8/../AVR8/Endpoint_AVR8.h **** 			static inline void Endpoint_StallTransaction(void)
 550:../../LUFA-111009/LUFA/Drivers/USB/Core/AVR8/../AVR8/../AVR8/Endpoint_AVR8.h **** 			{
 551:../../LUFA-111009/LUFA/Drivers/USB/Core/AVR8/../AVR8/../AVR8/Endpoint_AVR8.h **** 				UECONX |= (1 << STALLRQ);
 552:../../LUFA-111009/LUFA/Drivers/USB/Core/AVR8/../AVR8/../AVR8/Endpoint_AVR8.h **** 			}
 553:../../LUFA-111009/LUFA/Drivers/USB/Core/AVR8/../AVR8/../AVR8/Endpoint_AVR8.h **** 
 554:../../LUFA-111009/LUFA/Drivers/USB/Core/AVR8/../AVR8/../AVR8/Endpoint_AVR8.h **** 			/** Clears the STALL condition on the currently selected endpoint.
 555:../../LUFA-111009/LUFA/Drivers/USB/Core/AVR8/../AVR8/../AVR8/Endpoint_AVR8.h **** 			 *
 556:../../LUFA-111009/LUFA/Drivers/USB/Core/AVR8/../AVR8/../AVR8/Endpoint_AVR8.h **** 			 *  \ingroup Group_EndpointPacketManagement_AVR8
 557:../../LUFA-111009/LUFA/Drivers/USB/Core/AVR8/../AVR8/../AVR8/Endpoint_AVR8.h **** 			 */
 558:../../LUFA-111009/LUFA/Drivers/USB/Core/AVR8/../AVR8/../AVR8/Endpoint_AVR8.h **** 			static inline void Endpoint_ClearStall(void) ATTR_ALWAYS_INLINE;
 559:../../LUFA-111009/LUFA/Drivers/USB/Core/AVR8/../AVR8/../AVR8/Endpoint_AVR8.h **** 			static inline void Endpoint_ClearStall(void)
 560:../../LUFA-111009/LUFA/Drivers/USB/Core/AVR8/../AVR8/../AVR8/Endpoint_AVR8.h **** 			{
 561:../../LUFA-111009/LUFA/Drivers/USB/Core/AVR8/../AVR8/../AVR8/Endpoint_AVR8.h **** 				UECONX |= (1 << STALLRQC);
 562:../../LUFA-111009/LUFA/Drivers/USB/Core/AVR8/../AVR8/../AVR8/Endpoint_AVR8.h **** 			}
 563:../../LUFA-111009/LUFA/Drivers/USB/Core/AVR8/../AVR8/../AVR8/Endpoint_AVR8.h **** 
 564:../../LUFA-111009/LUFA/Drivers/USB/Core/AVR8/../AVR8/../AVR8/Endpoint_AVR8.h **** 			/** Determines if the currently selected endpoint is stalled, false otherwise.
 565:../../LUFA-111009/LUFA/Drivers/USB/Core/AVR8/../AVR8/../AVR8/Endpoint_AVR8.h **** 			 *
 566:../../LUFA-111009/LUFA/Drivers/USB/Core/AVR8/../AVR8/../AVR8/Endpoint_AVR8.h **** 			 *  \ingroup Group_EndpointPacketManagement_AVR8
 567:../../LUFA-111009/LUFA/Drivers/USB/Core/AVR8/../AVR8/../AVR8/Endpoint_AVR8.h **** 			 *
 568:../../LUFA-111009/LUFA/Drivers/USB/Core/AVR8/../AVR8/../AVR8/Endpoint_AVR8.h **** 			 *  \return Boolean \c true if the currently selected endpoint is stalled, \c false otherwise.
 569:../../LUFA-111009/LUFA/Drivers/USB/Core/AVR8/../AVR8/../AVR8/Endpoint_AVR8.h **** 			 */
 570:../../LUFA-111009/LUFA/Drivers/USB/Core/AVR8/../AVR8/../AVR8/Endpoint_AVR8.h **** 			static inline bool Endpoint_IsStalled(void) ATTR_WARN_UNUSED_RESULT ATTR_ALWAYS_INLINE;
 571:../../LUFA-111009/LUFA/Drivers/USB/Core/AVR8/../AVR8/../AVR8/Endpoint_AVR8.h **** 			static inline bool Endpoint_IsStalled(void)
 572:../../LUFA-111009/LUFA/Drivers/USB/Core/AVR8/../AVR8/../AVR8/Endpoint_AVR8.h **** 			{
 573:../../LUFA-111009/LUFA/Drivers/USB/Core/AVR8/../AVR8/../AVR8/Endpoint_AVR8.h **** 				return ((UECONX & (1 << STALLRQ)) ? true : false);
 574:../../LUFA-111009/LUFA/Drivers/USB/Core/AVR8/../AVR8/../AVR8/Endpoint_AVR8.h **** 			}
 575:../../LUFA-111009/LUFA/Drivers/USB/Core/AVR8/../AVR8/../AVR8/Endpoint_AVR8.h **** 
 576:../../LUFA-111009/LUFA/Drivers/USB/Core/AVR8/../AVR8/../AVR8/Endpoint_AVR8.h **** 			/** Resets the data toggle of the currently selected endpoint. */
 577:../../LUFA-111009/LUFA/Drivers/USB/Core/AVR8/../AVR8/../AVR8/Endpoint_AVR8.h **** 			static inline void Endpoint_ResetDataToggle(void) ATTR_ALWAYS_INLINE;
 578:../../LUFA-111009/LUFA/Drivers/USB/Core/AVR8/../AVR8/../AVR8/Endpoint_AVR8.h **** 			static inline void Endpoint_ResetDataToggle(void)
 579:../../LUFA-111009/LUFA/Drivers/USB/Core/AVR8/../AVR8/../AVR8/Endpoint_AVR8.h **** 			{
 580:../../LUFA-111009/LUFA/Drivers/USB/Core/AVR8/../AVR8/../AVR8/Endpoint_AVR8.h **** 				UECONX |= (1 << RSTDT);
 581:../../LUFA-111009/LUFA/Drivers/USB/Core/AVR8/../AVR8/../AVR8/Endpoint_AVR8.h **** 			}
 582:../../LUFA-111009/LUFA/Drivers/USB/Core/AVR8/../AVR8/../AVR8/Endpoint_AVR8.h **** 
 583:../../LUFA-111009/LUFA/Drivers/USB/Core/AVR8/../AVR8/../AVR8/Endpoint_AVR8.h **** 			/** Determines the currently selected endpoint's direction.
 584:../../LUFA-111009/LUFA/Drivers/USB/Core/AVR8/../AVR8/../AVR8/Endpoint_AVR8.h **** 			 *
 585:../../LUFA-111009/LUFA/Drivers/USB/Core/AVR8/../AVR8/../AVR8/Endpoint_AVR8.h **** 			 *  \return The currently selected endpoint's direction, as a \c ENDPOINT_DIR_* mask.
 586:../../LUFA-111009/LUFA/Drivers/USB/Core/AVR8/../AVR8/../AVR8/Endpoint_AVR8.h **** 			 */
 587:../../LUFA-111009/LUFA/Drivers/USB/Core/AVR8/../AVR8/../AVR8/Endpoint_AVR8.h **** 			static inline uint8_t Endpoint_GetEndpointDirection(void) ATTR_WARN_UNUSED_RESULT ATTR_ALWAYS_IN
 588:../../LUFA-111009/LUFA/Drivers/USB/Core/AVR8/../AVR8/../AVR8/Endpoint_AVR8.h **** 			static inline uint8_t Endpoint_GetEndpointDirection(void)
 589:../../LUFA-111009/LUFA/Drivers/USB/Core/AVR8/../AVR8/../AVR8/Endpoint_AVR8.h **** 			{
 590:../../LUFA-111009/LUFA/Drivers/USB/Core/AVR8/../AVR8/../AVR8/Endpoint_AVR8.h **** 				return (UECFG0X & (1 << EPDIR)) ? ENDPOINT_DIR_IN : ENDPOINT_DIR_OUT;
 591:../../LUFA-111009/LUFA/Drivers/USB/Core/AVR8/../AVR8/../AVR8/Endpoint_AVR8.h **** 			}
 592:../../LUFA-111009/LUFA/Drivers/USB/Core/AVR8/../AVR8/../AVR8/Endpoint_AVR8.h **** 
 593:../../LUFA-111009/LUFA/Drivers/USB/Core/AVR8/../AVR8/../AVR8/Endpoint_AVR8.h **** 			/** Sets the direction of the currently selected endpoint.
 594:../../LUFA-111009/LUFA/Drivers/USB/Core/AVR8/../AVR8/../AVR8/Endpoint_AVR8.h **** 			 *
 595:../../LUFA-111009/LUFA/Drivers/USB/Core/AVR8/../AVR8/../AVR8/Endpoint_AVR8.h **** 			 *  \param[in] DirectionMask  New endpoint direction, as a \c ENDPOINT_DIR_* mask.
 596:../../LUFA-111009/LUFA/Drivers/USB/Core/AVR8/../AVR8/../AVR8/Endpoint_AVR8.h **** 			 */
 597:../../LUFA-111009/LUFA/Drivers/USB/Core/AVR8/../AVR8/../AVR8/Endpoint_AVR8.h **** 			static inline void Endpoint_SetEndpointDirection(const uint8_t DirectionMask) ATTR_ALWAYS_INLINE
 598:../../LUFA-111009/LUFA/Drivers/USB/Core/AVR8/../AVR8/../AVR8/Endpoint_AVR8.h **** 			static inline void Endpoint_SetEndpointDirection(const uint8_t DirectionMask)
 599:../../LUFA-111009/LUFA/Drivers/USB/Core/AVR8/../AVR8/../AVR8/Endpoint_AVR8.h **** 			{
 600:../../LUFA-111009/LUFA/Drivers/USB/Core/AVR8/../AVR8/../AVR8/Endpoint_AVR8.h **** 				UECFG0X = ((UECFG0X & ~(1 << EPDIR)) | (DirectionMask ? (1 << EPDIR) : 0));
 601:../../LUFA-111009/LUFA/Drivers/USB/Core/AVR8/../AVR8/../AVR8/Endpoint_AVR8.h **** 			}
 602:../../LUFA-111009/LUFA/Drivers/USB/Core/AVR8/../AVR8/../AVR8/Endpoint_AVR8.h **** 
 603:../../LUFA-111009/LUFA/Drivers/USB/Core/AVR8/../AVR8/../AVR8/Endpoint_AVR8.h **** 			/** Reads one byte from the currently selected endpoint's bank, for OUT direction endpoints.
 604:../../LUFA-111009/LUFA/Drivers/USB/Core/AVR8/../AVR8/../AVR8/Endpoint_AVR8.h **** 			 *
 605:../../LUFA-111009/LUFA/Drivers/USB/Core/AVR8/../AVR8/../AVR8/Endpoint_AVR8.h **** 			 *  \ingroup Group_EndpointPrimitiveRW_AVR8
 606:../../LUFA-111009/LUFA/Drivers/USB/Core/AVR8/../AVR8/../AVR8/Endpoint_AVR8.h **** 			 *
 607:../../LUFA-111009/LUFA/Drivers/USB/Core/AVR8/../AVR8/../AVR8/Endpoint_AVR8.h **** 			 *  \return Next byte in the currently selected endpoint's FIFO buffer.
 608:../../LUFA-111009/LUFA/Drivers/USB/Core/AVR8/../AVR8/../AVR8/Endpoint_AVR8.h **** 			 */
 609:../../LUFA-111009/LUFA/Drivers/USB/Core/AVR8/../AVR8/../AVR8/Endpoint_AVR8.h **** 			static inline uint8_t Endpoint_Read_8(void) ATTR_WARN_UNUSED_RESULT ATTR_ALWAYS_INLINE;
 610:../../LUFA-111009/LUFA/Drivers/USB/Core/AVR8/../AVR8/../AVR8/Endpoint_AVR8.h **** 			static inline uint8_t Endpoint_Read_8(void)
 611:../../LUFA-111009/LUFA/Drivers/USB/Core/AVR8/../AVR8/../AVR8/Endpoint_AVR8.h **** 			{
 612:../../LUFA-111009/LUFA/Drivers/USB/Core/AVR8/../AVR8/../AVR8/Endpoint_AVR8.h **** 				return UEDATX;
 613:../../LUFA-111009/LUFA/Drivers/USB/Core/AVR8/../AVR8/../AVR8/Endpoint_AVR8.h **** 			}
 614:../../LUFA-111009/LUFA/Drivers/USB/Core/AVR8/../AVR8/../AVR8/Endpoint_AVR8.h **** 
 615:../../LUFA-111009/LUFA/Drivers/USB/Core/AVR8/../AVR8/../AVR8/Endpoint_AVR8.h **** 			/** Writes one byte to the currently selected endpoint's bank, for IN direction endpoints.
 616:../../LUFA-111009/LUFA/Drivers/USB/Core/AVR8/../AVR8/../AVR8/Endpoint_AVR8.h **** 			 *
 617:../../LUFA-111009/LUFA/Drivers/USB/Core/AVR8/../AVR8/../AVR8/Endpoint_AVR8.h **** 			 *  \ingroup Group_EndpointPrimitiveRW_AVR8
 618:../../LUFA-111009/LUFA/Drivers/USB/Core/AVR8/../AVR8/../AVR8/Endpoint_AVR8.h **** 			 *
 619:../../LUFA-111009/LUFA/Drivers/USB/Core/AVR8/../AVR8/../AVR8/Endpoint_AVR8.h **** 			 *  \param[in] Data  Data to write into the the currently selected endpoint's FIFO buffer.
 620:../../LUFA-111009/LUFA/Drivers/USB/Core/AVR8/../AVR8/../AVR8/Endpoint_AVR8.h **** 			 */
 621:../../LUFA-111009/LUFA/Drivers/USB/Core/AVR8/../AVR8/../AVR8/Endpoint_AVR8.h **** 			static inline void Endpoint_Write_8(const uint8_t Data) ATTR_ALWAYS_INLINE;
 622:../../LUFA-111009/LUFA/Drivers/USB/Core/AVR8/../AVR8/../AVR8/Endpoint_AVR8.h **** 			static inline void Endpoint_Write_8(const uint8_t Data)
 623:../../LUFA-111009/LUFA/Drivers/USB/Core/AVR8/../AVR8/../AVR8/Endpoint_AVR8.h **** 			{
 624:../../LUFA-111009/LUFA/Drivers/USB/Core/AVR8/../AVR8/../AVR8/Endpoint_AVR8.h **** 				UEDATX = Data;
 625:../../LUFA-111009/LUFA/Drivers/USB/Core/AVR8/../AVR8/../AVR8/Endpoint_AVR8.h **** 			}
 626:../../LUFA-111009/LUFA/Drivers/USB/Core/AVR8/../AVR8/../AVR8/Endpoint_AVR8.h **** 
 627:../../LUFA-111009/LUFA/Drivers/USB/Core/AVR8/../AVR8/../AVR8/Endpoint_AVR8.h **** 			/** Discards one byte from the currently selected endpoint's bank, for OUT direction endpoints.
 628:../../LUFA-111009/LUFA/Drivers/USB/Core/AVR8/../AVR8/../AVR8/Endpoint_AVR8.h **** 			 *
 629:../../LUFA-111009/LUFA/Drivers/USB/Core/AVR8/../AVR8/../AVR8/Endpoint_AVR8.h **** 			 *  \ingroup Group_EndpointPrimitiveRW_AVR8
 630:../../LUFA-111009/LUFA/Drivers/USB/Core/AVR8/../AVR8/../AVR8/Endpoint_AVR8.h **** 			 */
 631:../../LUFA-111009/LUFA/Drivers/USB/Core/AVR8/../AVR8/../AVR8/Endpoint_AVR8.h **** 			static inline void Endpoint_Discard_8(void) ATTR_ALWAYS_INLINE;
 632:../../LUFA-111009/LUFA/Drivers/USB/Core/AVR8/../AVR8/../AVR8/Endpoint_AVR8.h **** 			static inline void Endpoint_Discard_8(void)
 168               		.loc 2 632 23 view .LVU38
 169               	.LBB261:
 633:../../LUFA-111009/LUFA/Drivers/USB/Core/AVR8/../AVR8/../AVR8/Endpoint_AVR8.h **** 			{
 634:../../LUFA-111009/LUFA/Drivers/USB/Core/AVR8/../AVR8/../AVR8/Endpoint_AVR8.h **** 				uint8_t Dummy;
 170               		.loc 2 634 5 view .LVU39
 635:../../LUFA-111009/LUFA/Drivers/USB/Core/AVR8/../AVR8/../AVR8/Endpoint_AVR8.h **** 
 636:../../LUFA-111009/LUFA/Drivers/USB/Core/AVR8/../AVR8/../AVR8/Endpoint_AVR8.h **** 				Dummy = UEDATX;
 171               		.loc 2 636 5 view .LVU40
 172               		.loc 2 636 11 is_stmt 0 view .LVU41
 173 007c 8091 F100 		lds r24,241
 637:../../LUFA-111009/LUFA/Drivers/USB/Core/AVR8/../AVR8/../AVR8/Endpoint_AVR8.h **** 
 638:../../LUFA-111009/LUFA/Drivers/USB/Core/AVR8/../AVR8/../AVR8/Endpoint_AVR8.h **** 				(void)Dummy;
 174               		.loc 2 638 5 is_stmt 1 view .LVU42
 175               	.LBE261:
 176               	.LBE260:
  70:../../LUFA-111009/LUFA/Drivers/USB/Core/AVR8/EndpointStream_AVR8.c **** 			BytesInTransfer++;
 177               		.loc 1 70 4 view .LVU43
  70:../../LUFA-111009/LUFA/Drivers/USB/Core/AVR8/EndpointStream_AVR8.c **** 			BytesInTransfer++;
 178               		.loc 1 70 10 is_stmt 0 view .LVU44
 179 0080 2197      		sbiw r28,1
 180               	.LVL12:
  71:../../LUFA-111009/LUFA/Drivers/USB/Core/AVR8/EndpointStream_AVR8.c **** 		}
 181               		.loc 1 71 4 is_stmt 1 view .LVU45
  71:../../LUFA-111009/LUFA/Drivers/USB/Core/AVR8/EndpointStream_AVR8.c **** 		}
 182               		.loc 1 71 19 is_stmt 0 view .LVU46
 183 0082 FFEF      		ldi r31,-1
 184 0084 CF1A      		sub r12,r31
 185 0086 DF0A      		sbc r13,r31
 186               	.LVL13:
  71:../../LUFA-111009/LUFA/Drivers/USB/Core/AVR8/EndpointStream_AVR8.c **** 		}
 187               		.loc 1 71 19 view .LVU47
 188 0088 00C0      		rjmp .L4
 189               		.cfi_endproc
 190               	.LFE81:
 192               		.section	.text.Endpoint_Null_Stream,"ax",@progbits
 193               	.global	Endpoint_Null_Stream
 195               	Endpoint_Null_Stream:
 196               	.LVL14:
 197               	.LFB82:
  77:../../LUFA-111009/LUFA/Drivers/USB/Core/AVR8/EndpointStream_AVR8.c **** 
  78:../../LUFA-111009/LUFA/Drivers/USB/Core/AVR8/EndpointStream_AVR8.c **** uint8_t Endpoint_Null_Stream(uint16_t Length,
  79:../../LUFA-111009/LUFA/Drivers/USB/Core/AVR8/EndpointStream_AVR8.c ****                              uint16_t* const BytesProcessed)
  80:../../LUFA-111009/LUFA/Drivers/USB/Core/AVR8/EndpointStream_AVR8.c **** {
 198               		.loc 1 80 1 is_stmt 1 view -0
 199               		.cfi_startproc
 200               		.loc 1 80 1 is_stmt 0 view .LVU49
 201 0000 CF92      		push r12
 202               	.LCFI7:
 203               		.cfi_def_cfa_offset 3
 204               		.cfi_offset 12, -2
 205 0002 DF92      		push r13
 206               	.LCFI8:
 207               		.cfi_def_cfa_offset 4
 208               		.cfi_offset 13, -3
 209 0004 FF92      		push r15
 210               	.LCFI9:
 211               		.cfi_def_cfa_offset 5
 212               		.cfi_offset 15, -4
 213 0006 0F93      		push r16
 214               	.LCFI10:
 215               		.cfi_def_cfa_offset 6
 216               		.cfi_offset 16, -5
 217 0008 1F93      		push r17
 218               	.LCFI11:
 219               		.cfi_def_cfa_offset 7
 220               		.cfi_offset 17, -6
 221 000a CF93      		push r28
 222               	.LCFI12:
 223               		.cfi_def_cfa_offset 8
 224               		.cfi_offset 28, -7
 225 000c DF93      		push r29
 226               	.LCFI13:
 227               		.cfi_def_cfa_offset 9
 228               		.cfi_offset 29, -8
 229               	/* prologue: function */
 230               	/* frame size = 0 */
 231               	/* stack size = 7 */
 232               	.L__stack_usage = 7
 233 000e EC01      		movw r28,r24
 234 0010 8B01      		movw r16,r22
  81:../../LUFA-111009/LUFA/Drivers/USB/Core/AVR8/EndpointStream_AVR8.c **** 	uint8_t  ErrorCode;
 235               		.loc 1 81 2 is_stmt 1 view .LVU50
  82:../../LUFA-111009/LUFA/Drivers/USB/Core/AVR8/EndpointStream_AVR8.c **** 	uint16_t BytesInTransfer = 0;
 236               		.loc 1 82 2 view .LVU51
 237               	.LVL15:
  83:../../LUFA-111009/LUFA/Drivers/USB/Core/AVR8/EndpointStream_AVR8.c **** 	
  84:../../LUFA-111009/LUFA/Drivers/USB/Core/AVR8/EndpointStream_AVR8.c **** 	if ((ErrorCode = Endpoint_WaitUntilReady()))
 238               		.loc 1 84 2 view .LVU52
 239               		.loc 1 84 19 is_stmt 0 view .LVU53
 240 0012 0E94 0000 		call Endpoint_WaitUntilReady
 241               	.LVL16:
 242               		.loc 1 84 19 view .LVU54
 243 0016 F82E      		mov r15,r24
 244               	.LVL17:
 245               		.loc 1 84 5 view .LVU55
 246 0018 8111      		cpse r24,__zero_reg__
 247 001a 00C0      		rjmp .L13
  85:../../LUFA-111009/LUFA/Drivers/USB/Core/AVR8/EndpointStream_AVR8.c **** 	  return ErrorCode;
  86:../../LUFA-111009/LUFA/Drivers/USB/Core/AVR8/EndpointStream_AVR8.c **** 	  
  87:../../LUFA-111009/LUFA/Drivers/USB/Core/AVR8/EndpointStream_AVR8.c **** 	if (BytesProcessed != NULL)
 248               		.loc 1 87 2 is_stmt 1 view .LVU56
 249               		.loc 1 87 5 is_stmt 0 view .LVU57
 250 001c 0115      		cp r16,__zero_reg__
 251 001e 1105      		cpc r17,__zero_reg__
 252 0020 01F0      		breq .L15
  88:../../LUFA-111009/LUFA/Drivers/USB/Core/AVR8/EndpointStream_AVR8.c **** 	  Length -= *BytesProcessed;
 253               		.loc 1 88 4 is_stmt 1 view .LVU58
 254               		.loc 1 88 11 is_stmt 0 view .LVU59
 255 0022 F801      		movw r30,r16
 256 0024 8081      		ld r24,Z
 257 0026 9181      		ldd r25,Z+1
 258 0028 C81B      		sub r28,r24
 259 002a D90B      		sbc r29,r25
 260               	.LVL18:
 261               	.L15:
  80:../../LUFA-111009/LUFA/Drivers/USB/Core/AVR8/EndpointStream_AVR8.c **** 	uint8_t  ErrorCode;
 262               		.loc 1 80 1 view .LVU60
 263 002c D12C      		mov r13,__zero_reg__
 264 002e C12C      		mov r12,__zero_reg__
 265               	.LVL19:
 266               	.L16:
  89:../../LUFA-111009/LUFA/Drivers/USB/Core/AVR8/EndpointStream_AVR8.c **** 
  90:../../LUFA-111009/LUFA/Drivers/USB/Core/AVR8/EndpointStream_AVR8.c **** 	while (Length)
 267               		.loc 1 90 8 is_stmt 1 view .LVU61
 268 0030 2097      		sbiw r28,0
 269 0032 01F0      		breq .L13
  91:../../LUFA-111009/LUFA/Drivers/USB/Core/AVR8/EndpointStream_AVR8.c **** 	{
  92:../../LUFA-111009/LUFA/Drivers/USB/Core/AVR8/EndpointStream_AVR8.c **** 		if (!(Endpoint_IsReadWriteAllowed()))
 270               		.loc 1 92 3 view .LVU62
 271               	.LBB262:
 272               	.LBI262:
 418:../../LUFA-111009/LUFA/Drivers/USB/Core/AVR8/../AVR8/../AVR8/Endpoint_AVR8.h **** 			{
 273               		.loc 2 418 23 view .LVU63
 274               	.LBB263:
 420:../../LUFA-111009/LUFA/Drivers/USB/Core/AVR8/../AVR8/../AVR8/Endpoint_AVR8.h **** 			}
 275               		.loc 2 420 5 view .LVU64
 420:../../LUFA-111009/LUFA/Drivers/USB/Core/AVR8/../AVR8/../AVR8/Endpoint_AVR8.h **** 			}
 276               		.loc 2 420 14 is_stmt 0 view .LVU65
 277 0034 8091 E800 		lds r24,232
 278               	.LBE263:
 279               	.LBE262:
 280               		.loc 1 92 6 view .LVU66
 281 0038 85FD      		sbrc r24,5
 282 003a 00C0      		rjmp .L17
  93:../../LUFA-111009/LUFA/Drivers/USB/Core/AVR8/EndpointStream_AVR8.c **** 		{
  94:../../LUFA-111009/LUFA/Drivers/USB/Core/AVR8/EndpointStream_AVR8.c **** 			Endpoint_ClearIN();
 283               		.loc 1 94 4 is_stmt 1 view .LVU67
 284               	.LBB264:
 285               	.LBI264:
 513:../../LUFA-111009/LUFA/Drivers/USB/Core/AVR8/../AVR8/../AVR8/Endpoint_AVR8.h **** 			{
 286               		.loc 2 513 23 view .LVU68
 287               	.LBB265:
 516:../../LUFA-111009/LUFA/Drivers/USB/Core/AVR8/../AVR8/../AVR8/Endpoint_AVR8.h **** 				#else
 288               		.loc 2 516 6 view .LVU69
 516:../../LUFA-111009/LUFA/Drivers/USB/Core/AVR8/../AVR8/../AVR8/Endpoint_AVR8.h **** 				#else
 289               		.loc 2 516 13 is_stmt 0 view .LVU70
 290 003c 8091 E800 		lds r24,232
 291 0040 8E77      		andi r24,lo8(126)
 292 0042 8093 E800 		sts 232,r24
 293               	.LBE265:
 294               	.LBE264:
  95:../../LUFA-111009/LUFA/Drivers/USB/Core/AVR8/EndpointStream_AVR8.c **** 
  96:../../LUFA-111009/LUFA/Drivers/USB/Core/AVR8/EndpointStream_AVR8.c **** 			if (BytesProcessed != NULL)
 295               		.loc 1 96 4 is_stmt 1 view .LVU71
 296               		.loc 1 96 7 is_stmt 0 view .LVU72
 297 0046 0115      		cp r16,__zero_reg__
 298 0048 1105      		cpc r17,__zero_reg__
 299 004a 01F0      		breq .L18
  97:../../LUFA-111009/LUFA/Drivers/USB/Core/AVR8/EndpointStream_AVR8.c **** 			{
  98:../../LUFA-111009/LUFA/Drivers/USB/Core/AVR8/EndpointStream_AVR8.c **** 				*BytesProcessed += BytesInTransfer;
 300               		.loc 1 98 5 is_stmt 1 view .LVU73
 301               		.loc 1 98 21 is_stmt 0 view .LVU74
 302 004c F801      		movw r30,r16
 303 004e 8081      		ld r24,Z
 304 0050 9181      		ldd r25,Z+1
 305 0052 C80E      		add r12,r24
 306 0054 D91E      		adc r13,r25
 307               	.LVL20:
 308               		.loc 1 98 21 view .LVU75
 309 0056 D182      		std Z+1,r13
 310 0058 C082      		st Z,r12
  99:../../LUFA-111009/LUFA/Drivers/USB/Core/AVR8/EndpointStream_AVR8.c **** 				return ENDPOINT_RWSTREAM_IncompleteTransfer;
 311               		.loc 1 99 5 is_stmt 1 view .LVU76
 312               		.loc 1 99 12 is_stmt 0 view .LVU77
 313 005a 85E0      		ldi r24,lo8(5)
 314 005c F82E      		mov r15,r24
 315               	.L13:
 100:../../LUFA-111009/LUFA/Drivers/USB/Core/AVR8/EndpointStream_AVR8.c **** 			}
 101:../../LUFA-111009/LUFA/Drivers/USB/Core/AVR8/EndpointStream_AVR8.c **** 
 102:../../LUFA-111009/LUFA/Drivers/USB/Core/AVR8/EndpointStream_AVR8.c **** 			if ((ErrorCode = Endpoint_WaitUntilReady()))
 103:../../LUFA-111009/LUFA/Drivers/USB/Core/AVR8/EndpointStream_AVR8.c **** 			  return ErrorCode;
 104:../../LUFA-111009/LUFA/Drivers/USB/Core/AVR8/EndpointStream_AVR8.c **** 		}
 105:../../LUFA-111009/LUFA/Drivers/USB/Core/AVR8/EndpointStream_AVR8.c **** 		else
 106:../../LUFA-111009/LUFA/Drivers/USB/Core/AVR8/EndpointStream_AVR8.c **** 		{
 107:../../LUFA-111009/LUFA/Drivers/USB/Core/AVR8/EndpointStream_AVR8.c **** 			Endpoint_Write_8(0);
 108:../../LUFA-111009/LUFA/Drivers/USB/Core/AVR8/EndpointStream_AVR8.c **** 
 109:../../LUFA-111009/LUFA/Drivers/USB/Core/AVR8/EndpointStream_AVR8.c **** 			Length--;
 110:../../LUFA-111009/LUFA/Drivers/USB/Core/AVR8/EndpointStream_AVR8.c **** 			BytesInTransfer++;
 111:../../LUFA-111009/LUFA/Drivers/USB/Core/AVR8/EndpointStream_AVR8.c **** 		}
 112:../../LUFA-111009/LUFA/Drivers/USB/Core/AVR8/EndpointStream_AVR8.c **** 	}
 113:../../LUFA-111009/LUFA/Drivers/USB/Core/AVR8/EndpointStream_AVR8.c **** 	
 114:../../LUFA-111009/LUFA/Drivers/USB/Core/AVR8/EndpointStream_AVR8.c **** 	return ENDPOINT_RWSTREAM_NoError;
 115:../../LUFA-111009/LUFA/Drivers/USB/Core/AVR8/EndpointStream_AVR8.c **** }
 316               		.loc 1 115 1 view .LVU78
 317 005e 8F2D      		mov r24,r15
 318               	/* epilogue start */
 319 0060 DF91      		pop r29
 320 0062 CF91      		pop r28
 321               	.LVL21:
 322               		.loc 1 115 1 view .LVU79
 323 0064 1F91      		pop r17
 324 0066 0F91      		pop r16
 325               	.LVL22:
 326               		.loc 1 115 1 view .LVU80
 327 0068 FF90      		pop r15
 328 006a DF90      		pop r13
 329 006c CF90      		pop r12
 330 006e 0895      		ret
 331               	.LVL23:
 332               	.L18:
 102:../../LUFA-111009/LUFA/Drivers/USB/Core/AVR8/EndpointStream_AVR8.c **** 			  return ErrorCode;
 333               		.loc 1 102 4 is_stmt 1 view .LVU81
 102:../../LUFA-111009/LUFA/Drivers/USB/Core/AVR8/EndpointStream_AVR8.c **** 			  return ErrorCode;
 334               		.loc 1 102 21 is_stmt 0 view .LVU82
 335 0070 0E94 0000 		call Endpoint_WaitUntilReady
 336               	.LVL24:
 102:../../LUFA-111009/LUFA/Drivers/USB/Core/AVR8/EndpointStream_AVR8.c **** 			  return ErrorCode;
 337               		.loc 1 102 7 view .LVU83
 338 0074 8823      		tst r24
 339 0076 01F0      		breq .L16
 102:../../LUFA-111009/LUFA/Drivers/USB/Core/AVR8/EndpointStream_AVR8.c **** 			  return ErrorCode;
 340               		.loc 1 102 21 view .LVU84
 341 0078 F82E      		mov r15,r24
 342 007a 00C0      		rjmp .L13
 343               	.LVL25:
 344               	.L17:
 107:../../LUFA-111009/LUFA/Drivers/USB/Core/AVR8/EndpointStream_AVR8.c **** 
 345               		.loc 1 107 4 is_stmt 1 view .LVU85
 346               	.LBB266:
 347               	.LBI266:
 622:../../LUFA-111009/LUFA/Drivers/USB/Core/AVR8/../AVR8/../AVR8/Endpoint_AVR8.h **** 			{
 348               		.loc 2 622 23 view .LVU86
 349               	.LBB267:
 624:../../LUFA-111009/LUFA/Drivers/USB/Core/AVR8/../AVR8/../AVR8/Endpoint_AVR8.h **** 			}
 350               		.loc 2 624 5 view .LVU87
 624:../../LUFA-111009/LUFA/Drivers/USB/Core/AVR8/../AVR8/../AVR8/Endpoint_AVR8.h **** 			}
 351               		.loc 2 624 12 is_stmt 0 view .LVU88
 352 007c 1092 F100 		sts 241,__zero_reg__
 353               	.LVL26:
 624:../../LUFA-111009/LUFA/Drivers/USB/Core/AVR8/../AVR8/../AVR8/Endpoint_AVR8.h **** 			}
 354               		.loc 2 624 12 view .LVU89
 355               	.LBE267:
 356               	.LBE266:
 109:../../LUFA-111009/LUFA/Drivers/USB/Core/AVR8/EndpointStream_AVR8.c **** 			BytesInTransfer++;
 357               		.loc 1 109 4 is_stmt 1 view .LVU90
 109:../../LUFA-111009/LUFA/Drivers/USB/Core/AVR8/EndpointStream_AVR8.c **** 			BytesInTransfer++;
 358               		.loc 1 109 10 is_stmt 0 view .LVU91
 359 0080 2197      		sbiw r28,1
 360               	.LVL27:
 110:../../LUFA-111009/LUFA/Drivers/USB/Core/AVR8/EndpointStream_AVR8.c **** 		}
 361               		.loc 1 110 4 is_stmt 1 view .LVU92
 110:../../LUFA-111009/LUFA/Drivers/USB/Core/AVR8/EndpointStream_AVR8.c **** 		}
 362               		.loc 1 110 19 is_stmt 0 view .LVU93
 363 0082 FFEF      		ldi r31,-1
 364 0084 CF1A      		sub r12,r31
 365 0086 DF0A      		sbc r13,r31
 366               	.LVL28:
 110:../../LUFA-111009/LUFA/Drivers/USB/Core/AVR8/EndpointStream_AVR8.c **** 		}
 367               		.loc 1 110 19 view .LVU94
 368 0088 00C0      		rjmp .L16
 369               		.cfi_endproc
 370               	.LFE82:
 372               		.section	.text.Endpoint_Write_Stream_LE,"ax",@progbits
 373               	.global	Endpoint_Write_Stream_LE
 375               	Endpoint_Write_Stream_LE:
 376               	.LVL29:
 377               	.LFB83:
 378               		.file 3 "../../LUFA-111009/LUFA/Drivers/USB/Core/AVR8/Template/Template_Endpoint_RW.c"
   1:../../LUFA-111009/LUFA/Drivers/USB/Core/AVR8/Template/Template_Endpoint_RW.c **** /*
   2:../../LUFA-111009/LUFA/Drivers/USB/Core/AVR8/Template/Template_Endpoint_RW.c ****              LUFA Library
   3:../../LUFA-111009/LUFA/Drivers/USB/Core/AVR8/Template/Template_Endpoint_RW.c ****      Copyright (C) Dean Camera, 2011.
   4:../../LUFA-111009/LUFA/Drivers/USB/Core/AVR8/Template/Template_Endpoint_RW.c **** 
   5:../../LUFA-111009/LUFA/Drivers/USB/Core/AVR8/Template/Template_Endpoint_RW.c ****   dean [at] fourwalledcubicle [dot] com
   6:../../LUFA-111009/LUFA/Drivers/USB/Core/AVR8/Template/Template_Endpoint_RW.c ****            www.lufa-lib.org
   7:../../LUFA-111009/LUFA/Drivers/USB/Core/AVR8/Template/Template_Endpoint_RW.c **** */
   8:../../LUFA-111009/LUFA/Drivers/USB/Core/AVR8/Template/Template_Endpoint_RW.c **** 
   9:../../LUFA-111009/LUFA/Drivers/USB/Core/AVR8/Template/Template_Endpoint_RW.c **** /*
  10:../../LUFA-111009/LUFA/Drivers/USB/Core/AVR8/Template/Template_Endpoint_RW.c ****   Copyright 2011  Dean Camera (dean [at] fourwalledcubicle [dot] com)
  11:../../LUFA-111009/LUFA/Drivers/USB/Core/AVR8/Template/Template_Endpoint_RW.c **** 
  12:../../LUFA-111009/LUFA/Drivers/USB/Core/AVR8/Template/Template_Endpoint_RW.c ****   Permission to use, copy, modify, distribute, and sell this
  13:../../LUFA-111009/LUFA/Drivers/USB/Core/AVR8/Template/Template_Endpoint_RW.c ****   software and its documentation for any purpose is hereby granted
  14:../../LUFA-111009/LUFA/Drivers/USB/Core/AVR8/Template/Template_Endpoint_RW.c ****   without fee, provided that the above copyright notice appear in
  15:../../LUFA-111009/LUFA/Drivers/USB/Core/AVR8/Template/Template_Endpoint_RW.c ****   all copies and that both that the copyright notice and this
  16:../../LUFA-111009/LUFA/Drivers/USB/Core/AVR8/Template/Template_Endpoint_RW.c ****   permission notice and warranty disclaimer appear in supporting
  17:../../LUFA-111009/LUFA/Drivers/USB/Core/AVR8/Template/Template_Endpoint_RW.c ****   documentation, and that the name of the author not be used in
  18:../../LUFA-111009/LUFA/Drivers/USB/Core/AVR8/Template/Template_Endpoint_RW.c ****   advertising or publicity pertaining to distribution of the
  19:../../LUFA-111009/LUFA/Drivers/USB/Core/AVR8/Template/Template_Endpoint_RW.c ****   software without specific, written prior permission.
  20:../../LUFA-111009/LUFA/Drivers/USB/Core/AVR8/Template/Template_Endpoint_RW.c **** 
  21:../../LUFA-111009/LUFA/Drivers/USB/Core/AVR8/Template/Template_Endpoint_RW.c ****   The author disclaim all warranties with regard to this
  22:../../LUFA-111009/LUFA/Drivers/USB/Core/AVR8/Template/Template_Endpoint_RW.c ****   software, including all implied warranties of merchantability
  23:../../LUFA-111009/LUFA/Drivers/USB/Core/AVR8/Template/Template_Endpoint_RW.c ****   and fitness.  In no event shall the author be liable for any
  24:../../LUFA-111009/LUFA/Drivers/USB/Core/AVR8/Template/Template_Endpoint_RW.c ****   special, indirect or consequential damages or any damages
  25:../../LUFA-111009/LUFA/Drivers/USB/Core/AVR8/Template/Template_Endpoint_RW.c ****   whatsoever resulting from loss of use, data or profits, whether
  26:../../LUFA-111009/LUFA/Drivers/USB/Core/AVR8/Template/Template_Endpoint_RW.c ****   in an action of contract, negligence or other tortious action,
  27:../../LUFA-111009/LUFA/Drivers/USB/Core/AVR8/Template/Template_Endpoint_RW.c ****   arising out of or in connection with the use or performance of
  28:../../LUFA-111009/LUFA/Drivers/USB/Core/AVR8/Template/Template_Endpoint_RW.c ****   this software.
  29:../../LUFA-111009/LUFA/Drivers/USB/Core/AVR8/Template/Template_Endpoint_RW.c **** */
  30:../../LUFA-111009/LUFA/Drivers/USB/Core/AVR8/Template/Template_Endpoint_RW.c **** 
  31:../../LUFA-111009/LUFA/Drivers/USB/Core/AVR8/Template/Template_Endpoint_RW.c **** #if defined(TEMPLATE_FUNC_NAME)
  32:../../LUFA-111009/LUFA/Drivers/USB/Core/AVR8/Template/Template_Endpoint_RW.c **** 
  33:../../LUFA-111009/LUFA/Drivers/USB/Core/AVR8/Template/Template_Endpoint_RW.c **** uint8_t TEMPLATE_FUNC_NAME (TEMPLATE_BUFFER_TYPE const Buffer,
  34:../../LUFA-111009/LUFA/Drivers/USB/Core/AVR8/Template/Template_Endpoint_RW.c ****                             uint16_t Length,
  35:../../LUFA-111009/LUFA/Drivers/USB/Core/AVR8/Template/Template_Endpoint_RW.c ****                             uint16_t* const BytesProcessed)
  36:../../LUFA-111009/LUFA/Drivers/USB/Core/AVR8/Template/Template_Endpoint_RW.c **** {
 379               		.loc 3 36 1 is_stmt 1 view -0
 380               		.cfi_startproc
 381               		.loc 3 36 1 is_stmt 0 view .LVU96
 382 0000 AF92      		push r10
 383               	.LCFI14:
 384               		.cfi_def_cfa_offset 3
 385               		.cfi_offset 10, -2
 386 0002 BF92      		push r11
 387               	.LCFI15:
 388               		.cfi_def_cfa_offset 4
 389               		.cfi_offset 11, -3
 390 0004 CF92      		push r12
 391               	.LCFI16:
 392               		.cfi_def_cfa_offset 5
 393               		.cfi_offset 12, -4
 394 0006 DF92      		push r13
 395               	.LCFI17:
 396               		.cfi_def_cfa_offset 6
 397               		.cfi_offset 13, -5
 398 0008 FF92      		push r15
 399               	.LCFI18:
 400               		.cfi_def_cfa_offset 7
 401               		.cfi_offset 15, -6
 402 000a 0F93      		push r16
 403               	.LCFI19:
 404               		.cfi_def_cfa_offset 8
 405               		.cfi_offset 16, -7
 406 000c 1F93      		push r17
 407               	.LCFI20:
 408               		.cfi_def_cfa_offset 9
 409               		.cfi_offset 17, -8
 410 000e CF93      		push r28
 411               	.LCFI21:
 412               		.cfi_def_cfa_offset 10
 413               		.cfi_offset 28, -9
 414 0010 DF93      		push r29
 415               	.LCFI22:
 416               		.cfi_def_cfa_offset 11
 417               		.cfi_offset 29, -10
 418               	/* prologue: function */
 419               	/* frame size = 0 */
 420               	/* stack size = 9 */
 421               	.L__stack_usage = 9
 422 0012 6C01      		movw r12,r24
 423 0014 EB01      		movw r28,r22
 424 0016 8A01      		movw r16,r20
  37:../../LUFA-111009/LUFA/Drivers/USB/Core/AVR8/Template/Template_Endpoint_RW.c **** 	uint8_t* DataStream      = ((uint8_t*)Buffer + TEMPLATE_BUFFER_OFFSET(Length));
 425               		.loc 3 37 2 is_stmt 1 view .LVU97
 426               	.LVL30:
  38:../../LUFA-111009/LUFA/Drivers/USB/Core/AVR8/Template/Template_Endpoint_RW.c **** 	uint16_t BytesInTransfer = 0;
 427               		.loc 3 38 2 view .LVU98
  39:../../LUFA-111009/LUFA/Drivers/USB/Core/AVR8/Template/Template_Endpoint_RW.c **** 	uint8_t  ErrorCode;
 428               		.loc 3 39 2 view .LVU99
  40:../../LUFA-111009/LUFA/Drivers/USB/Core/AVR8/Template/Template_Endpoint_RW.c **** 
  41:../../LUFA-111009/LUFA/Drivers/USB/Core/AVR8/Template/Template_Endpoint_RW.c **** 	if ((ErrorCode = Endpoint_WaitUntilReady()))
 429               		.loc 3 41 2 view .LVU100
 430               		.loc 3 41 19 is_stmt 0 view .LVU101
 431 0018 0E94 0000 		call Endpoint_WaitUntilReady
 432               	.LVL31:
 433               		.loc 3 41 19 view .LVU102
 434 001c F82E      		mov r15,r24
 435               	.LVL32:
 436               		.loc 3 41 5 view .LVU103
 437 001e 8111      		cpse r24,__zero_reg__
 438 0020 00C0      		rjmp .L25
  42:../../LUFA-111009/LUFA/Drivers/USB/Core/AVR8/Template/Template_Endpoint_RW.c **** 	  return ErrorCode;
  43:../../LUFA-111009/LUFA/Drivers/USB/Core/AVR8/Template/Template_Endpoint_RW.c **** 
  44:../../LUFA-111009/LUFA/Drivers/USB/Core/AVR8/Template/Template_Endpoint_RW.c **** 	if (BytesProcessed != NULL)
 439               		.loc 3 44 2 is_stmt 1 view .LVU104
 440               		.loc 3 44 5 is_stmt 0 view .LVU105
 441 0022 0115      		cp r16,__zero_reg__
 442 0024 1105      		cpc r17,__zero_reg__
 443 0026 01F0      		breq .L27
  45:../../LUFA-111009/LUFA/Drivers/USB/Core/AVR8/Template/Template_Endpoint_RW.c **** 	{
  46:../../LUFA-111009/LUFA/Drivers/USB/Core/AVR8/Template/Template_Endpoint_RW.c **** 		Length -= *BytesProcessed;
 444               		.loc 3 46 3 is_stmt 1 view .LVU106
 445               		.loc 3 46 13 is_stmt 0 view .LVU107
 446 0028 F801      		movw r30,r16
 447 002a 8081      		ld r24,Z
 448 002c 9181      		ldd r25,Z+1
 449               		.loc 3 46 10 view .LVU108
 450 002e C81B      		sub r28,r24
 451 0030 D90B      		sbc r29,r25
 452               	.LVL33:
  47:../../LUFA-111009/LUFA/Drivers/USB/Core/AVR8/Template/Template_Endpoint_RW.c **** 		TEMPLATE_BUFFER_MOVE(DataStream, *BytesProcessed);
 453               		.loc 3 47 3 is_stmt 1 view .LVU109
 454 0032 C80E      		add r12,r24
 455 0034 D91E      		adc r13,r25
 456               	.LVL34:
 457               	.L27:
  36:../../LUFA-111009/LUFA/Drivers/USB/Core/AVR8/Template/Template_Endpoint_RW.c **** 	uint8_t* DataStream      = ((uint8_t*)Buffer + TEMPLATE_BUFFER_OFFSET(Length));
 458               		.loc 3 36 1 is_stmt 0 view .LVU110
 459 0036 B12C      		mov r11,__zero_reg__
 460 0038 A12C      		mov r10,__zero_reg__
 461               	.LVL35:
 462               	.L28:
  48:../../LUFA-111009/LUFA/Drivers/USB/Core/AVR8/Template/Template_Endpoint_RW.c **** 	}
  49:../../LUFA-111009/LUFA/Drivers/USB/Core/AVR8/Template/Template_Endpoint_RW.c **** 
  50:../../LUFA-111009/LUFA/Drivers/USB/Core/AVR8/Template/Template_Endpoint_RW.c **** 	while (Length)
 463               		.loc 3 50 8 is_stmt 1 view .LVU111
 464 003a 2097      		sbiw r28,0
 465 003c 01F0      		breq .L25
  51:../../LUFA-111009/LUFA/Drivers/USB/Core/AVR8/Template/Template_Endpoint_RW.c **** 	{
  52:../../LUFA-111009/LUFA/Drivers/USB/Core/AVR8/Template/Template_Endpoint_RW.c **** 		if (!(Endpoint_IsReadWriteAllowed()))
 466               		.loc 3 52 3 view .LVU112
 467               	.LBB268:
 468               	.LBI268:
 418:../../LUFA-111009/LUFA/Drivers/USB/Core/AVR8/../AVR8/../AVR8/Endpoint_AVR8.h **** 			{
 469               		.loc 2 418 23 view .LVU113
 470               	.LBB269:
 420:../../LUFA-111009/LUFA/Drivers/USB/Core/AVR8/../AVR8/../AVR8/Endpoint_AVR8.h **** 			}
 471               		.loc 2 420 5 view .LVU114
 420:../../LUFA-111009/LUFA/Drivers/USB/Core/AVR8/../AVR8/../AVR8/Endpoint_AVR8.h **** 			}
 472               		.loc 2 420 14 is_stmt 0 view .LVU115
 473 003e 8091 E800 		lds r24,232
 474               	.LBE269:
 475               	.LBE268:
 476               		.loc 3 52 6 view .LVU116
 477 0042 85FD      		sbrc r24,5
 478 0044 00C0      		rjmp .L29
  53:../../LUFA-111009/LUFA/Drivers/USB/Core/AVR8/Template/Template_Endpoint_RW.c **** 		{
  54:../../LUFA-111009/LUFA/Drivers/USB/Core/AVR8/Template/Template_Endpoint_RW.c **** 			TEMPLATE_CLEAR_ENDPOINT();
 479               		.loc 3 54 4 is_stmt 1 view .LVU117
 480               	.LBB270:
 481               	.LBI270:
 513:../../LUFA-111009/LUFA/Drivers/USB/Core/AVR8/../AVR8/../AVR8/Endpoint_AVR8.h **** 			{
 482               		.loc 2 513 23 view .LVU118
 483               	.LBB271:
 516:../../LUFA-111009/LUFA/Drivers/USB/Core/AVR8/../AVR8/../AVR8/Endpoint_AVR8.h **** 				#else
 484               		.loc 2 516 6 view .LVU119
 516:../../LUFA-111009/LUFA/Drivers/USB/Core/AVR8/../AVR8/../AVR8/Endpoint_AVR8.h **** 				#else
 485               		.loc 2 516 13 is_stmt 0 view .LVU120
 486 0046 8091 E800 		lds r24,232
 487 004a 8E77      		andi r24,lo8(126)
 488 004c 8093 E800 		sts 232,r24
 489               	.LBE271:
 490               	.LBE270:
  55:../../LUFA-111009/LUFA/Drivers/USB/Core/AVR8/Template/Template_Endpoint_RW.c **** 
  56:../../LUFA-111009/LUFA/Drivers/USB/Core/AVR8/Template/Template_Endpoint_RW.c **** 			#if !defined(INTERRUPT_CONTROL_ENDPOINT)
  57:../../LUFA-111009/LUFA/Drivers/USB/Core/AVR8/Template/Template_Endpoint_RW.c **** 			USB_USBTask();
 491               		.loc 3 57 4 is_stmt 1 view .LVU121
 492 0050 0E94 0000 		call USB_USBTask
 493               	.LVL36:
  58:../../LUFA-111009/LUFA/Drivers/USB/Core/AVR8/Template/Template_Endpoint_RW.c **** 			#endif
  59:../../LUFA-111009/LUFA/Drivers/USB/Core/AVR8/Template/Template_Endpoint_RW.c **** 
  60:../../LUFA-111009/LUFA/Drivers/USB/Core/AVR8/Template/Template_Endpoint_RW.c **** 			if (BytesProcessed != NULL)
 494               		.loc 3 60 4 view .LVU122
 495               		.loc 3 60 7 is_stmt 0 view .LVU123
 496 0054 0115      		cp r16,__zero_reg__
 497 0056 1105      		cpc r17,__zero_reg__
 498 0058 01F0      		breq .L30
  61:../../LUFA-111009/LUFA/Drivers/USB/Core/AVR8/Template/Template_Endpoint_RW.c **** 			{
  62:../../LUFA-111009/LUFA/Drivers/USB/Core/AVR8/Template/Template_Endpoint_RW.c **** 				*BytesProcessed += BytesInTransfer;
 499               		.loc 3 62 5 is_stmt 1 view .LVU124
 500               		.loc 3 62 21 is_stmt 0 view .LVU125
 501 005a F801      		movw r30,r16
 502 005c 8081      		ld r24,Z
 503 005e 9181      		ldd r25,Z+1
 504 0060 A80E      		add r10,r24
 505 0062 B91E      		adc r11,r25
 506               	.LVL37:
 507               		.loc 3 62 21 view .LVU126
 508 0064 B182      		std Z+1,r11
 509 0066 A082      		st Z,r10
  63:../../LUFA-111009/LUFA/Drivers/USB/Core/AVR8/Template/Template_Endpoint_RW.c **** 				return ENDPOINT_RWSTREAM_IncompleteTransfer;
 510               		.loc 3 63 5 is_stmt 1 view .LVU127
 511               		.loc 3 63 12 is_stmt 0 view .LVU128
 512 0068 85E0      		ldi r24,lo8(5)
 513 006a F82E      		mov r15,r24
 514               	.L25:
  64:../../LUFA-111009/LUFA/Drivers/USB/Core/AVR8/Template/Template_Endpoint_RW.c **** 			}
  65:../../LUFA-111009/LUFA/Drivers/USB/Core/AVR8/Template/Template_Endpoint_RW.c **** 
  66:../../LUFA-111009/LUFA/Drivers/USB/Core/AVR8/Template/Template_Endpoint_RW.c **** 			if ((ErrorCode = Endpoint_WaitUntilReady()))
  67:../../LUFA-111009/LUFA/Drivers/USB/Core/AVR8/Template/Template_Endpoint_RW.c **** 			  return ErrorCode;
  68:../../LUFA-111009/LUFA/Drivers/USB/Core/AVR8/Template/Template_Endpoint_RW.c **** 		}
  69:../../LUFA-111009/LUFA/Drivers/USB/Core/AVR8/Template/Template_Endpoint_RW.c **** 		else
  70:../../LUFA-111009/LUFA/Drivers/USB/Core/AVR8/Template/Template_Endpoint_RW.c **** 		{
  71:../../LUFA-111009/LUFA/Drivers/USB/Core/AVR8/Template/Template_Endpoint_RW.c **** 			TEMPLATE_TRANSFER_BYTE(DataStream);
  72:../../LUFA-111009/LUFA/Drivers/USB/Core/AVR8/Template/Template_Endpoint_RW.c **** 			TEMPLATE_BUFFER_MOVE(DataStream, 1);
  73:../../LUFA-111009/LUFA/Drivers/USB/Core/AVR8/Template/Template_Endpoint_RW.c **** 			Length--;
  74:../../LUFA-111009/LUFA/Drivers/USB/Core/AVR8/Template/Template_Endpoint_RW.c **** 			BytesInTransfer++;
  75:../../LUFA-111009/LUFA/Drivers/USB/Core/AVR8/Template/Template_Endpoint_RW.c **** 		}
  76:../../LUFA-111009/LUFA/Drivers/USB/Core/AVR8/Template/Template_Endpoint_RW.c **** 	}
  77:../../LUFA-111009/LUFA/Drivers/USB/Core/AVR8/Template/Template_Endpoint_RW.c **** 
  78:../../LUFA-111009/LUFA/Drivers/USB/Core/AVR8/Template/Template_Endpoint_RW.c **** 	return ENDPOINT_RWSTREAM_NoError;
  79:../../LUFA-111009/LUFA/Drivers/USB/Core/AVR8/Template/Template_Endpoint_RW.c **** }
 515               		.loc 3 79 1 view .LVU129
 516 006c 8F2D      		mov r24,r15
 517               	/* epilogue start */
 518 006e DF91      		pop r29
 519 0070 CF91      		pop r28
 520               	.LVL38:
 521               		.loc 3 79 1 view .LVU130
 522 0072 1F91      		pop r17
 523 0074 0F91      		pop r16
 524               	.LVL39:
 525               		.loc 3 79 1 view .LVU131
 526 0076 FF90      		pop r15
 527 0078 DF90      		pop r13
 528 007a CF90      		pop r12
 529               	.LVL40:
 530               		.loc 3 79 1 view .LVU132
 531 007c BF90      		pop r11
 532 007e AF90      		pop r10
 533 0080 0895      		ret
 534               	.LVL41:
 535               	.L30:
  66:../../LUFA-111009/LUFA/Drivers/USB/Core/AVR8/Template/Template_Endpoint_RW.c **** 			  return ErrorCode;
 536               		.loc 3 66 4 is_stmt 1 view .LVU133
  66:../../LUFA-111009/LUFA/Drivers/USB/Core/AVR8/Template/Template_Endpoint_RW.c **** 			  return ErrorCode;
 537               		.loc 3 66 21 is_stmt 0 view .LVU134
 538 0082 0E94 0000 		call Endpoint_WaitUntilReady
 539               	.LVL42:
  66:../../LUFA-111009/LUFA/Drivers/USB/Core/AVR8/Template/Template_Endpoint_RW.c **** 			  return ErrorCode;
 540               		.loc 3 66 7 view .LVU135
 541 0086 8823      		tst r24
 542 0088 01F0      		breq .L28
  66:../../LUFA-111009/LUFA/Drivers/USB/Core/AVR8/Template/Template_Endpoint_RW.c **** 			  return ErrorCode;
 543               		.loc 3 66 21 view .LVU136
 544 008a F82E      		mov r15,r24
 545 008c 00C0      		rjmp .L25
 546               	.LVL43:
 547               	.L29:
  71:../../LUFA-111009/LUFA/Drivers/USB/Core/AVR8/Template/Template_Endpoint_RW.c **** 			TEMPLATE_BUFFER_MOVE(DataStream, 1);
 548               		.loc 3 71 4 is_stmt 1 view .LVU137
 549 008e F601      		movw r30,r12
 550 0090 8191      		ld r24,Z+
 551 0092 6F01      		movw r12,r30
 552               	.LVL44:
 553               	.LBB272:
 554               	.LBI272:
 622:../../LUFA-111009/LUFA/Drivers/USB/Core/AVR8/../AVR8/../AVR8/Endpoint_AVR8.h **** 			{
 555               		.loc 2 622 23 view .LVU138
 556               	.LBB273:
 624:../../LUFA-111009/LUFA/Drivers/USB/Core/AVR8/../AVR8/../AVR8/Endpoint_AVR8.h **** 			}
 557               		.loc 2 624 5 view .LVU139
 624:../../LUFA-111009/LUFA/Drivers/USB/Core/AVR8/../AVR8/../AVR8/Endpoint_AVR8.h **** 			}
 558               		.loc 2 624 12 is_stmt 0 view .LVU140
 559 0094 8093 F100 		sts 241,r24
 560               	.LVL45:
 624:../../LUFA-111009/LUFA/Drivers/USB/Core/AVR8/../AVR8/../AVR8/Endpoint_AVR8.h **** 			}
 561               		.loc 2 624 12 view .LVU141
 562               	.LBE273:
 563               	.LBE272:
  72:../../LUFA-111009/LUFA/Drivers/USB/Core/AVR8/Template/Template_Endpoint_RW.c **** 			Length--;
 564               		.loc 3 72 4 is_stmt 1 view .LVU142
  73:../../LUFA-111009/LUFA/Drivers/USB/Core/AVR8/Template/Template_Endpoint_RW.c **** 			BytesInTransfer++;
 565               		.loc 3 73 4 view .LVU143
  73:../../LUFA-111009/LUFA/Drivers/USB/Core/AVR8/Template/Template_Endpoint_RW.c **** 			BytesInTransfer++;
 566               		.loc 3 73 10 is_stmt 0 view .LVU144
 567 0098 2197      		sbiw r28,1
 568               	.LVL46:
  74:../../LUFA-111009/LUFA/Drivers/USB/Core/AVR8/Template/Template_Endpoint_RW.c **** 		}
 569               		.loc 3 74 4 is_stmt 1 view .LVU145
  74:../../LUFA-111009/LUFA/Drivers/USB/Core/AVR8/Template/Template_Endpoint_RW.c **** 		}
 570               		.loc 3 74 19 is_stmt 0 view .LVU146
 571 009a FFEF      		ldi r31,-1
 572 009c AF1A      		sub r10,r31
 573 009e BF0A      		sbc r11,r31
 574               	.LVL47:
  74:../../LUFA-111009/LUFA/Drivers/USB/Core/AVR8/Template/Template_Endpoint_RW.c **** 		}
 575               		.loc 3 74 19 view .LVU147
 576 00a0 00C0      		rjmp .L28
 577               		.cfi_endproc
 578               	.LFE83:
 580               		.section	.text.Endpoint_Write_Stream_BE,"ax",@progbits
 581               	.global	Endpoint_Write_Stream_BE
 583               	Endpoint_Write_Stream_BE:
 584               	.LVL48:
 585               	.LFB84:
  36:../../LUFA-111009/LUFA/Drivers/USB/Core/AVR8/Template/Template_Endpoint_RW.c **** 	uint8_t* DataStream      = ((uint8_t*)Buffer + TEMPLATE_BUFFER_OFFSET(Length));
 586               		.loc 3 36 1 is_stmt 1 view -0
 587               		.cfi_startproc
  36:../../LUFA-111009/LUFA/Drivers/USB/Core/AVR8/Template/Template_Endpoint_RW.c **** 	uint8_t* DataStream      = ((uint8_t*)Buffer + TEMPLATE_BUFFER_OFFSET(Length));
 588               		.loc 3 36 1 is_stmt 0 view .LVU149
 589 0000 AF92      		push r10
 590               	.LCFI23:
 591               		.cfi_def_cfa_offset 3
 592               		.cfi_offset 10, -2
 593 0002 BF92      		push r11
 594               	.LCFI24:
 595               		.cfi_def_cfa_offset 4
 596               		.cfi_offset 11, -3
 597 0004 DF92      		push r13
 598               	.LCFI25:
 599               		.cfi_def_cfa_offset 5
 600               		.cfi_offset 13, -4
 601 0006 EF92      		push r14
 602               	.LCFI26:
 603               		.cfi_def_cfa_offset 6
 604               		.cfi_offset 14, -5
 605 0008 FF92      		push r15
 606               	.LCFI27:
 607               		.cfi_def_cfa_offset 7
 608               		.cfi_offset 15, -6
 609 000a 0F93      		push r16
 610               	.LCFI28:
 611               		.cfi_def_cfa_offset 8
 612               		.cfi_offset 16, -7
 613 000c 1F93      		push r17
 614               	.LCFI29:
 615               		.cfi_def_cfa_offset 9
 616               		.cfi_offset 17, -8
 617 000e CF93      		push r28
 618               	.LCFI30:
 619               		.cfi_def_cfa_offset 10
 620               		.cfi_offset 28, -9
 621 0010 DF93      		push r29
 622               	.LCFI31:
 623               		.cfi_def_cfa_offset 11
 624               		.cfi_offset 29, -10
 625               	/* prologue: function */
 626               	/* frame size = 0 */
 627               	/* stack size = 9 */
 628               	.L__stack_usage = 9
 629 0012 EC01      		movw r28,r24
 630 0014 8B01      		movw r16,r22
 631 0016 7A01      		movw r14,r20
  37:../../LUFA-111009/LUFA/Drivers/USB/Core/AVR8/Template/Template_Endpoint_RW.c **** 	uint16_t BytesInTransfer = 0;
 632               		.loc 3 37 2 is_stmt 1 view .LVU150
 633               	.LVL49:
  38:../../LUFA-111009/LUFA/Drivers/USB/Core/AVR8/Template/Template_Endpoint_RW.c **** 	uint8_t  ErrorCode;
 634               		.loc 3 38 2 view .LVU151
  39:../../LUFA-111009/LUFA/Drivers/USB/Core/AVR8/Template/Template_Endpoint_RW.c **** 
 635               		.loc 3 39 2 view .LVU152
  41:../../LUFA-111009/LUFA/Drivers/USB/Core/AVR8/Template/Template_Endpoint_RW.c **** 	  return ErrorCode;
 636               		.loc 3 41 2 view .LVU153
  41:../../LUFA-111009/LUFA/Drivers/USB/Core/AVR8/Template/Template_Endpoint_RW.c **** 	  return ErrorCode;
 637               		.loc 3 41 19 is_stmt 0 view .LVU154
 638 0018 0E94 0000 		call Endpoint_WaitUntilReady
 639               	.LVL50:
  41:../../LUFA-111009/LUFA/Drivers/USB/Core/AVR8/Template/Template_Endpoint_RW.c **** 	  return ErrorCode;
 640               		.loc 3 41 19 view .LVU155
 641 001c D82E      		mov r13,r24
 642               	.LVL51:
  41:../../LUFA-111009/LUFA/Drivers/USB/Core/AVR8/Template/Template_Endpoint_RW.c **** 	  return ErrorCode;
 643               		.loc 3 41 5 view .LVU156
 644 001e 8111      		cpse r24,__zero_reg__
 645 0020 00C0      		rjmp .L37
  37:../../LUFA-111009/LUFA/Drivers/USB/Core/AVR8/Template/Template_Endpoint_RW.c **** 	uint16_t BytesInTransfer = 0;
 646               		.loc 3 37 47 view .LVU157
 647 0022 C801      		movw r24,r16
 648 0024 0197      		sbiw r24,1
 649               	.LVL52:
  37:../../LUFA-111009/LUFA/Drivers/USB/Core/AVR8/Template/Template_Endpoint_RW.c **** 	uint16_t BytesInTransfer = 0;
 650               		.loc 3 37 11 view .LVU158
 651 0026 C80F      		add r28,r24
 652 0028 D91F      		adc r29,r25
 653               	.LVL53:
  44:../../LUFA-111009/LUFA/Drivers/USB/Core/AVR8/Template/Template_Endpoint_RW.c **** 	{
 654               		.loc 3 44 2 is_stmt 1 view .LVU159
  44:../../LUFA-111009/LUFA/Drivers/USB/Core/AVR8/Template/Template_Endpoint_RW.c **** 	{
 655               		.loc 3 44 5 is_stmt 0 view .LVU160
 656 002a E114      		cp r14,__zero_reg__
 657 002c F104      		cpc r15,__zero_reg__
 658 002e 01F0      		breq .L39
  46:../../LUFA-111009/LUFA/Drivers/USB/Core/AVR8/Template/Template_Endpoint_RW.c **** 		TEMPLATE_BUFFER_MOVE(DataStream, *BytesProcessed);
 659               		.loc 3 46 3 is_stmt 1 view .LVU161
  46:../../LUFA-111009/LUFA/Drivers/USB/Core/AVR8/Template/Template_Endpoint_RW.c **** 		TEMPLATE_BUFFER_MOVE(DataStream, *BytesProcessed);
 660               		.loc 3 46 13 is_stmt 0 view .LVU162
 661 0030 F701      		movw r30,r14
 662 0032 8081      		ld r24,Z
 663 0034 9181      		ldd r25,Z+1
 664               	.LVL54:
  46:../../LUFA-111009/LUFA/Drivers/USB/Core/AVR8/Template/Template_Endpoint_RW.c **** 		TEMPLATE_BUFFER_MOVE(DataStream, *BytesProcessed);
 665               		.loc 3 46 10 view .LVU163
 666 0036 081B      		sub r16,r24
 667 0038 190B      		sbc r17,r25
 668               	.LVL55:
  47:../../LUFA-111009/LUFA/Drivers/USB/Core/AVR8/Template/Template_Endpoint_RW.c **** 	}
 669               		.loc 3 47 3 is_stmt 1 view .LVU164
 670 003a C81B      		sub r28,r24
 671 003c D90B      		sbc r29,r25
 672               	.LVL56:
 673               	.L39:
  36:../../LUFA-111009/LUFA/Drivers/USB/Core/AVR8/Template/Template_Endpoint_RW.c **** 	uint8_t* DataStream      = ((uint8_t*)Buffer + TEMPLATE_BUFFER_OFFSET(Length));
 674               		.loc 3 36 1 is_stmt 0 view .LVU165
 675 003e B12C      		mov r11,__zero_reg__
 676 0040 A12C      		mov r10,__zero_reg__
 677               	.LVL57:
 678               	.L40:
  50:../../LUFA-111009/LUFA/Drivers/USB/Core/AVR8/Template/Template_Endpoint_RW.c **** 	{
 679               		.loc 3 50 8 is_stmt 1 view .LVU166
 680 0042 0115      		cp r16,__zero_reg__
 681 0044 1105      		cpc r17,__zero_reg__
 682 0046 01F0      		breq .L37
  52:../../LUFA-111009/LUFA/Drivers/USB/Core/AVR8/Template/Template_Endpoint_RW.c **** 		{
 683               		.loc 3 52 3 view .LVU167
 684               	.LBB274:
 685               	.LBI274:
 418:../../LUFA-111009/LUFA/Drivers/USB/Core/AVR8/../AVR8/../AVR8/Endpoint_AVR8.h **** 			{
 686               		.loc 2 418 23 view .LVU168
 687               	.LBB275:
 420:../../LUFA-111009/LUFA/Drivers/USB/Core/AVR8/../AVR8/../AVR8/Endpoint_AVR8.h **** 			}
 688               		.loc 2 420 5 view .LVU169
 420:../../LUFA-111009/LUFA/Drivers/USB/Core/AVR8/../AVR8/../AVR8/Endpoint_AVR8.h **** 			}
 689               		.loc 2 420 14 is_stmt 0 view .LVU170
 690 0048 8091 E800 		lds r24,232
 691               	.LBE275:
 692               	.LBE274:
  52:../../LUFA-111009/LUFA/Drivers/USB/Core/AVR8/Template/Template_Endpoint_RW.c **** 		{
 693               		.loc 3 52 6 view .LVU171
 694 004c 85FD      		sbrc r24,5
 695 004e 00C0      		rjmp .L41
  54:../../LUFA-111009/LUFA/Drivers/USB/Core/AVR8/Template/Template_Endpoint_RW.c **** 
 696               		.loc 3 54 4 is_stmt 1 view .LVU172
 697               	.LBB276:
 698               	.LBI276:
 513:../../LUFA-111009/LUFA/Drivers/USB/Core/AVR8/../AVR8/../AVR8/Endpoint_AVR8.h **** 			{
 699               		.loc 2 513 23 view .LVU173
 700               	.LBB277:
 516:../../LUFA-111009/LUFA/Drivers/USB/Core/AVR8/../AVR8/../AVR8/Endpoint_AVR8.h **** 				#else
 701               		.loc 2 516 6 view .LVU174
 516:../../LUFA-111009/LUFA/Drivers/USB/Core/AVR8/../AVR8/../AVR8/Endpoint_AVR8.h **** 				#else
 702               		.loc 2 516 13 is_stmt 0 view .LVU175
 703 0050 8091 E800 		lds r24,232
 704 0054 8E77      		andi r24,lo8(126)
 705 0056 8093 E800 		sts 232,r24
 706               	.LBE277:
 707               	.LBE276:
  57:../../LUFA-111009/LUFA/Drivers/USB/Core/AVR8/Template/Template_Endpoint_RW.c **** 			#endif
 708               		.loc 3 57 4 is_stmt 1 view .LVU176
 709 005a 0E94 0000 		call USB_USBTask
 710               	.LVL58:
  60:../../LUFA-111009/LUFA/Drivers/USB/Core/AVR8/Template/Template_Endpoint_RW.c **** 			{
 711               		.loc 3 60 4 view .LVU177
  60:../../LUFA-111009/LUFA/Drivers/USB/Core/AVR8/Template/Template_Endpoint_RW.c **** 			{
 712               		.loc 3 60 7 is_stmt 0 view .LVU178
 713 005e E114      		cp r14,__zero_reg__
 714 0060 F104      		cpc r15,__zero_reg__
 715 0062 01F0      		breq .L42
  62:../../LUFA-111009/LUFA/Drivers/USB/Core/AVR8/Template/Template_Endpoint_RW.c **** 				return ENDPOINT_RWSTREAM_IncompleteTransfer;
 716               		.loc 3 62 5 is_stmt 1 view .LVU179
  62:../../LUFA-111009/LUFA/Drivers/USB/Core/AVR8/Template/Template_Endpoint_RW.c **** 				return ENDPOINT_RWSTREAM_IncompleteTransfer;
 717               		.loc 3 62 21 is_stmt 0 view .LVU180
 718 0064 F701      		movw r30,r14
 719 0066 8081      		ld r24,Z
 720 0068 9181      		ldd r25,Z+1
 721 006a A80E      		add r10,r24
 722 006c B91E      		adc r11,r25
 723               	.LVL59:
  62:../../LUFA-111009/LUFA/Drivers/USB/Core/AVR8/Template/Template_Endpoint_RW.c **** 				return ENDPOINT_RWSTREAM_IncompleteTransfer;
 724               		.loc 3 62 21 view .LVU181
 725 006e B182      		std Z+1,r11
 726 0070 A082      		st Z,r10
  63:../../LUFA-111009/LUFA/Drivers/USB/Core/AVR8/Template/Template_Endpoint_RW.c **** 			}
 727               		.loc 3 63 5 is_stmt 1 view .LVU182
  63:../../LUFA-111009/LUFA/Drivers/USB/Core/AVR8/Template/Template_Endpoint_RW.c **** 			}
 728               		.loc 3 63 12 is_stmt 0 view .LVU183
 729 0072 85E0      		ldi r24,lo8(5)
 730 0074 D82E      		mov r13,r24
 731               	.LVL60:
 732               	.L37:
 733               		.loc 3 79 1 view .LVU184
 734 0076 8D2D      		mov r24,r13
 735               	/* epilogue start */
 736 0078 DF91      		pop r29
 737 007a CF91      		pop r28
 738 007c 1F91      		pop r17
 739 007e 0F91      		pop r16
 740               	.LVL61:
 741               		.loc 3 79 1 view .LVU185
 742 0080 FF90      		pop r15
 743 0082 EF90      		pop r14
 744               	.LVL62:
 745               		.loc 3 79 1 view .LVU186
 746 0084 DF90      		pop r13
 747 0086 BF90      		pop r11
 748 0088 AF90      		pop r10
 749 008a 0895      		ret
 750               	.LVL63:
 751               	.L42:
  66:../../LUFA-111009/LUFA/Drivers/USB/Core/AVR8/Template/Template_Endpoint_RW.c **** 			  return ErrorCode;
 752               		.loc 3 66 4 is_stmt 1 view .LVU187
  66:../../LUFA-111009/LUFA/Drivers/USB/Core/AVR8/Template/Template_Endpoint_RW.c **** 			  return ErrorCode;
 753               		.loc 3 66 21 is_stmt 0 view .LVU188
 754 008c 0E94 0000 		call Endpoint_WaitUntilReady
 755               	.LVL64:
  66:../../LUFA-111009/LUFA/Drivers/USB/Core/AVR8/Template/Template_Endpoint_RW.c **** 			  return ErrorCode;
 756               		.loc 3 66 7 view .LVU189
 757 0090 8823      		tst r24
 758 0092 01F0      		breq .L40
  66:../../LUFA-111009/LUFA/Drivers/USB/Core/AVR8/Template/Template_Endpoint_RW.c **** 			  return ErrorCode;
 759               		.loc 3 66 21 view .LVU190
 760 0094 D82E      		mov r13,r24
 761 0096 00C0      		rjmp .L37
 762               	.LVL65:
 763               	.L41:
  71:../../LUFA-111009/LUFA/Drivers/USB/Core/AVR8/Template/Template_Endpoint_RW.c **** 			TEMPLATE_BUFFER_MOVE(DataStream, 1);
 764               		.loc 3 71 4 is_stmt 1 view .LVU191
 765 0098 8881      		ld r24,Y
 766               	.LVL66:
 767               	.LBB278:
 768               	.LBI278:
 622:../../LUFA-111009/LUFA/Drivers/USB/Core/AVR8/../AVR8/../AVR8/Endpoint_AVR8.h **** 			{
 769               		.loc 2 622 23 view .LVU192
 770               	.LBB279:
 624:../../LUFA-111009/LUFA/Drivers/USB/Core/AVR8/../AVR8/../AVR8/Endpoint_AVR8.h **** 			}
 771               		.loc 2 624 5 view .LVU193
 624:../../LUFA-111009/LUFA/Drivers/USB/Core/AVR8/../AVR8/../AVR8/Endpoint_AVR8.h **** 			}
 772               		.loc 2 624 12 is_stmt 0 view .LVU194
 773 009a 8093 F100 		sts 241,r24
 774               	.LVL67:
 624:../../LUFA-111009/LUFA/Drivers/USB/Core/AVR8/../AVR8/../AVR8/Endpoint_AVR8.h **** 			}
 775               		.loc 2 624 12 view .LVU195
 776               	.LBE279:
 777               	.LBE278:
  72:../../LUFA-111009/LUFA/Drivers/USB/Core/AVR8/Template/Template_Endpoint_RW.c **** 			Length--;
 778               		.loc 3 72 4 is_stmt 1 view .LVU196
 779 009e 2197      		sbiw r28,1
 780               	.LVL68:
  73:../../LUFA-111009/LUFA/Drivers/USB/Core/AVR8/Template/Template_Endpoint_RW.c **** 			BytesInTransfer++;
 781               		.loc 3 73 4 view .LVU197
  73:../../LUFA-111009/LUFA/Drivers/USB/Core/AVR8/Template/Template_Endpoint_RW.c **** 			BytesInTransfer++;
 782               		.loc 3 73 10 is_stmt 0 view .LVU198
 783 00a0 0150      		subi r16,1
 784 00a2 1109      		sbc r17,__zero_reg__
 785               	.LVL69:
  74:../../LUFA-111009/LUFA/Drivers/USB/Core/AVR8/Template/Template_Endpoint_RW.c **** 		}
 786               		.loc 3 74 4 is_stmt 1 view .LVU199
  74:../../LUFA-111009/LUFA/Drivers/USB/Core/AVR8/Template/Template_Endpoint_RW.c **** 		}
 787               		.loc 3 74 19 is_stmt 0 view .LVU200
 788 00a4 FFEF      		ldi r31,-1
 789 00a6 AF1A      		sub r10,r31
 790 00a8 BF0A      		sbc r11,r31
 791               	.LVL70:
  74:../../LUFA-111009/LUFA/Drivers/USB/Core/AVR8/Template/Template_Endpoint_RW.c **** 		}
 792               		.loc 3 74 19 view .LVU201
 793 00aa 00C0      		rjmp .L40
 794               		.cfi_endproc
 795               	.LFE84:
 797               		.section	.text.Endpoint_Read_Stream_LE,"ax",@progbits
 798               	.global	Endpoint_Read_Stream_LE
 800               	Endpoint_Read_Stream_LE:
 801               	.LVL71:
 802               	.LFB85:
  36:../../LUFA-111009/LUFA/Drivers/USB/Core/AVR8/Template/Template_Endpoint_RW.c **** 	uint8_t* DataStream      = ((uint8_t*)Buffer + TEMPLATE_BUFFER_OFFSET(Length));
 803               		.loc 3 36 1 is_stmt 1 view -0
 804               		.cfi_startproc
  36:../../LUFA-111009/LUFA/Drivers/USB/Core/AVR8/Template/Template_Endpoint_RW.c **** 	uint8_t* DataStream      = ((uint8_t*)Buffer + TEMPLATE_BUFFER_OFFSET(Length));
 805               		.loc 3 36 1 is_stmt 0 view .LVU203
 806 0000 AF92      		push r10
 807               	.LCFI32:
 808               		.cfi_def_cfa_offset 3
 809               		.cfi_offset 10, -2
 810 0002 BF92      		push r11
 811               	.LCFI33:
 812               		.cfi_def_cfa_offset 4
 813               		.cfi_offset 11, -3
 814 0004 CF92      		push r12
 815               	.LCFI34:
 816               		.cfi_def_cfa_offset 5
 817               		.cfi_offset 12, -4
 818 0006 DF92      		push r13
 819               	.LCFI35:
 820               		.cfi_def_cfa_offset 6
 821               		.cfi_offset 13, -5
 822 0008 FF92      		push r15
 823               	.LCFI36:
 824               		.cfi_def_cfa_offset 7
 825               		.cfi_offset 15, -6
 826 000a 0F93      		push r16
 827               	.LCFI37:
 828               		.cfi_def_cfa_offset 8
 829               		.cfi_offset 16, -7
 830 000c 1F93      		push r17
 831               	.LCFI38:
 832               		.cfi_def_cfa_offset 9
 833               		.cfi_offset 17, -8
 834 000e CF93      		push r28
 835               	.LCFI39:
 836               		.cfi_def_cfa_offset 10
 837               		.cfi_offset 28, -9
 838 0010 DF93      		push r29
 839               	.LCFI40:
 840               		.cfi_def_cfa_offset 11
 841               		.cfi_offset 29, -10
 842               	/* prologue: function */
 843               	/* frame size = 0 */
 844               	/* stack size = 9 */
 845               	.L__stack_usage = 9
 846 0012 6C01      		movw r12,r24
 847 0014 EB01      		movw r28,r22
 848 0016 8A01      		movw r16,r20
  37:../../LUFA-111009/LUFA/Drivers/USB/Core/AVR8/Template/Template_Endpoint_RW.c **** 	uint16_t BytesInTransfer = 0;
 849               		.loc 3 37 2 is_stmt 1 view .LVU204
 850               	.LVL72:
  38:../../LUFA-111009/LUFA/Drivers/USB/Core/AVR8/Template/Template_Endpoint_RW.c **** 	uint8_t  ErrorCode;
 851               		.loc 3 38 2 view .LVU205
  39:../../LUFA-111009/LUFA/Drivers/USB/Core/AVR8/Template/Template_Endpoint_RW.c **** 
 852               		.loc 3 39 2 view .LVU206
  41:../../LUFA-111009/LUFA/Drivers/USB/Core/AVR8/Template/Template_Endpoint_RW.c **** 	  return ErrorCode;
 853               		.loc 3 41 2 view .LVU207
  41:../../LUFA-111009/LUFA/Drivers/USB/Core/AVR8/Template/Template_Endpoint_RW.c **** 	  return ErrorCode;
 854               		.loc 3 41 19 is_stmt 0 view .LVU208
 855 0018 0E94 0000 		call Endpoint_WaitUntilReady
 856               	.LVL73:
  41:../../LUFA-111009/LUFA/Drivers/USB/Core/AVR8/Template/Template_Endpoint_RW.c **** 	  return ErrorCode;
 857               		.loc 3 41 19 view .LVU209
 858 001c F82E      		mov r15,r24
 859               	.LVL74:
  41:../../LUFA-111009/LUFA/Drivers/USB/Core/AVR8/Template/Template_Endpoint_RW.c **** 	  return ErrorCode;
 860               		.loc 3 41 5 view .LVU210
 861 001e 8111      		cpse r24,__zero_reg__
 862 0020 00C0      		rjmp .L49
  44:../../LUFA-111009/LUFA/Drivers/USB/Core/AVR8/Template/Template_Endpoint_RW.c **** 	{
 863               		.loc 3 44 2 is_stmt 1 view .LVU211
  44:../../LUFA-111009/LUFA/Drivers/USB/Core/AVR8/Template/Template_Endpoint_RW.c **** 	{
 864               		.loc 3 44 5 is_stmt 0 view .LVU212
 865 0022 0115      		cp r16,__zero_reg__
 866 0024 1105      		cpc r17,__zero_reg__
 867 0026 01F0      		breq .L51
  46:../../LUFA-111009/LUFA/Drivers/USB/Core/AVR8/Template/Template_Endpoint_RW.c **** 		TEMPLATE_BUFFER_MOVE(DataStream, *BytesProcessed);
 868               		.loc 3 46 3 is_stmt 1 view .LVU213
  46:../../LUFA-111009/LUFA/Drivers/USB/Core/AVR8/Template/Template_Endpoint_RW.c **** 		TEMPLATE_BUFFER_MOVE(DataStream, *BytesProcessed);
 869               		.loc 3 46 13 is_stmt 0 view .LVU214
 870 0028 F801      		movw r30,r16
 871 002a 8081      		ld r24,Z
 872 002c 9181      		ldd r25,Z+1
  46:../../LUFA-111009/LUFA/Drivers/USB/Core/AVR8/Template/Template_Endpoint_RW.c **** 		TEMPLATE_BUFFER_MOVE(DataStream, *BytesProcessed);
 873               		.loc 3 46 10 view .LVU215
 874 002e C81B      		sub r28,r24
 875 0030 D90B      		sbc r29,r25
 876               	.LVL75:
  47:../../LUFA-111009/LUFA/Drivers/USB/Core/AVR8/Template/Template_Endpoint_RW.c **** 	}
 877               		.loc 3 47 3 is_stmt 1 view .LVU216
 878 0032 C80E      		add r12,r24
 879 0034 D91E      		adc r13,r25
 880               	.LVL76:
 881               	.L51:
  36:../../LUFA-111009/LUFA/Drivers/USB/Core/AVR8/Template/Template_Endpoint_RW.c **** 	uint8_t* DataStream      = ((uint8_t*)Buffer + TEMPLATE_BUFFER_OFFSET(Length));
 882               		.loc 3 36 1 is_stmt 0 view .LVU217
 883 0036 B12C      		mov r11,__zero_reg__
 884 0038 A12C      		mov r10,__zero_reg__
 885               	.LVL77:
 886               	.L52:
  50:../../LUFA-111009/LUFA/Drivers/USB/Core/AVR8/Template/Template_Endpoint_RW.c **** 	{
 887               		.loc 3 50 8 is_stmt 1 view .LVU218
 888 003a 2097      		sbiw r28,0
 889 003c 01F0      		breq .L49
  52:../../LUFA-111009/LUFA/Drivers/USB/Core/AVR8/Template/Template_Endpoint_RW.c **** 		{
 890               		.loc 3 52 3 view .LVU219
 891               	.LBB280:
 892               	.LBI280:
 418:../../LUFA-111009/LUFA/Drivers/USB/Core/AVR8/../AVR8/../AVR8/Endpoint_AVR8.h **** 			{
 893               		.loc 2 418 23 view .LVU220
 894               	.LBB281:
 420:../../LUFA-111009/LUFA/Drivers/USB/Core/AVR8/../AVR8/../AVR8/Endpoint_AVR8.h **** 			}
 895               		.loc 2 420 5 view .LVU221
 420:../../LUFA-111009/LUFA/Drivers/USB/Core/AVR8/../AVR8/../AVR8/Endpoint_AVR8.h **** 			}
 896               		.loc 2 420 14 is_stmt 0 view .LVU222
 897 003e 8091 E800 		lds r24,232
 898               	.LBE281:
 899               	.LBE280:
  52:../../LUFA-111009/LUFA/Drivers/USB/Core/AVR8/Template/Template_Endpoint_RW.c **** 		{
 900               		.loc 3 52 6 view .LVU223
 901 0042 85FD      		sbrc r24,5
 902 0044 00C0      		rjmp .L53
  54:../../LUFA-111009/LUFA/Drivers/USB/Core/AVR8/Template/Template_Endpoint_RW.c **** 
 903               		.loc 3 54 4 is_stmt 1 view .LVU224
 904               	.LBB282:
 905               	.LBI282:
 528:../../LUFA-111009/LUFA/Drivers/USB/Core/AVR8/../AVR8/../AVR8/Endpoint_AVR8.h **** 			{
 906               		.loc 2 528 23 view .LVU225
 907               	.LBB283:
 531:../../LUFA-111009/LUFA/Drivers/USB/Core/AVR8/../AVR8/../AVR8/Endpoint_AVR8.h **** 				#else
 908               		.loc 2 531 6 view .LVU226
 531:../../LUFA-111009/LUFA/Drivers/USB/Core/AVR8/../AVR8/../AVR8/Endpoint_AVR8.h **** 				#else
 909               		.loc 2 531 13 is_stmt 0 view .LVU227
 910 0046 8091 E800 		lds r24,232
 911 004a 8B77      		andi r24,lo8(123)
 912 004c 8093 E800 		sts 232,r24
 913               	.LBE283:
 914               	.LBE282:
  57:../../LUFA-111009/LUFA/Drivers/USB/Core/AVR8/Template/Template_Endpoint_RW.c **** 			#endif
 915               		.loc 3 57 4 is_stmt 1 view .LVU228
 916 0050 0E94 0000 		call USB_USBTask
 917               	.LVL78:
  60:../../LUFA-111009/LUFA/Drivers/USB/Core/AVR8/Template/Template_Endpoint_RW.c **** 			{
 918               		.loc 3 60 4 view .LVU229
  60:../../LUFA-111009/LUFA/Drivers/USB/Core/AVR8/Template/Template_Endpoint_RW.c **** 			{
 919               		.loc 3 60 7 is_stmt 0 view .LVU230
 920 0054 0115      		cp r16,__zero_reg__
 921 0056 1105      		cpc r17,__zero_reg__
 922 0058 01F0      		breq .L54
  62:../../LUFA-111009/LUFA/Drivers/USB/Core/AVR8/Template/Template_Endpoint_RW.c **** 				return ENDPOINT_RWSTREAM_IncompleteTransfer;
 923               		.loc 3 62 5 is_stmt 1 view .LVU231
  62:../../LUFA-111009/LUFA/Drivers/USB/Core/AVR8/Template/Template_Endpoint_RW.c **** 				return ENDPOINT_RWSTREAM_IncompleteTransfer;
 924               		.loc 3 62 21 is_stmt 0 view .LVU232
 925 005a F801      		movw r30,r16
 926 005c 8081      		ld r24,Z
 927 005e 9181      		ldd r25,Z+1
 928 0060 A80E      		add r10,r24
 929 0062 B91E      		adc r11,r25
 930               	.LVL79:
  62:../../LUFA-111009/LUFA/Drivers/USB/Core/AVR8/Template/Template_Endpoint_RW.c **** 				return ENDPOINT_RWSTREAM_IncompleteTransfer;
 931               		.loc 3 62 21 view .LVU233
 932 0064 B182      		std Z+1,r11
 933 0066 A082      		st Z,r10
  63:../../LUFA-111009/LUFA/Drivers/USB/Core/AVR8/Template/Template_Endpoint_RW.c **** 			}
 934               		.loc 3 63 5 is_stmt 1 view .LVU234
  63:../../LUFA-111009/LUFA/Drivers/USB/Core/AVR8/Template/Template_Endpoint_RW.c **** 			}
 935               		.loc 3 63 12 is_stmt 0 view .LVU235
 936 0068 85E0      		ldi r24,lo8(5)
 937 006a F82E      		mov r15,r24
 938               	.L49:
 939               		.loc 3 79 1 view .LVU236
 940 006c 8F2D      		mov r24,r15
 941               	/* epilogue start */
 942 006e DF91      		pop r29
 943 0070 CF91      		pop r28
 944               	.LVL80:
 945               		.loc 3 79 1 view .LVU237
 946 0072 1F91      		pop r17
 947 0074 0F91      		pop r16
 948               	.LVL81:
 949               		.loc 3 79 1 view .LVU238
 950 0076 FF90      		pop r15
 951 0078 DF90      		pop r13
 952 007a CF90      		pop r12
 953               	.LVL82:
 954               		.loc 3 79 1 view .LVU239
 955 007c BF90      		pop r11
 956 007e AF90      		pop r10
 957 0080 0895      		ret
 958               	.LVL83:
 959               	.L54:
  66:../../LUFA-111009/LUFA/Drivers/USB/Core/AVR8/Template/Template_Endpoint_RW.c **** 			  return ErrorCode;
 960               		.loc 3 66 4 is_stmt 1 view .LVU240
  66:../../LUFA-111009/LUFA/Drivers/USB/Core/AVR8/Template/Template_Endpoint_RW.c **** 			  return ErrorCode;
 961               		.loc 3 66 21 is_stmt 0 view .LVU241
 962 0082 0E94 0000 		call Endpoint_WaitUntilReady
 963               	.LVL84:
  66:../../LUFA-111009/LUFA/Drivers/USB/Core/AVR8/Template/Template_Endpoint_RW.c **** 			  return ErrorCode;
 964               		.loc 3 66 7 view .LVU242
 965 0086 8823      		tst r24
 966 0088 01F0      		breq .L52
  66:../../LUFA-111009/LUFA/Drivers/USB/Core/AVR8/Template/Template_Endpoint_RW.c **** 			  return ErrorCode;
 967               		.loc 3 66 21 view .LVU243
 968 008a F82E      		mov r15,r24
 969 008c 00C0      		rjmp .L49
 970               	.LVL85:
 971               	.L53:
  71:../../LUFA-111009/LUFA/Drivers/USB/Core/AVR8/Template/Template_Endpoint_RW.c **** 			TEMPLATE_BUFFER_MOVE(DataStream, 1);
 972               		.loc 3 71 4 is_stmt 1 view .LVU244
 973               	.LBB284:
 974               	.LBI284:
 610:../../LUFA-111009/LUFA/Drivers/USB/Core/AVR8/../AVR8/../AVR8/Endpoint_AVR8.h **** 			{
 975               		.loc 2 610 26 view .LVU245
 976               	.LBB285:
 612:../../LUFA-111009/LUFA/Drivers/USB/Core/AVR8/../AVR8/../AVR8/Endpoint_AVR8.h **** 			}
 977               		.loc 2 612 5 view .LVU246
 612:../../LUFA-111009/LUFA/Drivers/USB/Core/AVR8/../AVR8/../AVR8/Endpoint_AVR8.h **** 			}
 978               		.loc 2 612 12 is_stmt 0 view .LVU247
 979 008e 8091 F100 		lds r24,241
 980               	.LBE285:
 981               	.LBE284:
  71:../../LUFA-111009/LUFA/Drivers/USB/Core/AVR8/Template/Template_Endpoint_RW.c **** 			TEMPLATE_BUFFER_MOVE(DataStream, 1);
 982               		.loc 3 71 4 view .LVU248
 983 0092 F601      		movw r30,r12
 984 0094 8193      		st Z+,r24
 985 0096 6F01      		movw r12,r30
 986               	.LVL86:
  72:../../LUFA-111009/LUFA/Drivers/USB/Core/AVR8/Template/Template_Endpoint_RW.c **** 			Length--;
 987               		.loc 3 72 4 is_stmt 1 view .LVU249
  73:../../LUFA-111009/LUFA/Drivers/USB/Core/AVR8/Template/Template_Endpoint_RW.c **** 			BytesInTransfer++;
 988               		.loc 3 73 4 view .LVU250
  73:../../LUFA-111009/LUFA/Drivers/USB/Core/AVR8/Template/Template_Endpoint_RW.c **** 			BytesInTransfer++;
 989               		.loc 3 73 10 is_stmt 0 view .LVU251
 990 0098 2197      		sbiw r28,1
 991               	.LVL87:
  74:../../LUFA-111009/LUFA/Drivers/USB/Core/AVR8/Template/Template_Endpoint_RW.c **** 		}
 992               		.loc 3 74 4 is_stmt 1 view .LVU252
  74:../../LUFA-111009/LUFA/Drivers/USB/Core/AVR8/Template/Template_Endpoint_RW.c **** 		}
 993               		.loc 3 74 19 is_stmt 0 view .LVU253
 994 009a FFEF      		ldi r31,-1
 995 009c AF1A      		sub r10,r31
 996 009e BF0A      		sbc r11,r31
 997               	.LVL88:
  74:../../LUFA-111009/LUFA/Drivers/USB/Core/AVR8/Template/Template_Endpoint_RW.c **** 		}
 998               		.loc 3 74 19 view .LVU254
 999 00a0 00C0      		rjmp .L52
 1000               		.cfi_endproc
 1001               	.LFE85:
 1003               		.section	.text.Endpoint_Read_Stream_BE,"ax",@progbits
 1004               	.global	Endpoint_Read_Stream_BE
 1006               	Endpoint_Read_Stream_BE:
 1007               	.LVL89:
 1008               	.LFB86:
  36:../../LUFA-111009/LUFA/Drivers/USB/Core/AVR8/Template/Template_Endpoint_RW.c **** 	uint8_t* DataStream      = ((uint8_t*)Buffer + TEMPLATE_BUFFER_OFFSET(Length));
 1009               		.loc 3 36 1 is_stmt 1 view -0
 1010               		.cfi_startproc
  36:../../LUFA-111009/LUFA/Drivers/USB/Core/AVR8/Template/Template_Endpoint_RW.c **** 	uint8_t* DataStream      = ((uint8_t*)Buffer + TEMPLATE_BUFFER_OFFSET(Length));
 1011               		.loc 3 36 1 is_stmt 0 view .LVU256
 1012 0000 AF92      		push r10
 1013               	.LCFI41:
 1014               		.cfi_def_cfa_offset 3
 1015               		.cfi_offset 10, -2
 1016 0002 BF92      		push r11
 1017               	.LCFI42:
 1018               		.cfi_def_cfa_offset 4
 1019               		.cfi_offset 11, -3
 1020 0004 DF92      		push r13
 1021               	.LCFI43:
 1022               		.cfi_def_cfa_offset 5
 1023               		.cfi_offset 13, -4
 1024 0006 EF92      		push r14
 1025               	.LCFI44:
 1026               		.cfi_def_cfa_offset 6
 1027               		.cfi_offset 14, -5
 1028 0008 FF92      		push r15
 1029               	.LCFI45:
 1030               		.cfi_def_cfa_offset 7
 1031               		.cfi_offset 15, -6
 1032 000a 0F93      		push r16
 1033               	.LCFI46:
 1034               		.cfi_def_cfa_offset 8
 1035               		.cfi_offset 16, -7
 1036 000c 1F93      		push r17
 1037               	.LCFI47:
 1038               		.cfi_def_cfa_offset 9
 1039               		.cfi_offset 17, -8
 1040 000e CF93      		push r28
 1041               	.LCFI48:
 1042               		.cfi_def_cfa_offset 10
 1043               		.cfi_offset 28, -9
 1044 0010 DF93      		push r29
 1045               	.LCFI49:
 1046               		.cfi_def_cfa_offset 11
 1047               		.cfi_offset 29, -10
 1048               	/* prologue: function */
 1049               	/* frame size = 0 */
 1050               	/* stack size = 9 */
 1051               	.L__stack_usage = 9
 1052 0012 EC01      		movw r28,r24
 1053 0014 8B01      		movw r16,r22
 1054 0016 7A01      		movw r14,r20
  37:../../LUFA-111009/LUFA/Drivers/USB/Core/AVR8/Template/Template_Endpoint_RW.c **** 	uint16_t BytesInTransfer = 0;
 1055               		.loc 3 37 2 is_stmt 1 view .LVU257
 1056               	.LVL90:
  38:../../LUFA-111009/LUFA/Drivers/USB/Core/AVR8/Template/Template_Endpoint_RW.c **** 	uint8_t  ErrorCode;
 1057               		.loc 3 38 2 view .LVU258
  39:../../LUFA-111009/LUFA/Drivers/USB/Core/AVR8/Template/Template_Endpoint_RW.c **** 
 1058               		.loc 3 39 2 view .LVU259
  41:../../LUFA-111009/LUFA/Drivers/USB/Core/AVR8/Template/Template_Endpoint_RW.c **** 	  return ErrorCode;
 1059               		.loc 3 41 2 view .LVU260
  41:../../LUFA-111009/LUFA/Drivers/USB/Core/AVR8/Template/Template_Endpoint_RW.c **** 	  return ErrorCode;
 1060               		.loc 3 41 19 is_stmt 0 view .LVU261
 1061 0018 0E94 0000 		call Endpoint_WaitUntilReady
 1062               	.LVL91:
  41:../../LUFA-111009/LUFA/Drivers/USB/Core/AVR8/Template/Template_Endpoint_RW.c **** 	  return ErrorCode;
 1063               		.loc 3 41 19 view .LVU262
 1064 001c D82E      		mov r13,r24
 1065               	.LVL92:
  41:../../LUFA-111009/LUFA/Drivers/USB/Core/AVR8/Template/Template_Endpoint_RW.c **** 	  return ErrorCode;
 1066               		.loc 3 41 5 view .LVU263
 1067 001e 8111      		cpse r24,__zero_reg__
 1068 0020 00C0      		rjmp .L61
  37:../../LUFA-111009/LUFA/Drivers/USB/Core/AVR8/Template/Template_Endpoint_RW.c **** 	uint16_t BytesInTransfer = 0;
 1069               		.loc 3 37 47 view .LVU264
 1070 0022 C801      		movw r24,r16
 1071 0024 0197      		sbiw r24,1
 1072               	.LVL93:
  37:../../LUFA-111009/LUFA/Drivers/USB/Core/AVR8/Template/Template_Endpoint_RW.c **** 	uint16_t BytesInTransfer = 0;
 1073               		.loc 3 37 11 view .LVU265
 1074 0026 C80F      		add r28,r24
 1075 0028 D91F      		adc r29,r25
 1076               	.LVL94:
  44:../../LUFA-111009/LUFA/Drivers/USB/Core/AVR8/Template/Template_Endpoint_RW.c **** 	{
 1077               		.loc 3 44 2 is_stmt 1 view .LVU266
  44:../../LUFA-111009/LUFA/Drivers/USB/Core/AVR8/Template/Template_Endpoint_RW.c **** 	{
 1078               		.loc 3 44 5 is_stmt 0 view .LVU267
 1079 002a E114      		cp r14,__zero_reg__
 1080 002c F104      		cpc r15,__zero_reg__
 1081 002e 01F0      		breq .L63
  46:../../LUFA-111009/LUFA/Drivers/USB/Core/AVR8/Template/Template_Endpoint_RW.c **** 		TEMPLATE_BUFFER_MOVE(DataStream, *BytesProcessed);
 1082               		.loc 3 46 3 is_stmt 1 view .LVU268
  46:../../LUFA-111009/LUFA/Drivers/USB/Core/AVR8/Template/Template_Endpoint_RW.c **** 		TEMPLATE_BUFFER_MOVE(DataStream, *BytesProcessed);
 1083               		.loc 3 46 13 is_stmt 0 view .LVU269
 1084 0030 F701      		movw r30,r14
 1085 0032 8081      		ld r24,Z
 1086 0034 9181      		ldd r25,Z+1
 1087               	.LVL95:
  46:../../LUFA-111009/LUFA/Drivers/USB/Core/AVR8/Template/Template_Endpoint_RW.c **** 		TEMPLATE_BUFFER_MOVE(DataStream, *BytesProcessed);
 1088               		.loc 3 46 10 view .LVU270
 1089 0036 081B      		sub r16,r24
 1090 0038 190B      		sbc r17,r25
 1091               	.LVL96:
  47:../../LUFA-111009/LUFA/Drivers/USB/Core/AVR8/Template/Template_Endpoint_RW.c **** 	}
 1092               		.loc 3 47 3 is_stmt 1 view .LVU271
 1093 003a C81B      		sub r28,r24
 1094 003c D90B      		sbc r29,r25
 1095               	.LVL97:
 1096               	.L63:
  36:../../LUFA-111009/LUFA/Drivers/USB/Core/AVR8/Template/Template_Endpoint_RW.c **** 	uint8_t* DataStream      = ((uint8_t*)Buffer + TEMPLATE_BUFFER_OFFSET(Length));
 1097               		.loc 3 36 1 is_stmt 0 view .LVU272
 1098 003e B12C      		mov r11,__zero_reg__
 1099 0040 A12C      		mov r10,__zero_reg__
 1100               	.LVL98:
 1101               	.L64:
  50:../../LUFA-111009/LUFA/Drivers/USB/Core/AVR8/Template/Template_Endpoint_RW.c **** 	{
 1102               		.loc 3 50 8 is_stmt 1 view .LVU273
 1103 0042 0115      		cp r16,__zero_reg__
 1104 0044 1105      		cpc r17,__zero_reg__
 1105 0046 01F0      		breq .L61
  52:../../LUFA-111009/LUFA/Drivers/USB/Core/AVR8/Template/Template_Endpoint_RW.c **** 		{
 1106               		.loc 3 52 3 view .LVU274
 1107               	.LBB286:
 1108               	.LBI286:
 418:../../LUFA-111009/LUFA/Drivers/USB/Core/AVR8/../AVR8/../AVR8/Endpoint_AVR8.h **** 			{
 1109               		.loc 2 418 23 view .LVU275
 1110               	.LBB287:
 420:../../LUFA-111009/LUFA/Drivers/USB/Core/AVR8/../AVR8/../AVR8/Endpoint_AVR8.h **** 			}
 1111               		.loc 2 420 5 view .LVU276
 420:../../LUFA-111009/LUFA/Drivers/USB/Core/AVR8/../AVR8/../AVR8/Endpoint_AVR8.h **** 			}
 1112               		.loc 2 420 14 is_stmt 0 view .LVU277
 1113 0048 8091 E800 		lds r24,232
 1114               	.LBE287:
 1115               	.LBE286:
  52:../../LUFA-111009/LUFA/Drivers/USB/Core/AVR8/Template/Template_Endpoint_RW.c **** 		{
 1116               		.loc 3 52 6 view .LVU278
 1117 004c 85FD      		sbrc r24,5
 1118 004e 00C0      		rjmp .L65
  54:../../LUFA-111009/LUFA/Drivers/USB/Core/AVR8/Template/Template_Endpoint_RW.c **** 
 1119               		.loc 3 54 4 is_stmt 1 view .LVU279
 1120               	.LBB288:
 1121               	.LBI288:
 528:../../LUFA-111009/LUFA/Drivers/USB/Core/AVR8/../AVR8/../AVR8/Endpoint_AVR8.h **** 			{
 1122               		.loc 2 528 23 view .LVU280
 1123               	.LBB289:
 531:../../LUFA-111009/LUFA/Drivers/USB/Core/AVR8/../AVR8/../AVR8/Endpoint_AVR8.h **** 				#else
 1124               		.loc 2 531 6 view .LVU281
 531:../../LUFA-111009/LUFA/Drivers/USB/Core/AVR8/../AVR8/../AVR8/Endpoint_AVR8.h **** 				#else
 1125               		.loc 2 531 13 is_stmt 0 view .LVU282
 1126 0050 8091 E800 		lds r24,232
 1127 0054 8B77      		andi r24,lo8(123)
 1128 0056 8093 E800 		sts 232,r24
 1129               	.LBE289:
 1130               	.LBE288:
  57:../../LUFA-111009/LUFA/Drivers/USB/Core/AVR8/Template/Template_Endpoint_RW.c **** 			#endif
 1131               		.loc 3 57 4 is_stmt 1 view .LVU283
 1132 005a 0E94 0000 		call USB_USBTask
 1133               	.LVL99:
  60:../../LUFA-111009/LUFA/Drivers/USB/Core/AVR8/Template/Template_Endpoint_RW.c **** 			{
 1134               		.loc 3 60 4 view .LVU284
  60:../../LUFA-111009/LUFA/Drivers/USB/Core/AVR8/Template/Template_Endpoint_RW.c **** 			{
 1135               		.loc 3 60 7 is_stmt 0 view .LVU285
 1136 005e E114      		cp r14,__zero_reg__
 1137 0060 F104      		cpc r15,__zero_reg__
 1138 0062 01F0      		breq .L66
  62:../../LUFA-111009/LUFA/Drivers/USB/Core/AVR8/Template/Template_Endpoint_RW.c **** 				return ENDPOINT_RWSTREAM_IncompleteTransfer;
 1139               		.loc 3 62 5 is_stmt 1 view .LVU286
  62:../../LUFA-111009/LUFA/Drivers/USB/Core/AVR8/Template/Template_Endpoint_RW.c **** 				return ENDPOINT_RWSTREAM_IncompleteTransfer;
 1140               		.loc 3 62 21 is_stmt 0 view .LVU287
 1141 0064 F701      		movw r30,r14
 1142 0066 8081      		ld r24,Z
 1143 0068 9181      		ldd r25,Z+1
 1144 006a A80E      		add r10,r24
 1145 006c B91E      		adc r11,r25
 1146               	.LVL100:
  62:../../LUFA-111009/LUFA/Drivers/USB/Core/AVR8/Template/Template_Endpoint_RW.c **** 				return ENDPOINT_RWSTREAM_IncompleteTransfer;
 1147               		.loc 3 62 21 view .LVU288
 1148 006e B182      		std Z+1,r11
 1149 0070 A082      		st Z,r10
  63:../../LUFA-111009/LUFA/Drivers/USB/Core/AVR8/Template/Template_Endpoint_RW.c **** 			}
 1150               		.loc 3 63 5 is_stmt 1 view .LVU289
  63:../../LUFA-111009/LUFA/Drivers/USB/Core/AVR8/Template/Template_Endpoint_RW.c **** 			}
 1151               		.loc 3 63 12 is_stmt 0 view .LVU290
 1152 0072 85E0      		ldi r24,lo8(5)
 1153 0074 D82E      		mov r13,r24
 1154               	.LVL101:
 1155               	.L61:
 1156               		.loc 3 79 1 view .LVU291
 1157 0076 8D2D      		mov r24,r13
 1158               	/* epilogue start */
 1159 0078 DF91      		pop r29
 1160 007a CF91      		pop r28
 1161 007c 1F91      		pop r17
 1162 007e 0F91      		pop r16
 1163               	.LVL102:
 1164               		.loc 3 79 1 view .LVU292
 1165 0080 FF90      		pop r15
 1166 0082 EF90      		pop r14
 1167               	.LVL103:
 1168               		.loc 3 79 1 view .LVU293
 1169 0084 DF90      		pop r13
 1170 0086 BF90      		pop r11
 1171 0088 AF90      		pop r10
 1172 008a 0895      		ret
 1173               	.LVL104:
 1174               	.L66:
  66:../../LUFA-111009/LUFA/Drivers/USB/Core/AVR8/Template/Template_Endpoint_RW.c **** 			  return ErrorCode;
 1175               		.loc 3 66 4 is_stmt 1 view .LVU294
  66:../../LUFA-111009/LUFA/Drivers/USB/Core/AVR8/Template/Template_Endpoint_RW.c **** 			  return ErrorCode;
 1176               		.loc 3 66 21 is_stmt 0 view .LVU295
 1177 008c 0E94 0000 		call Endpoint_WaitUntilReady
 1178               	.LVL105:
  66:../../LUFA-111009/LUFA/Drivers/USB/Core/AVR8/Template/Template_Endpoint_RW.c **** 			  return ErrorCode;
 1179               		.loc 3 66 7 view .LVU296
 1180 0090 8823      		tst r24
 1181 0092 01F0      		breq .L64
  66:../../LUFA-111009/LUFA/Drivers/USB/Core/AVR8/Template/Template_Endpoint_RW.c **** 			  return ErrorCode;
 1182               		.loc 3 66 21 view .LVU297
 1183 0094 D82E      		mov r13,r24
 1184 0096 00C0      		rjmp .L61
 1185               	.LVL106:
 1186               	.L65:
  71:../../LUFA-111009/LUFA/Drivers/USB/Core/AVR8/Template/Template_Endpoint_RW.c **** 			TEMPLATE_BUFFER_MOVE(DataStream, 1);
 1187               		.loc 3 71 4 is_stmt 1 view .LVU298
 1188               	.LBB290:
 1189               	.LBI290:
 610:../../LUFA-111009/LUFA/Drivers/USB/Core/AVR8/../AVR8/../AVR8/Endpoint_AVR8.h **** 			{
 1190               		.loc 2 610 26 view .LVU299
 1191               	.LBB291:
 612:../../LUFA-111009/LUFA/Drivers/USB/Core/AVR8/../AVR8/../AVR8/Endpoint_AVR8.h **** 			}
 1192               		.loc 2 612 5 view .LVU300
 612:../../LUFA-111009/LUFA/Drivers/USB/Core/AVR8/../AVR8/../AVR8/Endpoint_AVR8.h **** 			}
 1193               		.loc 2 612 12 is_stmt 0 view .LVU301
 1194 0098 8091 F100 		lds r24,241
 1195               	.LBE291:
 1196               	.LBE290:
  71:../../LUFA-111009/LUFA/Drivers/USB/Core/AVR8/Template/Template_Endpoint_RW.c **** 			TEMPLATE_BUFFER_MOVE(DataStream, 1);
 1197               		.loc 3 71 4 view .LVU302
 1198 009c 8883      		st Y,r24
  72:../../LUFA-111009/LUFA/Drivers/USB/Core/AVR8/Template/Template_Endpoint_RW.c **** 			Length--;
 1199               		.loc 3 72 4 is_stmt 1 view .LVU303
 1200 009e 2197      		sbiw r28,1
 1201               	.LVL107:
  73:../../LUFA-111009/LUFA/Drivers/USB/Core/AVR8/Template/Template_Endpoint_RW.c **** 			BytesInTransfer++;
 1202               		.loc 3 73 4 view .LVU304
  73:../../LUFA-111009/LUFA/Drivers/USB/Core/AVR8/Template/Template_Endpoint_RW.c **** 			BytesInTransfer++;
 1203               		.loc 3 73 10 is_stmt 0 view .LVU305
 1204 00a0 0150      		subi r16,1
 1205 00a2 1109      		sbc r17,__zero_reg__
 1206               	.LVL108:
  74:../../LUFA-111009/LUFA/Drivers/USB/Core/AVR8/Template/Template_Endpoint_RW.c **** 		}
 1207               		.loc 3 74 4 is_stmt 1 view .LVU306
  74:../../LUFA-111009/LUFA/Drivers/USB/Core/AVR8/Template/Template_Endpoint_RW.c **** 		}
 1208               		.loc 3 74 19 is_stmt 0 view .LVU307
 1209 00a4 FFEF      		ldi r31,-1
 1210 00a6 AF1A      		sub r10,r31
 1211 00a8 BF0A      		sbc r11,r31
 1212               	.LVL109:
  74:../../LUFA-111009/LUFA/Drivers/USB/Core/AVR8/Template/Template_Endpoint_RW.c **** 		}
 1213               		.loc 3 74 19 view .LVU308
 1214 00aa 00C0      		rjmp .L64
 1215               		.cfi_endproc
 1216               	.LFE86:
 1218               		.section	.text.Endpoint_Write_PStream_LE,"ax",@progbits
 1219               	.global	Endpoint_Write_PStream_LE
 1221               	Endpoint_Write_PStream_LE:
 1222               	.LVL110:
 1223               	.LFB87:
  36:../../LUFA-111009/LUFA/Drivers/USB/Core/AVR8/Template/Template_Endpoint_RW.c **** 	uint8_t* DataStream      = ((uint8_t*)Buffer + TEMPLATE_BUFFER_OFFSET(Length));
 1224               		.loc 3 36 1 is_stmt 1 view -0
 1225               		.cfi_startproc
  36:../../LUFA-111009/LUFA/Drivers/USB/Core/AVR8/Template/Template_Endpoint_RW.c **** 	uint8_t* DataStream      = ((uint8_t*)Buffer + TEMPLATE_BUFFER_OFFSET(Length));
 1226               		.loc 3 36 1 is_stmt 0 view .LVU310
 1227 0000 AF92      		push r10
 1228               	.LCFI50:
 1229               		.cfi_def_cfa_offset 3
 1230               		.cfi_offset 10, -2
 1231 0002 BF92      		push r11
 1232               	.LCFI51:
 1233               		.cfi_def_cfa_offset 4
 1234               		.cfi_offset 11, -3
 1235 0004 DF92      		push r13
 1236               	.LCFI52:
 1237               		.cfi_def_cfa_offset 5
 1238               		.cfi_offset 13, -4
 1239 0006 EF92      		push r14
 1240               	.LCFI53:
 1241               		.cfi_def_cfa_offset 6
 1242               		.cfi_offset 14, -5
 1243 0008 FF92      		push r15
 1244               	.LCFI54:
 1245               		.cfi_def_cfa_offset 7
 1246               		.cfi_offset 15, -6
 1247 000a 0F93      		push r16
 1248               	.LCFI55:
 1249               		.cfi_def_cfa_offset 8
 1250               		.cfi_offset 16, -7
 1251 000c 1F93      		push r17
 1252               	.LCFI56:
 1253               		.cfi_def_cfa_offset 9
 1254               		.cfi_offset 17, -8
 1255 000e CF93      		push r28
 1256               	.LCFI57:
 1257               		.cfi_def_cfa_offset 10
 1258               		.cfi_offset 28, -9
 1259 0010 DF93      		push r29
 1260               	.LCFI58:
 1261               		.cfi_def_cfa_offset 11
 1262               		.cfi_offset 29, -10
 1263               	/* prologue: function */
 1264               	/* frame size = 0 */
 1265               	/* stack size = 9 */
 1266               	.L__stack_usage = 9
 1267 0012 8C01      		movw r16,r24
 1268 0014 EB01      		movw r28,r22
 1269 0016 7A01      		movw r14,r20
  37:../../LUFA-111009/LUFA/Drivers/USB/Core/AVR8/Template/Template_Endpoint_RW.c **** 	uint16_t BytesInTransfer = 0;
 1270               		.loc 3 37 2 is_stmt 1 view .LVU311
 1271               	.LVL111:
  38:../../LUFA-111009/LUFA/Drivers/USB/Core/AVR8/Template/Template_Endpoint_RW.c **** 	uint8_t  ErrorCode;
 1272               		.loc 3 38 2 view .LVU312
  39:../../LUFA-111009/LUFA/Drivers/USB/Core/AVR8/Template/Template_Endpoint_RW.c **** 
 1273               		.loc 3 39 2 view .LVU313
  41:../../LUFA-111009/LUFA/Drivers/USB/Core/AVR8/Template/Template_Endpoint_RW.c **** 	  return ErrorCode;
 1274               		.loc 3 41 2 view .LVU314
  41:../../LUFA-111009/LUFA/Drivers/USB/Core/AVR8/Template/Template_Endpoint_RW.c **** 	  return ErrorCode;
 1275               		.loc 3 41 19 is_stmt 0 view .LVU315
 1276 0018 0E94 0000 		call Endpoint_WaitUntilReady
 1277               	.LVL112:
  41:../../LUFA-111009/LUFA/Drivers/USB/Core/AVR8/Template/Template_Endpoint_RW.c **** 	  return ErrorCode;
 1278               		.loc 3 41 19 view .LVU316
 1279 001c D82E      		mov r13,r24
 1280               	.LVL113:
  41:../../LUFA-111009/LUFA/Drivers/USB/Core/AVR8/Template/Template_Endpoint_RW.c **** 	  return ErrorCode;
 1281               		.loc 3 41 5 view .LVU317
 1282 001e 8111      		cpse r24,__zero_reg__
 1283 0020 00C0      		rjmp .L73
  44:../../LUFA-111009/LUFA/Drivers/USB/Core/AVR8/Template/Template_Endpoint_RW.c **** 	{
 1284               		.loc 3 44 2 is_stmt 1 view .LVU318
  44:../../LUFA-111009/LUFA/Drivers/USB/Core/AVR8/Template/Template_Endpoint_RW.c **** 	{
 1285               		.loc 3 44 5 is_stmt 0 view .LVU319
 1286 0022 E114      		cp r14,__zero_reg__
 1287 0024 F104      		cpc r15,__zero_reg__
 1288 0026 01F0      		breq .L75
  46:../../LUFA-111009/LUFA/Drivers/USB/Core/AVR8/Template/Template_Endpoint_RW.c **** 		TEMPLATE_BUFFER_MOVE(DataStream, *BytesProcessed);
 1289               		.loc 3 46 3 is_stmt 1 view .LVU320
  46:../../LUFA-111009/LUFA/Drivers/USB/Core/AVR8/Template/Template_Endpoint_RW.c **** 		TEMPLATE_BUFFER_MOVE(DataStream, *BytesProcessed);
 1290               		.loc 3 46 13 is_stmt 0 view .LVU321
 1291 0028 F701      		movw r30,r14
 1292 002a 8081      		ld r24,Z
 1293 002c 9181      		ldd r25,Z+1
  46:../../LUFA-111009/LUFA/Drivers/USB/Core/AVR8/Template/Template_Endpoint_RW.c **** 		TEMPLATE_BUFFER_MOVE(DataStream, *BytesProcessed);
 1294               		.loc 3 46 10 view .LVU322
 1295 002e C81B      		sub r28,r24
 1296 0030 D90B      		sbc r29,r25
 1297               	.LVL114:
  47:../../LUFA-111009/LUFA/Drivers/USB/Core/AVR8/Template/Template_Endpoint_RW.c **** 	}
 1298               		.loc 3 47 3 is_stmt 1 view .LVU323
 1299 0032 080F      		add r16,r24
 1300 0034 191F      		adc r17,r25
 1301               	.LVL115:
 1302               	.L75:
  36:../../LUFA-111009/LUFA/Drivers/USB/Core/AVR8/Template/Template_Endpoint_RW.c **** 	uint8_t* DataStream      = ((uint8_t*)Buffer + TEMPLATE_BUFFER_OFFSET(Length));
 1303               		.loc 3 36 1 is_stmt 0 view .LVU324
 1304 0036 B12C      		mov r11,__zero_reg__
 1305 0038 A12C      		mov r10,__zero_reg__
 1306               	.LVL116:
 1307               	.L76:
  50:../../LUFA-111009/LUFA/Drivers/USB/Core/AVR8/Template/Template_Endpoint_RW.c **** 	{
 1308               		.loc 3 50 8 is_stmt 1 view .LVU325
 1309 003a 2097      		sbiw r28,0
 1310 003c 01F0      		breq .L73
  52:../../LUFA-111009/LUFA/Drivers/USB/Core/AVR8/Template/Template_Endpoint_RW.c **** 		{
 1311               		.loc 3 52 3 view .LVU326
 1312               	.LBB292:
 1313               	.LBI292:
 418:../../LUFA-111009/LUFA/Drivers/USB/Core/AVR8/../AVR8/../AVR8/Endpoint_AVR8.h **** 			{
 1314               		.loc 2 418 23 view .LVU327
 1315               	.LBB293:
 420:../../LUFA-111009/LUFA/Drivers/USB/Core/AVR8/../AVR8/../AVR8/Endpoint_AVR8.h **** 			}
 1316               		.loc 2 420 5 view .LVU328
 420:../../LUFA-111009/LUFA/Drivers/USB/Core/AVR8/../AVR8/../AVR8/Endpoint_AVR8.h **** 			}
 1317               		.loc 2 420 14 is_stmt 0 view .LVU329
 1318 003e 8091 E800 		lds r24,232
 1319               	.LBE293:
 1320               	.LBE292:
  52:../../LUFA-111009/LUFA/Drivers/USB/Core/AVR8/Template/Template_Endpoint_RW.c **** 		{
 1321               		.loc 3 52 6 view .LVU330
 1322 0042 85FD      		sbrc r24,5
 1323 0044 00C0      		rjmp .L77
  54:../../LUFA-111009/LUFA/Drivers/USB/Core/AVR8/Template/Template_Endpoint_RW.c **** 
 1324               		.loc 3 54 4 is_stmt 1 view .LVU331
 1325               	.LBB294:
 1326               	.LBI294:
 513:../../LUFA-111009/LUFA/Drivers/USB/Core/AVR8/../AVR8/../AVR8/Endpoint_AVR8.h **** 			{
 1327               		.loc 2 513 23 view .LVU332
 1328               	.LBB295:
 516:../../LUFA-111009/LUFA/Drivers/USB/Core/AVR8/../AVR8/../AVR8/Endpoint_AVR8.h **** 				#else
 1329               		.loc 2 516 6 view .LVU333
 516:../../LUFA-111009/LUFA/Drivers/USB/Core/AVR8/../AVR8/../AVR8/Endpoint_AVR8.h **** 				#else
 1330               		.loc 2 516 13 is_stmt 0 view .LVU334
 1331 0046 8091 E800 		lds r24,232
 1332 004a 8E77      		andi r24,lo8(126)
 1333 004c 8093 E800 		sts 232,r24
 1334               	.LBE295:
 1335               	.LBE294:
  57:../../LUFA-111009/LUFA/Drivers/USB/Core/AVR8/Template/Template_Endpoint_RW.c **** 			#endif
 1336               		.loc 3 57 4 is_stmt 1 view .LVU335
 1337 0050 0E94 0000 		call USB_USBTask
 1338               	.LVL117:
  60:../../LUFA-111009/LUFA/Drivers/USB/Core/AVR8/Template/Template_Endpoint_RW.c **** 			{
 1339               		.loc 3 60 4 view .LVU336
  60:../../LUFA-111009/LUFA/Drivers/USB/Core/AVR8/Template/Template_Endpoint_RW.c **** 			{
 1340               		.loc 3 60 7 is_stmt 0 view .LVU337
 1341 0054 E114      		cp r14,__zero_reg__
 1342 0056 F104      		cpc r15,__zero_reg__
 1343 0058 01F0      		breq .L78
  62:../../LUFA-111009/LUFA/Drivers/USB/Core/AVR8/Template/Template_Endpoint_RW.c **** 				return ENDPOINT_RWSTREAM_IncompleteTransfer;
 1344               		.loc 3 62 5 is_stmt 1 view .LVU338
  62:../../LUFA-111009/LUFA/Drivers/USB/Core/AVR8/Template/Template_Endpoint_RW.c **** 				return ENDPOINT_RWSTREAM_IncompleteTransfer;
 1345               		.loc 3 62 21 is_stmt 0 view .LVU339
 1346 005a F701      		movw r30,r14
 1347 005c 8081      		ld r24,Z
 1348 005e 9181      		ldd r25,Z+1
 1349 0060 A80E      		add r10,r24
 1350 0062 B91E      		adc r11,r25
 1351               	.LVL118:
  62:../../LUFA-111009/LUFA/Drivers/USB/Core/AVR8/Template/Template_Endpoint_RW.c **** 				return ENDPOINT_RWSTREAM_IncompleteTransfer;
 1352               		.loc 3 62 21 view .LVU340
 1353 0064 B182      		std Z+1,r11
 1354 0066 A082      		st Z,r10
  63:../../LUFA-111009/LUFA/Drivers/USB/Core/AVR8/Template/Template_Endpoint_RW.c **** 			}
 1355               		.loc 3 63 5 is_stmt 1 view .LVU341
  63:../../LUFA-111009/LUFA/Drivers/USB/Core/AVR8/Template/Template_Endpoint_RW.c **** 			}
 1356               		.loc 3 63 12 is_stmt 0 view .LVU342
 1357 0068 85E0      		ldi r24,lo8(5)
 1358 006a D82E      		mov r13,r24
 1359               	.L73:
 1360               		.loc 3 79 1 view .LVU343
 1361 006c 8D2D      		mov r24,r13
 1362               	/* epilogue start */
 1363 006e DF91      		pop r29
 1364 0070 CF91      		pop r28
 1365               	.LVL119:
 1366               		.loc 3 79 1 view .LVU344
 1367 0072 1F91      		pop r17
 1368 0074 0F91      		pop r16
 1369               	.LVL120:
 1370               		.loc 3 79 1 view .LVU345
 1371 0076 FF90      		pop r15
 1372 0078 EF90      		pop r14
 1373               	.LVL121:
 1374               		.loc 3 79 1 view .LVU346
 1375 007a DF90      		pop r13
 1376 007c BF90      		pop r11
 1377 007e AF90      		pop r10
 1378 0080 0895      		ret
 1379               	.LVL122:
 1380               	.L78:
  66:../../LUFA-111009/LUFA/Drivers/USB/Core/AVR8/Template/Template_Endpoint_RW.c **** 			  return ErrorCode;
 1381               		.loc 3 66 4 is_stmt 1 view .LVU347
  66:../../LUFA-111009/LUFA/Drivers/USB/Core/AVR8/Template/Template_Endpoint_RW.c **** 			  return ErrorCode;
 1382               		.loc 3 66 21 is_stmt 0 view .LVU348
 1383 0082 0E94 0000 		call Endpoint_WaitUntilReady
 1384               	.LVL123:
  66:../../LUFA-111009/LUFA/Drivers/USB/Core/AVR8/Template/Template_Endpoint_RW.c **** 			  return ErrorCode;
 1385               		.loc 3 66 7 view .LVU349
 1386 0086 8823      		tst r24
 1387 0088 01F0      		breq .L76
  66:../../LUFA-111009/LUFA/Drivers/USB/Core/AVR8/Template/Template_Endpoint_RW.c **** 			  return ErrorCode;
 1388               		.loc 3 66 21 view .LVU350
 1389 008a D82E      		mov r13,r24
 1390 008c 00C0      		rjmp .L73
 1391               	.LVL124:
 1392               	.L77:
  71:../../LUFA-111009/LUFA/Drivers/USB/Core/AVR8/Template/Template_Endpoint_RW.c **** 			TEMPLATE_BUFFER_MOVE(DataStream, 1);
 1393               		.loc 3 71 4 is_stmt 1 view .LVU351
 1394               	.LBB296:
  71:../../LUFA-111009/LUFA/Drivers/USB/Core/AVR8/Template/Template_Endpoint_RW.c **** 			TEMPLATE_BUFFER_MOVE(DataStream, 1);
 1395               		.loc 3 71 4 view .LVU352
  71:../../LUFA-111009/LUFA/Drivers/USB/Core/AVR8/Template/Template_Endpoint_RW.c **** 			TEMPLATE_BUFFER_MOVE(DataStream, 1);
 1396               		.loc 3 71 4 view .LVU353
  71:../../LUFA-111009/LUFA/Drivers/USB/Core/AVR8/Template/Template_Endpoint_RW.c **** 			TEMPLATE_BUFFER_MOVE(DataStream, 1);
 1397               		.loc 3 71 4 view .LVU354
 1398 008e F801      		movw r30,r16
 1399               	/* #APP */
 1400               	 ;  71 "../../LUFA-111009/LUFA/Drivers/USB/Core/AVR8/Template/Template_Endpoint_RW.c" 1
 1401 0090 8491      		lpm r24, Z
 1402               		
 1403               	 ;  0 "" 2
 1404               	.LVL125:
  71:../../LUFA-111009/LUFA/Drivers/USB/Core/AVR8/Template/Template_Endpoint_RW.c **** 			TEMPLATE_BUFFER_MOVE(DataStream, 1);
 1405               		.loc 3 71 4 view .LVU355
  71:../../LUFA-111009/LUFA/Drivers/USB/Core/AVR8/Template/Template_Endpoint_RW.c **** 			TEMPLATE_BUFFER_MOVE(DataStream, 1);
 1406               		.loc 3 71 4 is_stmt 0 view .LVU356
 1407               	/* #NOAPP */
 1408               	.LBE296:
 1409               	.LBB297:
 1410               	.LBI297:
 622:../../LUFA-111009/LUFA/Drivers/USB/Core/AVR8/../AVR8/../AVR8/Endpoint_AVR8.h **** 			{
 1411               		.loc 2 622 23 is_stmt 1 view .LVU357
 1412               	.LBB298:
 624:../../LUFA-111009/LUFA/Drivers/USB/Core/AVR8/../AVR8/../AVR8/Endpoint_AVR8.h **** 			}
 1413               		.loc 2 624 5 view .LVU358
 624:../../LUFA-111009/LUFA/Drivers/USB/Core/AVR8/../AVR8/../AVR8/Endpoint_AVR8.h **** 			}
 1414               		.loc 2 624 12 is_stmt 0 view .LVU359
 1415 0092 8093 F100 		sts 241,r24
 1416               	.LVL126:
 624:../../LUFA-111009/LUFA/Drivers/USB/Core/AVR8/../AVR8/../AVR8/Endpoint_AVR8.h **** 			}
 1417               		.loc 2 624 12 view .LVU360
 1418               	.LBE298:
 1419               	.LBE297:
  72:../../LUFA-111009/LUFA/Drivers/USB/Core/AVR8/Template/Template_Endpoint_RW.c **** 			Length--;
 1420               		.loc 3 72 4 is_stmt 1 view .LVU361
 1421 0096 0F5F      		subi r16,-1
 1422 0098 1F4F      		sbci r17,-1
 1423               	.LVL127:
  73:../../LUFA-111009/LUFA/Drivers/USB/Core/AVR8/Template/Template_Endpoint_RW.c **** 			BytesInTransfer++;
 1424               		.loc 3 73 4 view .LVU362
  73:../../LUFA-111009/LUFA/Drivers/USB/Core/AVR8/Template/Template_Endpoint_RW.c **** 			BytesInTransfer++;
 1425               		.loc 3 73 10 is_stmt 0 view .LVU363
 1426 009a 2197      		sbiw r28,1
 1427               	.LVL128:
  74:../../LUFA-111009/LUFA/Drivers/USB/Core/AVR8/Template/Template_Endpoint_RW.c **** 		}
 1428               		.loc 3 74 4 is_stmt 1 view .LVU364
  74:../../LUFA-111009/LUFA/Drivers/USB/Core/AVR8/Template/Template_Endpoint_RW.c **** 		}
 1429               		.loc 3 74 19 is_stmt 0 view .LVU365
 1430 009c FFEF      		ldi r31,-1
 1431 009e AF1A      		sub r10,r31
 1432 00a0 BF0A      		sbc r11,r31
 1433               	.LVL129:
  74:../../LUFA-111009/LUFA/Drivers/USB/Core/AVR8/Template/Template_Endpoint_RW.c **** 		}
 1434               		.loc 3 74 19 view .LVU366
 1435 00a2 00C0      		rjmp .L76
 1436               		.cfi_endproc
 1437               	.LFE87:
 1439               		.section	.text.Endpoint_Write_PStream_BE,"ax",@progbits
 1440               	.global	Endpoint_Write_PStream_BE
 1442               	Endpoint_Write_PStream_BE:
 1443               	.LVL130:
 1444               	.LFB88:
  36:../../LUFA-111009/LUFA/Drivers/USB/Core/AVR8/Template/Template_Endpoint_RW.c **** 	uint8_t* DataStream      = ((uint8_t*)Buffer + TEMPLATE_BUFFER_OFFSET(Length));
 1445               		.loc 3 36 1 is_stmt 1 view -0
 1446               		.cfi_startproc
  36:../../LUFA-111009/LUFA/Drivers/USB/Core/AVR8/Template/Template_Endpoint_RW.c **** 	uint8_t* DataStream      = ((uint8_t*)Buffer + TEMPLATE_BUFFER_OFFSET(Length));
 1447               		.loc 3 36 1 is_stmt 0 view .LVU368
 1448 0000 AF92      		push r10
 1449               	.LCFI59:
 1450               		.cfi_def_cfa_offset 3
 1451               		.cfi_offset 10, -2
 1452 0002 BF92      		push r11
 1453               	.LCFI60:
 1454               		.cfi_def_cfa_offset 4
 1455               		.cfi_offset 11, -3
 1456 0004 DF92      		push r13
 1457               	.LCFI61:
 1458               		.cfi_def_cfa_offset 5
 1459               		.cfi_offset 13, -4
 1460 0006 EF92      		push r14
 1461               	.LCFI62:
 1462               		.cfi_def_cfa_offset 6
 1463               		.cfi_offset 14, -5
 1464 0008 FF92      		push r15
 1465               	.LCFI63:
 1466               		.cfi_def_cfa_offset 7
 1467               		.cfi_offset 15, -6
 1468 000a 0F93      		push r16
 1469               	.LCFI64:
 1470               		.cfi_def_cfa_offset 8
 1471               		.cfi_offset 16, -7
 1472 000c 1F93      		push r17
 1473               	.LCFI65:
 1474               		.cfi_def_cfa_offset 9
 1475               		.cfi_offset 17, -8
 1476 000e CF93      		push r28
 1477               	.LCFI66:
 1478               		.cfi_def_cfa_offset 10
 1479               		.cfi_offset 28, -9
 1480 0010 DF93      		push r29
 1481               	.LCFI67:
 1482               		.cfi_def_cfa_offset 11
 1483               		.cfi_offset 29, -10
 1484               	/* prologue: function */
 1485               	/* frame size = 0 */
 1486               	/* stack size = 9 */
 1487               	.L__stack_usage = 9
 1488 0012 EC01      		movw r28,r24
 1489 0014 8B01      		movw r16,r22
 1490 0016 7A01      		movw r14,r20
  37:../../LUFA-111009/LUFA/Drivers/USB/Core/AVR8/Template/Template_Endpoint_RW.c **** 	uint16_t BytesInTransfer = 0;
 1491               		.loc 3 37 2 is_stmt 1 view .LVU369
 1492               	.LVL131:
  38:../../LUFA-111009/LUFA/Drivers/USB/Core/AVR8/Template/Template_Endpoint_RW.c **** 	uint8_t  ErrorCode;
 1493               		.loc 3 38 2 view .LVU370
  39:../../LUFA-111009/LUFA/Drivers/USB/Core/AVR8/Template/Template_Endpoint_RW.c **** 
 1494               		.loc 3 39 2 view .LVU371
  41:../../LUFA-111009/LUFA/Drivers/USB/Core/AVR8/Template/Template_Endpoint_RW.c **** 	  return ErrorCode;
 1495               		.loc 3 41 2 view .LVU372
  41:../../LUFA-111009/LUFA/Drivers/USB/Core/AVR8/Template/Template_Endpoint_RW.c **** 	  return ErrorCode;
 1496               		.loc 3 41 19 is_stmt 0 view .LVU373
 1497 0018 0E94 0000 		call Endpoint_WaitUntilReady
 1498               	.LVL132:
  41:../../LUFA-111009/LUFA/Drivers/USB/Core/AVR8/Template/Template_Endpoint_RW.c **** 	  return ErrorCode;
 1499               		.loc 3 41 19 view .LVU374
 1500 001c D82E      		mov r13,r24
 1501               	.LVL133:
  41:../../LUFA-111009/LUFA/Drivers/USB/Core/AVR8/Template/Template_Endpoint_RW.c **** 	  return ErrorCode;
 1502               		.loc 3 41 5 view .LVU375
 1503 001e 8111      		cpse r24,__zero_reg__
 1504 0020 00C0      		rjmp .L85
  37:../../LUFA-111009/LUFA/Drivers/USB/Core/AVR8/Template/Template_Endpoint_RW.c **** 	uint16_t BytesInTransfer = 0;
 1505               		.loc 3 37 47 view .LVU376
 1506 0022 C801      		movw r24,r16
 1507 0024 0197      		sbiw r24,1
 1508               	.LVL134:
  37:../../LUFA-111009/LUFA/Drivers/USB/Core/AVR8/Template/Template_Endpoint_RW.c **** 	uint16_t BytesInTransfer = 0;
 1509               		.loc 3 37 11 view .LVU377
 1510 0026 C80F      		add r28,r24
 1511 0028 D91F      		adc r29,r25
 1512               	.LVL135:
  44:../../LUFA-111009/LUFA/Drivers/USB/Core/AVR8/Template/Template_Endpoint_RW.c **** 	{
 1513               		.loc 3 44 2 is_stmt 1 view .LVU378
  44:../../LUFA-111009/LUFA/Drivers/USB/Core/AVR8/Template/Template_Endpoint_RW.c **** 	{
 1514               		.loc 3 44 5 is_stmt 0 view .LVU379
 1515 002a E114      		cp r14,__zero_reg__
 1516 002c F104      		cpc r15,__zero_reg__
 1517 002e 01F0      		breq .L87
  46:../../LUFA-111009/LUFA/Drivers/USB/Core/AVR8/Template/Template_Endpoint_RW.c **** 		TEMPLATE_BUFFER_MOVE(DataStream, *BytesProcessed);
 1518               		.loc 3 46 3 is_stmt 1 view .LVU380
  46:../../LUFA-111009/LUFA/Drivers/USB/Core/AVR8/Template/Template_Endpoint_RW.c **** 		TEMPLATE_BUFFER_MOVE(DataStream, *BytesProcessed);
 1519               		.loc 3 46 13 is_stmt 0 view .LVU381
 1520 0030 F701      		movw r30,r14
 1521 0032 8081      		ld r24,Z
 1522 0034 9181      		ldd r25,Z+1
 1523               	.LVL136:
  46:../../LUFA-111009/LUFA/Drivers/USB/Core/AVR8/Template/Template_Endpoint_RW.c **** 		TEMPLATE_BUFFER_MOVE(DataStream, *BytesProcessed);
 1524               		.loc 3 46 10 view .LVU382
 1525 0036 081B      		sub r16,r24
 1526 0038 190B      		sbc r17,r25
 1527               	.LVL137:
  47:../../LUFA-111009/LUFA/Drivers/USB/Core/AVR8/Template/Template_Endpoint_RW.c **** 	}
 1528               		.loc 3 47 3 is_stmt 1 view .LVU383
 1529 003a C81B      		sub r28,r24
 1530 003c D90B      		sbc r29,r25
 1531               	.LVL138:
 1532               	.L87:
  36:../../LUFA-111009/LUFA/Drivers/USB/Core/AVR8/Template/Template_Endpoint_RW.c **** 	uint8_t* DataStream      = ((uint8_t*)Buffer + TEMPLATE_BUFFER_OFFSET(Length));
 1533               		.loc 3 36 1 is_stmt 0 view .LVU384
 1534 003e B12C      		mov r11,__zero_reg__
 1535 0040 A12C      		mov r10,__zero_reg__
 1536               	.LVL139:
 1537               	.L88:
  50:../../LUFA-111009/LUFA/Drivers/USB/Core/AVR8/Template/Template_Endpoint_RW.c **** 	{
 1538               		.loc 3 50 8 is_stmt 1 view .LVU385
 1539 0042 0115      		cp r16,__zero_reg__
 1540 0044 1105      		cpc r17,__zero_reg__
 1541 0046 01F0      		breq .L85
  52:../../LUFA-111009/LUFA/Drivers/USB/Core/AVR8/Template/Template_Endpoint_RW.c **** 		{
 1542               		.loc 3 52 3 view .LVU386
 1543               	.LBB299:
 1544               	.LBI299:
 418:../../LUFA-111009/LUFA/Drivers/USB/Core/AVR8/../AVR8/../AVR8/Endpoint_AVR8.h **** 			{
 1545               		.loc 2 418 23 view .LVU387
 1546               	.LBB300:
 420:../../LUFA-111009/LUFA/Drivers/USB/Core/AVR8/../AVR8/../AVR8/Endpoint_AVR8.h **** 			}
 1547               		.loc 2 420 5 view .LVU388
 420:../../LUFA-111009/LUFA/Drivers/USB/Core/AVR8/../AVR8/../AVR8/Endpoint_AVR8.h **** 			}
 1548               		.loc 2 420 14 is_stmt 0 view .LVU389
 1549 0048 8091 E800 		lds r24,232
 1550               	.LBE300:
 1551               	.LBE299:
  52:../../LUFA-111009/LUFA/Drivers/USB/Core/AVR8/Template/Template_Endpoint_RW.c **** 		{
 1552               		.loc 3 52 6 view .LVU390
 1553 004c 85FD      		sbrc r24,5
 1554 004e 00C0      		rjmp .L89
  54:../../LUFA-111009/LUFA/Drivers/USB/Core/AVR8/Template/Template_Endpoint_RW.c **** 
 1555               		.loc 3 54 4 is_stmt 1 view .LVU391
 1556               	.LBB301:
 1557               	.LBI301:
 513:../../LUFA-111009/LUFA/Drivers/USB/Core/AVR8/../AVR8/../AVR8/Endpoint_AVR8.h **** 			{
 1558               		.loc 2 513 23 view .LVU392
 1559               	.LBB302:
 516:../../LUFA-111009/LUFA/Drivers/USB/Core/AVR8/../AVR8/../AVR8/Endpoint_AVR8.h **** 				#else
 1560               		.loc 2 516 6 view .LVU393
 516:../../LUFA-111009/LUFA/Drivers/USB/Core/AVR8/../AVR8/../AVR8/Endpoint_AVR8.h **** 				#else
 1561               		.loc 2 516 13 is_stmt 0 view .LVU394
 1562 0050 8091 E800 		lds r24,232
 1563 0054 8E77      		andi r24,lo8(126)
 1564 0056 8093 E800 		sts 232,r24
 1565               	.LBE302:
 1566               	.LBE301:
  57:../../LUFA-111009/LUFA/Drivers/USB/Core/AVR8/Template/Template_Endpoint_RW.c **** 			#endif
 1567               		.loc 3 57 4 is_stmt 1 view .LVU395
 1568 005a 0E94 0000 		call USB_USBTask
 1569               	.LVL140:
  60:../../LUFA-111009/LUFA/Drivers/USB/Core/AVR8/Template/Template_Endpoint_RW.c **** 			{
 1570               		.loc 3 60 4 view .LVU396
  60:../../LUFA-111009/LUFA/Drivers/USB/Core/AVR8/Template/Template_Endpoint_RW.c **** 			{
 1571               		.loc 3 60 7 is_stmt 0 view .LVU397
 1572 005e E114      		cp r14,__zero_reg__
 1573 0060 F104      		cpc r15,__zero_reg__
 1574 0062 01F0      		breq .L90
  62:../../LUFA-111009/LUFA/Drivers/USB/Core/AVR8/Template/Template_Endpoint_RW.c **** 				return ENDPOINT_RWSTREAM_IncompleteTransfer;
 1575               		.loc 3 62 5 is_stmt 1 view .LVU398
  62:../../LUFA-111009/LUFA/Drivers/USB/Core/AVR8/Template/Template_Endpoint_RW.c **** 				return ENDPOINT_RWSTREAM_IncompleteTransfer;
 1576               		.loc 3 62 21 is_stmt 0 view .LVU399
 1577 0064 F701      		movw r30,r14
 1578 0066 8081      		ld r24,Z
 1579 0068 9181      		ldd r25,Z+1
 1580 006a A80E      		add r10,r24
 1581 006c B91E      		adc r11,r25
 1582               	.LVL141:
  62:../../LUFA-111009/LUFA/Drivers/USB/Core/AVR8/Template/Template_Endpoint_RW.c **** 				return ENDPOINT_RWSTREAM_IncompleteTransfer;
 1583               		.loc 3 62 21 view .LVU400
 1584 006e B182      		std Z+1,r11
 1585 0070 A082      		st Z,r10
  63:../../LUFA-111009/LUFA/Drivers/USB/Core/AVR8/Template/Template_Endpoint_RW.c **** 			}
 1586               		.loc 3 63 5 is_stmt 1 view .LVU401
  63:../../LUFA-111009/LUFA/Drivers/USB/Core/AVR8/Template/Template_Endpoint_RW.c **** 			}
 1587               		.loc 3 63 12 is_stmt 0 view .LVU402
 1588 0072 85E0      		ldi r24,lo8(5)
 1589 0074 D82E      		mov r13,r24
 1590               	.LVL142:
 1591               	.L85:
 1592               		.loc 3 79 1 view .LVU403
 1593 0076 8D2D      		mov r24,r13
 1594               	/* epilogue start */
 1595 0078 DF91      		pop r29
 1596 007a CF91      		pop r28
 1597 007c 1F91      		pop r17
 1598 007e 0F91      		pop r16
 1599               	.LVL143:
 1600               		.loc 3 79 1 view .LVU404
 1601 0080 FF90      		pop r15
 1602 0082 EF90      		pop r14
 1603               	.LVL144:
 1604               		.loc 3 79 1 view .LVU405
 1605 0084 DF90      		pop r13
 1606 0086 BF90      		pop r11
 1607 0088 AF90      		pop r10
 1608 008a 0895      		ret
 1609               	.LVL145:
 1610               	.L90:
  66:../../LUFA-111009/LUFA/Drivers/USB/Core/AVR8/Template/Template_Endpoint_RW.c **** 			  return ErrorCode;
 1611               		.loc 3 66 4 is_stmt 1 view .LVU406
  66:../../LUFA-111009/LUFA/Drivers/USB/Core/AVR8/Template/Template_Endpoint_RW.c **** 			  return ErrorCode;
 1612               		.loc 3 66 21 is_stmt 0 view .LVU407
 1613 008c 0E94 0000 		call Endpoint_WaitUntilReady
 1614               	.LVL146:
  66:../../LUFA-111009/LUFA/Drivers/USB/Core/AVR8/Template/Template_Endpoint_RW.c **** 			  return ErrorCode;
 1615               		.loc 3 66 7 view .LVU408
 1616 0090 8823      		tst r24
 1617 0092 01F0      		breq .L88
  66:../../LUFA-111009/LUFA/Drivers/USB/Core/AVR8/Template/Template_Endpoint_RW.c **** 			  return ErrorCode;
 1618               		.loc 3 66 21 view .LVU409
 1619 0094 D82E      		mov r13,r24
 1620 0096 00C0      		rjmp .L85
 1621               	.LVL147:
 1622               	.L89:
  71:../../LUFA-111009/LUFA/Drivers/USB/Core/AVR8/Template/Template_Endpoint_RW.c **** 			TEMPLATE_BUFFER_MOVE(DataStream, 1);
 1623               		.loc 3 71 4 is_stmt 1 view .LVU410
 1624               	.LBB303:
  71:../../LUFA-111009/LUFA/Drivers/USB/Core/AVR8/Template/Template_Endpoint_RW.c **** 			TEMPLATE_BUFFER_MOVE(DataStream, 1);
 1625               		.loc 3 71 4 view .LVU411
  71:../../LUFA-111009/LUFA/Drivers/USB/Core/AVR8/Template/Template_Endpoint_RW.c **** 			TEMPLATE_BUFFER_MOVE(DataStream, 1);
 1626               		.loc 3 71 4 view .LVU412
  71:../../LUFA-111009/LUFA/Drivers/USB/Core/AVR8/Template/Template_Endpoint_RW.c **** 			TEMPLATE_BUFFER_MOVE(DataStream, 1);
 1627               		.loc 3 71 4 view .LVU413
 1628 0098 FE01      		movw r30,r28
 1629               	/* #APP */
 1630               	 ;  71 "../../LUFA-111009/LUFA/Drivers/USB/Core/AVR8/Template/Template_Endpoint_RW.c" 1
 1631 009a 8491      		lpm r24, Z
 1632               		
 1633               	 ;  0 "" 2
 1634               	.LVL148:
  71:../../LUFA-111009/LUFA/Drivers/USB/Core/AVR8/Template/Template_Endpoint_RW.c **** 			TEMPLATE_BUFFER_MOVE(DataStream, 1);
 1635               		.loc 3 71 4 view .LVU414
  71:../../LUFA-111009/LUFA/Drivers/USB/Core/AVR8/Template/Template_Endpoint_RW.c **** 			TEMPLATE_BUFFER_MOVE(DataStream, 1);
 1636               		.loc 3 71 4 is_stmt 0 view .LVU415
 1637               	/* #NOAPP */
 1638               	.LBE303:
 1639               	.LBB304:
 1640               	.LBI304:
 622:../../LUFA-111009/LUFA/Drivers/USB/Core/AVR8/../AVR8/../AVR8/Endpoint_AVR8.h **** 			{
 1641               		.loc 2 622 23 is_stmt 1 view .LVU416
 1642               	.LBB305:
 624:../../LUFA-111009/LUFA/Drivers/USB/Core/AVR8/../AVR8/../AVR8/Endpoint_AVR8.h **** 			}
 1643               		.loc 2 624 5 view .LVU417
 624:../../LUFA-111009/LUFA/Drivers/USB/Core/AVR8/../AVR8/../AVR8/Endpoint_AVR8.h **** 			}
 1644               		.loc 2 624 12 is_stmt 0 view .LVU418
 1645 009c 8093 F100 		sts 241,r24
 1646               	.LVL149:
 624:../../LUFA-111009/LUFA/Drivers/USB/Core/AVR8/../AVR8/../AVR8/Endpoint_AVR8.h **** 			}
 1647               		.loc 2 624 12 view .LVU419
 1648               	.LBE305:
 1649               	.LBE304:
  72:../../LUFA-111009/LUFA/Drivers/USB/Core/AVR8/Template/Template_Endpoint_RW.c **** 			Length--;
 1650               		.loc 3 72 4 is_stmt 1 view .LVU420
 1651 00a0 2197      		sbiw r28,1
 1652               	.LVL150:
  73:../../LUFA-111009/LUFA/Drivers/USB/Core/AVR8/Template/Template_Endpoint_RW.c **** 			BytesInTransfer++;
 1653               		.loc 3 73 4 view .LVU421
  73:../../LUFA-111009/LUFA/Drivers/USB/Core/AVR8/Template/Template_Endpoint_RW.c **** 			BytesInTransfer++;
 1654               		.loc 3 73 10 is_stmt 0 view .LVU422
 1655 00a2 0150      		subi r16,1
 1656 00a4 1109      		sbc r17,__zero_reg__
 1657               	.LVL151:
  74:../../LUFA-111009/LUFA/Drivers/USB/Core/AVR8/Template/Template_Endpoint_RW.c **** 		}
 1658               		.loc 3 74 4 is_stmt 1 view .LVU423
  74:../../LUFA-111009/LUFA/Drivers/USB/Core/AVR8/Template/Template_Endpoint_RW.c **** 		}
 1659               		.loc 3 74 19 is_stmt 0 view .LVU424
 1660 00a6 FFEF      		ldi r31,-1
 1661 00a8 AF1A      		sub r10,r31
 1662 00aa BF0A      		sbc r11,r31
 1663               	.LVL152:
  74:../../LUFA-111009/LUFA/Drivers/USB/Core/AVR8/Template/Template_Endpoint_RW.c **** 		}
 1664               		.loc 3 74 19 view .LVU425
 1665 00ac 00C0      		rjmp .L88
 1666               		.cfi_endproc
 1667               	.LFE88:
 1669               		.section	.text.Endpoint_Write_EStream_LE,"ax",@progbits
 1670               	.global	Endpoint_Write_EStream_LE
 1672               	Endpoint_Write_EStream_LE:
 1673               	.LVL153:
 1674               	.LFB89:
  36:../../LUFA-111009/LUFA/Drivers/USB/Core/AVR8/Template/Template_Endpoint_RW.c **** 	uint8_t* DataStream      = ((uint8_t*)Buffer + TEMPLATE_BUFFER_OFFSET(Length));
 1675               		.loc 3 36 1 is_stmt 1 view -0
 1676               		.cfi_startproc
  36:../../LUFA-111009/LUFA/Drivers/USB/Core/AVR8/Template/Template_Endpoint_RW.c **** 	uint8_t* DataStream      = ((uint8_t*)Buffer + TEMPLATE_BUFFER_OFFSET(Length));
 1677               		.loc 3 36 1 is_stmt 0 view .LVU427
 1678 0000 AF92      		push r10
 1679               	.LCFI68:
 1680               		.cfi_def_cfa_offset 3
 1681               		.cfi_offset 10, -2
 1682 0002 BF92      		push r11
 1683               	.LCFI69:
 1684               		.cfi_def_cfa_offset 4
 1685               		.cfi_offset 11, -3
 1686 0004 DF92      		push r13
 1687               	.LCFI70:
 1688               		.cfi_def_cfa_offset 5
 1689               		.cfi_offset 13, -4
 1690 0006 EF92      		push r14
 1691               	.LCFI71:
 1692               		.cfi_def_cfa_offset 6
 1693               		.cfi_offset 14, -5
 1694 0008 FF92      		push r15
 1695               	.LCFI72:
 1696               		.cfi_def_cfa_offset 7
 1697               		.cfi_offset 15, -6
 1698 000a 0F93      		push r16
 1699               	.LCFI73:
 1700               		.cfi_def_cfa_offset 8
 1701               		.cfi_offset 16, -7
 1702 000c 1F93      		push r17
 1703               	.LCFI74:
 1704               		.cfi_def_cfa_offset 9
 1705               		.cfi_offset 17, -8
 1706 000e CF93      		push r28
 1707               	.LCFI75:
 1708               		.cfi_def_cfa_offset 10
 1709               		.cfi_offset 28, -9
 1710 0010 DF93      		push r29
 1711               	.LCFI76:
 1712               		.cfi_def_cfa_offset 11
 1713               		.cfi_offset 29, -10
 1714               	/* prologue: function */
 1715               	/* frame size = 0 */
 1716               	/* stack size = 9 */
 1717               	.L__stack_usage = 9
 1718 0012 8C01      		movw r16,r24
 1719 0014 EB01      		movw r28,r22
 1720 0016 7A01      		movw r14,r20
  37:../../LUFA-111009/LUFA/Drivers/USB/Core/AVR8/Template/Template_Endpoint_RW.c **** 	uint16_t BytesInTransfer = 0;
 1721               		.loc 3 37 2 is_stmt 1 view .LVU428
 1722               	.LVL154:
  38:../../LUFA-111009/LUFA/Drivers/USB/Core/AVR8/Template/Template_Endpoint_RW.c **** 	uint8_t  ErrorCode;
 1723               		.loc 3 38 2 view .LVU429
  39:../../LUFA-111009/LUFA/Drivers/USB/Core/AVR8/Template/Template_Endpoint_RW.c **** 
 1724               		.loc 3 39 2 view .LVU430
  41:../../LUFA-111009/LUFA/Drivers/USB/Core/AVR8/Template/Template_Endpoint_RW.c **** 	  return ErrorCode;
 1725               		.loc 3 41 2 view .LVU431
  41:../../LUFA-111009/LUFA/Drivers/USB/Core/AVR8/Template/Template_Endpoint_RW.c **** 	  return ErrorCode;
 1726               		.loc 3 41 19 is_stmt 0 view .LVU432
 1727 0018 0E94 0000 		call Endpoint_WaitUntilReady
 1728               	.LVL155:
  41:../../LUFA-111009/LUFA/Drivers/USB/Core/AVR8/Template/Template_Endpoint_RW.c **** 	  return ErrorCode;
 1729               		.loc 3 41 19 view .LVU433
 1730 001c D82E      		mov r13,r24
 1731               	.LVL156:
  41:../../LUFA-111009/LUFA/Drivers/USB/Core/AVR8/Template/Template_Endpoint_RW.c **** 	  return ErrorCode;
 1732               		.loc 3 41 5 view .LVU434
 1733 001e 8111      		cpse r24,__zero_reg__
 1734 0020 00C0      		rjmp .L97
  44:../../LUFA-111009/LUFA/Drivers/USB/Core/AVR8/Template/Template_Endpoint_RW.c **** 	{
 1735               		.loc 3 44 2 is_stmt 1 view .LVU435
  44:../../LUFA-111009/LUFA/Drivers/USB/Core/AVR8/Template/Template_Endpoint_RW.c **** 	{
 1736               		.loc 3 44 5 is_stmt 0 view .LVU436
 1737 0022 E114      		cp r14,__zero_reg__
 1738 0024 F104      		cpc r15,__zero_reg__
 1739 0026 01F0      		breq .L99
  46:../../LUFA-111009/LUFA/Drivers/USB/Core/AVR8/Template/Template_Endpoint_RW.c **** 		TEMPLATE_BUFFER_MOVE(DataStream, *BytesProcessed);
 1740               		.loc 3 46 3 is_stmt 1 view .LVU437
  46:../../LUFA-111009/LUFA/Drivers/USB/Core/AVR8/Template/Template_Endpoint_RW.c **** 		TEMPLATE_BUFFER_MOVE(DataStream, *BytesProcessed);
 1741               		.loc 3 46 13 is_stmt 0 view .LVU438
 1742 0028 F701      		movw r30,r14
 1743 002a 8081      		ld r24,Z
 1744 002c 9181      		ldd r25,Z+1
  46:../../LUFA-111009/LUFA/Drivers/USB/Core/AVR8/Template/Template_Endpoint_RW.c **** 		TEMPLATE_BUFFER_MOVE(DataStream, *BytesProcessed);
 1745               		.loc 3 46 10 view .LVU439
 1746 002e C81B      		sub r28,r24
 1747 0030 D90B      		sbc r29,r25
 1748               	.LVL157:
  47:../../LUFA-111009/LUFA/Drivers/USB/Core/AVR8/Template/Template_Endpoint_RW.c **** 	}
 1749               		.loc 3 47 3 is_stmt 1 view .LVU440
 1750 0032 080F      		add r16,r24
 1751 0034 191F      		adc r17,r25
 1752               	.LVL158:
 1753               	.L99:
  36:../../LUFA-111009/LUFA/Drivers/USB/Core/AVR8/Template/Template_Endpoint_RW.c **** 	uint8_t* DataStream      = ((uint8_t*)Buffer + TEMPLATE_BUFFER_OFFSET(Length));
 1754               		.loc 3 36 1 is_stmt 0 view .LVU441
 1755 0036 B12C      		mov r11,__zero_reg__
 1756 0038 A12C      		mov r10,__zero_reg__
 1757               	.LVL159:
 1758               	.L100:
  50:../../LUFA-111009/LUFA/Drivers/USB/Core/AVR8/Template/Template_Endpoint_RW.c **** 	{
 1759               		.loc 3 50 8 is_stmt 1 view .LVU442
 1760 003a 2097      		sbiw r28,0
 1761 003c 01F0      		breq .L97
  52:../../LUFA-111009/LUFA/Drivers/USB/Core/AVR8/Template/Template_Endpoint_RW.c **** 		{
 1762               		.loc 3 52 3 view .LVU443
 1763               	.LBB306:
 1764               	.LBI306:
 418:../../LUFA-111009/LUFA/Drivers/USB/Core/AVR8/../AVR8/../AVR8/Endpoint_AVR8.h **** 			{
 1765               		.loc 2 418 23 view .LVU444
 1766               	.LBB307:
 420:../../LUFA-111009/LUFA/Drivers/USB/Core/AVR8/../AVR8/../AVR8/Endpoint_AVR8.h **** 			}
 1767               		.loc 2 420 5 view .LVU445
 420:../../LUFA-111009/LUFA/Drivers/USB/Core/AVR8/../AVR8/../AVR8/Endpoint_AVR8.h **** 			}
 1768               		.loc 2 420 14 is_stmt 0 view .LVU446
 1769 003e 8091 E800 		lds r24,232
 1770               	.LBE307:
 1771               	.LBE306:
  52:../../LUFA-111009/LUFA/Drivers/USB/Core/AVR8/Template/Template_Endpoint_RW.c **** 		{
 1772               		.loc 3 52 6 view .LVU447
 1773 0042 85FD      		sbrc r24,5
 1774 0044 00C0      		rjmp .L101
  54:../../LUFA-111009/LUFA/Drivers/USB/Core/AVR8/Template/Template_Endpoint_RW.c **** 
 1775               		.loc 3 54 4 is_stmt 1 view .LVU448
 1776               	.LBB308:
 1777               	.LBI308:
 513:../../LUFA-111009/LUFA/Drivers/USB/Core/AVR8/../AVR8/../AVR8/Endpoint_AVR8.h **** 			{
 1778               		.loc 2 513 23 view .LVU449
 1779               	.LBB309:
 516:../../LUFA-111009/LUFA/Drivers/USB/Core/AVR8/../AVR8/../AVR8/Endpoint_AVR8.h **** 				#else
 1780               		.loc 2 516 6 view .LVU450
 516:../../LUFA-111009/LUFA/Drivers/USB/Core/AVR8/../AVR8/../AVR8/Endpoint_AVR8.h **** 				#else
 1781               		.loc 2 516 13 is_stmt 0 view .LVU451
 1782 0046 8091 E800 		lds r24,232
 1783 004a 8E77      		andi r24,lo8(126)
 1784 004c 8093 E800 		sts 232,r24
 1785               	.LBE309:
 1786               	.LBE308:
  57:../../LUFA-111009/LUFA/Drivers/USB/Core/AVR8/Template/Template_Endpoint_RW.c **** 			#endif
 1787               		.loc 3 57 4 is_stmt 1 view .LVU452
 1788 0050 0E94 0000 		call USB_USBTask
 1789               	.LVL160:
  60:../../LUFA-111009/LUFA/Drivers/USB/Core/AVR8/Template/Template_Endpoint_RW.c **** 			{
 1790               		.loc 3 60 4 view .LVU453
  60:../../LUFA-111009/LUFA/Drivers/USB/Core/AVR8/Template/Template_Endpoint_RW.c **** 			{
 1791               		.loc 3 60 7 is_stmt 0 view .LVU454
 1792 0054 E114      		cp r14,__zero_reg__
 1793 0056 F104      		cpc r15,__zero_reg__
 1794 0058 01F0      		breq .L102
  62:../../LUFA-111009/LUFA/Drivers/USB/Core/AVR8/Template/Template_Endpoint_RW.c **** 				return ENDPOINT_RWSTREAM_IncompleteTransfer;
 1795               		.loc 3 62 5 is_stmt 1 view .LVU455
  62:../../LUFA-111009/LUFA/Drivers/USB/Core/AVR8/Template/Template_Endpoint_RW.c **** 				return ENDPOINT_RWSTREAM_IncompleteTransfer;
 1796               		.loc 3 62 21 is_stmt 0 view .LVU456
 1797 005a F701      		movw r30,r14
 1798 005c 8081      		ld r24,Z
 1799 005e 9181      		ldd r25,Z+1
 1800 0060 A80E      		add r10,r24
 1801 0062 B91E      		adc r11,r25
 1802               	.LVL161:
  62:../../LUFA-111009/LUFA/Drivers/USB/Core/AVR8/Template/Template_Endpoint_RW.c **** 				return ENDPOINT_RWSTREAM_IncompleteTransfer;
 1803               		.loc 3 62 21 view .LVU457
 1804 0064 B182      		std Z+1,r11
 1805 0066 A082      		st Z,r10
  63:../../LUFA-111009/LUFA/Drivers/USB/Core/AVR8/Template/Template_Endpoint_RW.c **** 			}
 1806               		.loc 3 63 5 is_stmt 1 view .LVU458
  63:../../LUFA-111009/LUFA/Drivers/USB/Core/AVR8/Template/Template_Endpoint_RW.c **** 			}
 1807               		.loc 3 63 12 is_stmt 0 view .LVU459
 1808 0068 85E0      		ldi r24,lo8(5)
 1809 006a D82E      		mov r13,r24
 1810               	.L97:
 1811               		.loc 3 79 1 view .LVU460
 1812 006c 8D2D      		mov r24,r13
 1813               	/* epilogue start */
 1814 006e DF91      		pop r29
 1815 0070 CF91      		pop r28
 1816               	.LVL162:
 1817               		.loc 3 79 1 view .LVU461
 1818 0072 1F91      		pop r17
 1819 0074 0F91      		pop r16
 1820               	.LVL163:
 1821               		.loc 3 79 1 view .LVU462
 1822 0076 FF90      		pop r15
 1823 0078 EF90      		pop r14
 1824               	.LVL164:
 1825               		.loc 3 79 1 view .LVU463
 1826 007a DF90      		pop r13
 1827 007c BF90      		pop r11
 1828 007e AF90      		pop r10
 1829 0080 0895      		ret
 1830               	.LVL165:
 1831               	.L102:
  66:../../LUFA-111009/LUFA/Drivers/USB/Core/AVR8/Template/Template_Endpoint_RW.c **** 			  return ErrorCode;
 1832               		.loc 3 66 4 is_stmt 1 view .LVU464
  66:../../LUFA-111009/LUFA/Drivers/USB/Core/AVR8/Template/Template_Endpoint_RW.c **** 			  return ErrorCode;
 1833               		.loc 3 66 21 is_stmt 0 view .LVU465
 1834 0082 0E94 0000 		call Endpoint_WaitUntilReady
 1835               	.LVL166:
  66:../../LUFA-111009/LUFA/Drivers/USB/Core/AVR8/Template/Template_Endpoint_RW.c **** 			  return ErrorCode;
 1836               		.loc 3 66 7 view .LVU466
 1837 0086 8823      		tst r24
 1838 0088 01F0      		breq .L100
  66:../../LUFA-111009/LUFA/Drivers/USB/Core/AVR8/Template/Template_Endpoint_RW.c **** 			  return ErrorCode;
 1839               		.loc 3 66 21 view .LVU467
 1840 008a D82E      		mov r13,r24
 1841 008c 00C0      		rjmp .L97
 1842               	.LVL167:
 1843               	.L101:
  71:../../LUFA-111009/LUFA/Drivers/USB/Core/AVR8/Template/Template_Endpoint_RW.c **** 			TEMPLATE_BUFFER_MOVE(DataStream, 1);
 1844               		.loc 3 71 4 is_stmt 1 view .LVU468
 1845 008e C801      		movw r24,r16
 1846 0090 0E94 0000 		call eeprom_read_byte
 1847               	.LVL168:
 1848               	.LBB310:
 1849               	.LBI310:
 622:../../LUFA-111009/LUFA/Drivers/USB/Core/AVR8/../AVR8/../AVR8/Endpoint_AVR8.h **** 			{
 1850               		.loc 2 622 23 view .LVU469
 1851               	.LBB311:
 624:../../LUFA-111009/LUFA/Drivers/USB/Core/AVR8/../AVR8/../AVR8/Endpoint_AVR8.h **** 			}
 1852               		.loc 2 624 5 view .LVU470
 624:../../LUFA-111009/LUFA/Drivers/USB/Core/AVR8/../AVR8/../AVR8/Endpoint_AVR8.h **** 			}
 1853               		.loc 2 624 12 is_stmt 0 view .LVU471
 1854 0094 8093 F100 		sts 241,r24
 1855               	.LVL169:
 624:../../LUFA-111009/LUFA/Drivers/USB/Core/AVR8/../AVR8/../AVR8/Endpoint_AVR8.h **** 			}
 1856               		.loc 2 624 12 view .LVU472
 1857               	.LBE311:
 1858               	.LBE310:
  72:../../LUFA-111009/LUFA/Drivers/USB/Core/AVR8/Template/Template_Endpoint_RW.c **** 			Length--;
 1859               		.loc 3 72 4 is_stmt 1 view .LVU473
 1860 0098 0F5F      		subi r16,-1
 1861 009a 1F4F      		sbci r17,-1
 1862               	.LVL170:
  73:../../LUFA-111009/LUFA/Drivers/USB/Core/AVR8/Template/Template_Endpoint_RW.c **** 			BytesInTransfer++;
 1863               		.loc 3 73 4 view .LVU474
  73:../../LUFA-111009/LUFA/Drivers/USB/Core/AVR8/Template/Template_Endpoint_RW.c **** 			BytesInTransfer++;
 1864               		.loc 3 73 10 is_stmt 0 view .LVU475
 1865 009c 2197      		sbiw r28,1
 1866               	.LVL171:
  74:../../LUFA-111009/LUFA/Drivers/USB/Core/AVR8/Template/Template_Endpoint_RW.c **** 		}
 1867               		.loc 3 74 4 is_stmt 1 view .LVU476
  74:../../LUFA-111009/LUFA/Drivers/USB/Core/AVR8/Template/Template_Endpoint_RW.c **** 		}
 1868               		.loc 3 74 19 is_stmt 0 view .LVU477
 1869 009e FFEF      		ldi r31,-1
 1870 00a0 AF1A      		sub r10,r31
 1871 00a2 BF0A      		sbc r11,r31
 1872               	.LVL172:
  74:../../LUFA-111009/LUFA/Drivers/USB/Core/AVR8/Template/Template_Endpoint_RW.c **** 		}
 1873               		.loc 3 74 19 view .LVU478
 1874 00a4 00C0      		rjmp .L100
 1875               		.cfi_endproc
 1876               	.LFE89:
 1878               		.section	.text.Endpoint_Write_EStream_BE,"ax",@progbits
 1879               	.global	Endpoint_Write_EStream_BE
 1881               	Endpoint_Write_EStream_BE:
 1882               	.LVL173:
 1883               	.LFB90:
  36:../../LUFA-111009/LUFA/Drivers/USB/Core/AVR8/Template/Template_Endpoint_RW.c **** 	uint8_t* DataStream      = ((uint8_t*)Buffer + TEMPLATE_BUFFER_OFFSET(Length));
 1884               		.loc 3 36 1 is_stmt 1 view -0
 1885               		.cfi_startproc
  36:../../LUFA-111009/LUFA/Drivers/USB/Core/AVR8/Template/Template_Endpoint_RW.c **** 	uint8_t* DataStream      = ((uint8_t*)Buffer + TEMPLATE_BUFFER_OFFSET(Length));
 1886               		.loc 3 36 1 is_stmt 0 view .LVU480
 1887 0000 AF92      		push r10
 1888               	.LCFI77:
 1889               		.cfi_def_cfa_offset 3
 1890               		.cfi_offset 10, -2
 1891 0002 BF92      		push r11
 1892               	.LCFI78:
 1893               		.cfi_def_cfa_offset 4
 1894               		.cfi_offset 11, -3
 1895 0004 DF92      		push r13
 1896               	.LCFI79:
 1897               		.cfi_def_cfa_offset 5
 1898               		.cfi_offset 13, -4
 1899 0006 EF92      		push r14
 1900               	.LCFI80:
 1901               		.cfi_def_cfa_offset 6
 1902               		.cfi_offset 14, -5
 1903 0008 FF92      		push r15
 1904               	.LCFI81:
 1905               		.cfi_def_cfa_offset 7
 1906               		.cfi_offset 15, -6
 1907 000a 0F93      		push r16
 1908               	.LCFI82:
 1909               		.cfi_def_cfa_offset 8
 1910               		.cfi_offset 16, -7
 1911 000c 1F93      		push r17
 1912               	.LCFI83:
 1913               		.cfi_def_cfa_offset 9
 1914               		.cfi_offset 17, -8
 1915 000e CF93      		push r28
 1916               	.LCFI84:
 1917               		.cfi_def_cfa_offset 10
 1918               		.cfi_offset 28, -9
 1919 0010 DF93      		push r29
 1920               	.LCFI85:
 1921               		.cfi_def_cfa_offset 11
 1922               		.cfi_offset 29, -10
 1923               	/* prologue: function */
 1924               	/* frame size = 0 */
 1925               	/* stack size = 9 */
 1926               	.L__stack_usage = 9
 1927 0012 EC01      		movw r28,r24
 1928 0014 8B01      		movw r16,r22
 1929 0016 7A01      		movw r14,r20
  37:../../LUFA-111009/LUFA/Drivers/USB/Core/AVR8/Template/Template_Endpoint_RW.c **** 	uint16_t BytesInTransfer = 0;
 1930               		.loc 3 37 2 is_stmt 1 view .LVU481
 1931               	.LVL174:
  38:../../LUFA-111009/LUFA/Drivers/USB/Core/AVR8/Template/Template_Endpoint_RW.c **** 	uint8_t  ErrorCode;
 1932               		.loc 3 38 2 view .LVU482
  39:../../LUFA-111009/LUFA/Drivers/USB/Core/AVR8/Template/Template_Endpoint_RW.c **** 
 1933               		.loc 3 39 2 view .LVU483
  41:../../LUFA-111009/LUFA/Drivers/USB/Core/AVR8/Template/Template_Endpoint_RW.c **** 	  return ErrorCode;
 1934               		.loc 3 41 2 view .LVU484
  41:../../LUFA-111009/LUFA/Drivers/USB/Core/AVR8/Template/Template_Endpoint_RW.c **** 	  return ErrorCode;
 1935               		.loc 3 41 19 is_stmt 0 view .LVU485
 1936 0018 0E94 0000 		call Endpoint_WaitUntilReady
 1937               	.LVL175:
  41:../../LUFA-111009/LUFA/Drivers/USB/Core/AVR8/Template/Template_Endpoint_RW.c **** 	  return ErrorCode;
 1938               		.loc 3 41 19 view .LVU486
 1939 001c D82E      		mov r13,r24
 1940               	.LVL176:
  41:../../LUFA-111009/LUFA/Drivers/USB/Core/AVR8/Template/Template_Endpoint_RW.c **** 	  return ErrorCode;
 1941               		.loc 3 41 5 view .LVU487
 1942 001e 8111      		cpse r24,__zero_reg__
 1943 0020 00C0      		rjmp .L109
  37:../../LUFA-111009/LUFA/Drivers/USB/Core/AVR8/Template/Template_Endpoint_RW.c **** 	uint16_t BytesInTransfer = 0;
 1944               		.loc 3 37 47 view .LVU488
 1945 0022 C801      		movw r24,r16
 1946 0024 0197      		sbiw r24,1
 1947               	.LVL177:
  37:../../LUFA-111009/LUFA/Drivers/USB/Core/AVR8/Template/Template_Endpoint_RW.c **** 	uint16_t BytesInTransfer = 0;
 1948               		.loc 3 37 11 view .LVU489
 1949 0026 C80F      		add r28,r24
 1950 0028 D91F      		adc r29,r25
 1951               	.LVL178:
  44:../../LUFA-111009/LUFA/Drivers/USB/Core/AVR8/Template/Template_Endpoint_RW.c **** 	{
 1952               		.loc 3 44 2 is_stmt 1 view .LVU490
  44:../../LUFA-111009/LUFA/Drivers/USB/Core/AVR8/Template/Template_Endpoint_RW.c **** 	{
 1953               		.loc 3 44 5 is_stmt 0 view .LVU491
 1954 002a E114      		cp r14,__zero_reg__
 1955 002c F104      		cpc r15,__zero_reg__
 1956 002e 01F0      		breq .L111
  46:../../LUFA-111009/LUFA/Drivers/USB/Core/AVR8/Template/Template_Endpoint_RW.c **** 		TEMPLATE_BUFFER_MOVE(DataStream, *BytesProcessed);
 1957               		.loc 3 46 3 is_stmt 1 view .LVU492
  46:../../LUFA-111009/LUFA/Drivers/USB/Core/AVR8/Template/Template_Endpoint_RW.c **** 		TEMPLATE_BUFFER_MOVE(DataStream, *BytesProcessed);
 1958               		.loc 3 46 13 is_stmt 0 view .LVU493
 1959 0030 F701      		movw r30,r14
 1960 0032 8081      		ld r24,Z
 1961 0034 9181      		ldd r25,Z+1
 1962               	.LVL179:
  46:../../LUFA-111009/LUFA/Drivers/USB/Core/AVR8/Template/Template_Endpoint_RW.c **** 		TEMPLATE_BUFFER_MOVE(DataStream, *BytesProcessed);
 1963               		.loc 3 46 10 view .LVU494
 1964 0036 081B      		sub r16,r24
 1965 0038 190B      		sbc r17,r25
 1966               	.LVL180:
  47:../../LUFA-111009/LUFA/Drivers/USB/Core/AVR8/Template/Template_Endpoint_RW.c **** 	}
 1967               		.loc 3 47 3 is_stmt 1 view .LVU495
 1968 003a C81B      		sub r28,r24
 1969 003c D90B      		sbc r29,r25
 1970               	.LVL181:
 1971               	.L111:
  36:../../LUFA-111009/LUFA/Drivers/USB/Core/AVR8/Template/Template_Endpoint_RW.c **** 	uint8_t* DataStream      = ((uint8_t*)Buffer + TEMPLATE_BUFFER_OFFSET(Length));
 1972               		.loc 3 36 1 is_stmt 0 view .LVU496
 1973 003e B12C      		mov r11,__zero_reg__
 1974 0040 A12C      		mov r10,__zero_reg__
 1975               	.LVL182:
 1976               	.L112:
  50:../../LUFA-111009/LUFA/Drivers/USB/Core/AVR8/Template/Template_Endpoint_RW.c **** 	{
 1977               		.loc 3 50 8 is_stmt 1 view .LVU497
 1978 0042 0115      		cp r16,__zero_reg__
 1979 0044 1105      		cpc r17,__zero_reg__
 1980 0046 01F0      		breq .L109
  52:../../LUFA-111009/LUFA/Drivers/USB/Core/AVR8/Template/Template_Endpoint_RW.c **** 		{
 1981               		.loc 3 52 3 view .LVU498
 1982               	.LBB312:
 1983               	.LBI312:
 418:../../LUFA-111009/LUFA/Drivers/USB/Core/AVR8/../AVR8/../AVR8/Endpoint_AVR8.h **** 			{
 1984               		.loc 2 418 23 view .LVU499
 1985               	.LBB313:
 420:../../LUFA-111009/LUFA/Drivers/USB/Core/AVR8/../AVR8/../AVR8/Endpoint_AVR8.h **** 			}
 1986               		.loc 2 420 5 view .LVU500
 420:../../LUFA-111009/LUFA/Drivers/USB/Core/AVR8/../AVR8/../AVR8/Endpoint_AVR8.h **** 			}
 1987               		.loc 2 420 14 is_stmt 0 view .LVU501
 1988 0048 8091 E800 		lds r24,232
 1989               	.LBE313:
 1990               	.LBE312:
  52:../../LUFA-111009/LUFA/Drivers/USB/Core/AVR8/Template/Template_Endpoint_RW.c **** 		{
 1991               		.loc 3 52 6 view .LVU502
 1992 004c 85FD      		sbrc r24,5
 1993 004e 00C0      		rjmp .L113
  54:../../LUFA-111009/LUFA/Drivers/USB/Core/AVR8/Template/Template_Endpoint_RW.c **** 
 1994               		.loc 3 54 4 is_stmt 1 view .LVU503
 1995               	.LBB314:
 1996               	.LBI314:
 513:../../LUFA-111009/LUFA/Drivers/USB/Core/AVR8/../AVR8/../AVR8/Endpoint_AVR8.h **** 			{
 1997               		.loc 2 513 23 view .LVU504
 1998               	.LBB315:
 516:../../LUFA-111009/LUFA/Drivers/USB/Core/AVR8/../AVR8/../AVR8/Endpoint_AVR8.h **** 				#else
 1999               		.loc 2 516 6 view .LVU505
 516:../../LUFA-111009/LUFA/Drivers/USB/Core/AVR8/../AVR8/../AVR8/Endpoint_AVR8.h **** 				#else
 2000               		.loc 2 516 13 is_stmt 0 view .LVU506
 2001 0050 8091 E800 		lds r24,232
 2002 0054 8E77      		andi r24,lo8(126)
 2003 0056 8093 E800 		sts 232,r24
 2004               	.LBE315:
 2005               	.LBE314:
  57:../../LUFA-111009/LUFA/Drivers/USB/Core/AVR8/Template/Template_Endpoint_RW.c **** 			#endif
 2006               		.loc 3 57 4 is_stmt 1 view .LVU507
 2007 005a 0E94 0000 		call USB_USBTask
 2008               	.LVL183:
  60:../../LUFA-111009/LUFA/Drivers/USB/Core/AVR8/Template/Template_Endpoint_RW.c **** 			{
 2009               		.loc 3 60 4 view .LVU508
  60:../../LUFA-111009/LUFA/Drivers/USB/Core/AVR8/Template/Template_Endpoint_RW.c **** 			{
 2010               		.loc 3 60 7 is_stmt 0 view .LVU509
 2011 005e E114      		cp r14,__zero_reg__
 2012 0060 F104      		cpc r15,__zero_reg__
 2013 0062 01F0      		breq .L114
  62:../../LUFA-111009/LUFA/Drivers/USB/Core/AVR8/Template/Template_Endpoint_RW.c **** 				return ENDPOINT_RWSTREAM_IncompleteTransfer;
 2014               		.loc 3 62 5 is_stmt 1 view .LVU510
  62:../../LUFA-111009/LUFA/Drivers/USB/Core/AVR8/Template/Template_Endpoint_RW.c **** 				return ENDPOINT_RWSTREAM_IncompleteTransfer;
 2015               		.loc 3 62 21 is_stmt 0 view .LVU511
 2016 0064 F701      		movw r30,r14
 2017 0066 8081      		ld r24,Z
 2018 0068 9181      		ldd r25,Z+1
 2019 006a A80E      		add r10,r24
 2020 006c B91E      		adc r11,r25
 2021               	.LVL184:
  62:../../LUFA-111009/LUFA/Drivers/USB/Core/AVR8/Template/Template_Endpoint_RW.c **** 				return ENDPOINT_RWSTREAM_IncompleteTransfer;
 2022               		.loc 3 62 21 view .LVU512
 2023 006e B182      		std Z+1,r11
 2024 0070 A082      		st Z,r10
  63:../../LUFA-111009/LUFA/Drivers/USB/Core/AVR8/Template/Template_Endpoint_RW.c **** 			}
 2025               		.loc 3 63 5 is_stmt 1 view .LVU513
  63:../../LUFA-111009/LUFA/Drivers/USB/Core/AVR8/Template/Template_Endpoint_RW.c **** 			}
 2026               		.loc 3 63 12 is_stmt 0 view .LVU514
 2027 0072 85E0      		ldi r24,lo8(5)
 2028 0074 D82E      		mov r13,r24
 2029               	.LVL185:
 2030               	.L109:
 2031               		.loc 3 79 1 view .LVU515
 2032 0076 8D2D      		mov r24,r13
 2033               	/* epilogue start */
 2034 0078 DF91      		pop r29
 2035 007a CF91      		pop r28
 2036 007c 1F91      		pop r17
 2037 007e 0F91      		pop r16
 2038               	.LVL186:
 2039               		.loc 3 79 1 view .LVU516
 2040 0080 FF90      		pop r15
 2041 0082 EF90      		pop r14
 2042               	.LVL187:
 2043               		.loc 3 79 1 view .LVU517
 2044 0084 DF90      		pop r13
 2045 0086 BF90      		pop r11
 2046 0088 AF90      		pop r10
 2047 008a 0895      		ret
 2048               	.LVL188:
 2049               	.L114:
  66:../../LUFA-111009/LUFA/Drivers/USB/Core/AVR8/Template/Template_Endpoint_RW.c **** 			  return ErrorCode;
 2050               		.loc 3 66 4 is_stmt 1 view .LVU518
  66:../../LUFA-111009/LUFA/Drivers/USB/Core/AVR8/Template/Template_Endpoint_RW.c **** 			  return ErrorCode;
 2051               		.loc 3 66 21 is_stmt 0 view .LVU519
 2052 008c 0E94 0000 		call Endpoint_WaitUntilReady
 2053               	.LVL189:
  66:../../LUFA-111009/LUFA/Drivers/USB/Core/AVR8/Template/Template_Endpoint_RW.c **** 			  return ErrorCode;
 2054               		.loc 3 66 7 view .LVU520
 2055 0090 8823      		tst r24
 2056 0092 01F0      		breq .L112
  66:../../LUFA-111009/LUFA/Drivers/USB/Core/AVR8/Template/Template_Endpoint_RW.c **** 			  return ErrorCode;
 2057               		.loc 3 66 21 view .LVU521
 2058 0094 D82E      		mov r13,r24
 2059 0096 00C0      		rjmp .L109
 2060               	.LVL190:
 2061               	.L113:
  71:../../LUFA-111009/LUFA/Drivers/USB/Core/AVR8/Template/Template_Endpoint_RW.c **** 			TEMPLATE_BUFFER_MOVE(DataStream, 1);
 2062               		.loc 3 71 4 is_stmt 1 view .LVU522
 2063 0098 CE01      		movw r24,r28
 2064 009a 0E94 0000 		call eeprom_read_byte
 2065               	.LVL191:
 2066               	.LBB316:
 2067               	.LBI316:
 622:../../LUFA-111009/LUFA/Drivers/USB/Core/AVR8/../AVR8/../AVR8/Endpoint_AVR8.h **** 			{
 2068               		.loc 2 622 23 view .LVU523
 2069               	.LBB317:
 624:../../LUFA-111009/LUFA/Drivers/USB/Core/AVR8/../AVR8/../AVR8/Endpoint_AVR8.h **** 			}
 2070               		.loc 2 624 5 view .LVU524
 624:../../LUFA-111009/LUFA/Drivers/USB/Core/AVR8/../AVR8/../AVR8/Endpoint_AVR8.h **** 			}
 2071               		.loc 2 624 12 is_stmt 0 view .LVU525
 2072 009e 8093 F100 		sts 241,r24
 2073               	.LVL192:
 624:../../LUFA-111009/LUFA/Drivers/USB/Core/AVR8/../AVR8/../AVR8/Endpoint_AVR8.h **** 			}
 2074               		.loc 2 624 12 view .LVU526
 2075               	.LBE317:
 2076               	.LBE316:
  72:../../LUFA-111009/LUFA/Drivers/USB/Core/AVR8/Template/Template_Endpoint_RW.c **** 			Length--;
 2077               		.loc 3 72 4 is_stmt 1 view .LVU527
 2078 00a2 2197      		sbiw r28,1
 2079               	.LVL193:
  73:../../LUFA-111009/LUFA/Drivers/USB/Core/AVR8/Template/Template_Endpoint_RW.c **** 			BytesInTransfer++;
 2080               		.loc 3 73 4 view .LVU528
  73:../../LUFA-111009/LUFA/Drivers/USB/Core/AVR8/Template/Template_Endpoint_RW.c **** 			BytesInTransfer++;
 2081               		.loc 3 73 10 is_stmt 0 view .LVU529
 2082 00a4 0150      		subi r16,1
 2083 00a6 1109      		sbc r17,__zero_reg__
 2084               	.LVL194:
  74:../../LUFA-111009/LUFA/Drivers/USB/Core/AVR8/Template/Template_Endpoint_RW.c **** 		}
 2085               		.loc 3 74 4 is_stmt 1 view .LVU530
  74:../../LUFA-111009/LUFA/Drivers/USB/Core/AVR8/Template/Template_Endpoint_RW.c **** 		}
 2086               		.loc 3 74 19 is_stmt 0 view .LVU531
 2087 00a8 FFEF      		ldi r31,-1
 2088 00aa AF1A      		sub r10,r31
 2089 00ac BF0A      		sbc r11,r31
 2090               	.LVL195:
  74:../../LUFA-111009/LUFA/Drivers/USB/Core/AVR8/Template/Template_Endpoint_RW.c **** 		}
 2091               		.loc 3 74 19 view .LVU532
 2092 00ae 00C0      		rjmp .L112
 2093               		.cfi_endproc
 2094               	.LFE90:
 2096               		.section	.text.Endpoint_Read_EStream_LE,"ax",@progbits
 2097               	.global	Endpoint_Read_EStream_LE
 2099               	Endpoint_Read_EStream_LE:
 2100               	.LVL196:
 2101               	.LFB91:
  36:../../LUFA-111009/LUFA/Drivers/USB/Core/AVR8/Template/Template_Endpoint_RW.c **** 	uint8_t* DataStream      = ((uint8_t*)Buffer + TEMPLATE_BUFFER_OFFSET(Length));
 2102               		.loc 3 36 1 is_stmt 1 view -0
 2103               		.cfi_startproc
  36:../../LUFA-111009/LUFA/Drivers/USB/Core/AVR8/Template/Template_Endpoint_RW.c **** 	uint8_t* DataStream      = ((uint8_t*)Buffer + TEMPLATE_BUFFER_OFFSET(Length));
 2104               		.loc 3 36 1 is_stmt 0 view .LVU534
 2105 0000 AF92      		push r10
 2106               	.LCFI86:
 2107               		.cfi_def_cfa_offset 3
 2108               		.cfi_offset 10, -2
 2109 0002 BF92      		push r11
 2110               	.LCFI87:
 2111               		.cfi_def_cfa_offset 4
 2112               		.cfi_offset 11, -3
 2113 0004 DF92      		push r13
 2114               	.LCFI88:
 2115               		.cfi_def_cfa_offset 5
 2116               		.cfi_offset 13, -4
 2117 0006 EF92      		push r14
 2118               	.LCFI89:
 2119               		.cfi_def_cfa_offset 6
 2120               		.cfi_offset 14, -5
 2121 0008 FF92      		push r15
 2122               	.LCFI90:
 2123               		.cfi_def_cfa_offset 7
 2124               		.cfi_offset 15, -6
 2125 000a 0F93      		push r16
 2126               	.LCFI91:
 2127               		.cfi_def_cfa_offset 8
 2128               		.cfi_offset 16, -7
 2129 000c 1F93      		push r17
 2130               	.LCFI92:
 2131               		.cfi_def_cfa_offset 9
 2132               		.cfi_offset 17, -8
 2133 000e CF93      		push r28
 2134               	.LCFI93:
 2135               		.cfi_def_cfa_offset 10
 2136               		.cfi_offset 28, -9
 2137 0010 DF93      		push r29
 2138               	.LCFI94:
 2139               		.cfi_def_cfa_offset 11
 2140               		.cfi_offset 29, -10
 2141               	/* prologue: function */
 2142               	/* frame size = 0 */
 2143               	/* stack size = 9 */
 2144               	.L__stack_usage = 9
 2145 0012 8C01      		movw r16,r24
 2146 0014 EB01      		movw r28,r22
 2147 0016 7A01      		movw r14,r20
  37:../../LUFA-111009/LUFA/Drivers/USB/Core/AVR8/Template/Template_Endpoint_RW.c **** 	uint16_t BytesInTransfer = 0;
 2148               		.loc 3 37 2 is_stmt 1 view .LVU535
 2149               	.LVL197:
  38:../../LUFA-111009/LUFA/Drivers/USB/Core/AVR8/Template/Template_Endpoint_RW.c **** 	uint8_t  ErrorCode;
 2150               		.loc 3 38 2 view .LVU536
  39:../../LUFA-111009/LUFA/Drivers/USB/Core/AVR8/Template/Template_Endpoint_RW.c **** 
 2151               		.loc 3 39 2 view .LVU537
  41:../../LUFA-111009/LUFA/Drivers/USB/Core/AVR8/Template/Template_Endpoint_RW.c **** 	  return ErrorCode;
 2152               		.loc 3 41 2 view .LVU538
  41:../../LUFA-111009/LUFA/Drivers/USB/Core/AVR8/Template/Template_Endpoint_RW.c **** 	  return ErrorCode;
 2153               		.loc 3 41 19 is_stmt 0 view .LVU539
 2154 0018 0E94 0000 		call Endpoint_WaitUntilReady
 2155               	.LVL198:
  41:../../LUFA-111009/LUFA/Drivers/USB/Core/AVR8/Template/Template_Endpoint_RW.c **** 	  return ErrorCode;
 2156               		.loc 3 41 19 view .LVU540
 2157 001c D82E      		mov r13,r24
 2158               	.LVL199:
  41:../../LUFA-111009/LUFA/Drivers/USB/Core/AVR8/Template/Template_Endpoint_RW.c **** 	  return ErrorCode;
 2159               		.loc 3 41 5 view .LVU541
 2160 001e 8111      		cpse r24,__zero_reg__
 2161 0020 00C0      		rjmp .L121
  44:../../LUFA-111009/LUFA/Drivers/USB/Core/AVR8/Template/Template_Endpoint_RW.c **** 	{
 2162               		.loc 3 44 2 is_stmt 1 view .LVU542
  44:../../LUFA-111009/LUFA/Drivers/USB/Core/AVR8/Template/Template_Endpoint_RW.c **** 	{
 2163               		.loc 3 44 5 is_stmt 0 view .LVU543
 2164 0022 E114      		cp r14,__zero_reg__
 2165 0024 F104      		cpc r15,__zero_reg__
 2166 0026 01F0      		breq .L123
  46:../../LUFA-111009/LUFA/Drivers/USB/Core/AVR8/Template/Template_Endpoint_RW.c **** 		TEMPLATE_BUFFER_MOVE(DataStream, *BytesProcessed);
 2167               		.loc 3 46 3 is_stmt 1 view .LVU544
  46:../../LUFA-111009/LUFA/Drivers/USB/Core/AVR8/Template/Template_Endpoint_RW.c **** 		TEMPLATE_BUFFER_MOVE(DataStream, *BytesProcessed);
 2168               		.loc 3 46 13 is_stmt 0 view .LVU545
 2169 0028 F701      		movw r30,r14
 2170 002a 8081      		ld r24,Z
 2171 002c 9181      		ldd r25,Z+1
  46:../../LUFA-111009/LUFA/Drivers/USB/Core/AVR8/Template/Template_Endpoint_RW.c **** 		TEMPLATE_BUFFER_MOVE(DataStream, *BytesProcessed);
 2172               		.loc 3 46 10 view .LVU546
 2173 002e C81B      		sub r28,r24
 2174 0030 D90B      		sbc r29,r25
 2175               	.LVL200:
  47:../../LUFA-111009/LUFA/Drivers/USB/Core/AVR8/Template/Template_Endpoint_RW.c **** 	}
 2176               		.loc 3 47 3 is_stmt 1 view .LVU547
 2177 0032 080F      		add r16,r24
 2178 0034 191F      		adc r17,r25
 2179               	.LVL201:
 2180               	.L123:
  36:../../LUFA-111009/LUFA/Drivers/USB/Core/AVR8/Template/Template_Endpoint_RW.c **** 	uint8_t* DataStream      = ((uint8_t*)Buffer + TEMPLATE_BUFFER_OFFSET(Length));
 2181               		.loc 3 36 1 is_stmt 0 view .LVU548
 2182 0036 B12C      		mov r11,__zero_reg__
 2183 0038 A12C      		mov r10,__zero_reg__
 2184               	.LVL202:
 2185               	.L124:
  50:../../LUFA-111009/LUFA/Drivers/USB/Core/AVR8/Template/Template_Endpoint_RW.c **** 	{
 2186               		.loc 3 50 8 is_stmt 1 view .LVU549
 2187 003a 2097      		sbiw r28,0
 2188 003c 01F0      		breq .L121
  52:../../LUFA-111009/LUFA/Drivers/USB/Core/AVR8/Template/Template_Endpoint_RW.c **** 		{
 2189               		.loc 3 52 3 view .LVU550
 2190               	.LBB318:
 2191               	.LBI318:
 418:../../LUFA-111009/LUFA/Drivers/USB/Core/AVR8/../AVR8/../AVR8/Endpoint_AVR8.h **** 			{
 2192               		.loc 2 418 23 view .LVU551
 2193               	.LBB319:
 420:../../LUFA-111009/LUFA/Drivers/USB/Core/AVR8/../AVR8/../AVR8/Endpoint_AVR8.h **** 			}
 2194               		.loc 2 420 5 view .LVU552
 420:../../LUFA-111009/LUFA/Drivers/USB/Core/AVR8/../AVR8/../AVR8/Endpoint_AVR8.h **** 			}
 2195               		.loc 2 420 14 is_stmt 0 view .LVU553
 2196 003e 8091 E800 		lds r24,232
 2197               	.LBE319:
 2198               	.LBE318:
  52:../../LUFA-111009/LUFA/Drivers/USB/Core/AVR8/Template/Template_Endpoint_RW.c **** 		{
 2199               		.loc 3 52 6 view .LVU554
 2200 0042 85FD      		sbrc r24,5
 2201 0044 00C0      		rjmp .L125
  54:../../LUFA-111009/LUFA/Drivers/USB/Core/AVR8/Template/Template_Endpoint_RW.c **** 
 2202               		.loc 3 54 4 is_stmt 1 view .LVU555
 2203               	.LBB320:
 2204               	.LBI320:
 528:../../LUFA-111009/LUFA/Drivers/USB/Core/AVR8/../AVR8/../AVR8/Endpoint_AVR8.h **** 			{
 2205               		.loc 2 528 23 view .LVU556
 2206               	.LBB321:
 531:../../LUFA-111009/LUFA/Drivers/USB/Core/AVR8/../AVR8/../AVR8/Endpoint_AVR8.h **** 				#else
 2207               		.loc 2 531 6 view .LVU557
 531:../../LUFA-111009/LUFA/Drivers/USB/Core/AVR8/../AVR8/../AVR8/Endpoint_AVR8.h **** 				#else
 2208               		.loc 2 531 13 is_stmt 0 view .LVU558
 2209 0046 8091 E800 		lds r24,232
 2210 004a 8B77      		andi r24,lo8(123)
 2211 004c 8093 E800 		sts 232,r24
 2212               	.LBE321:
 2213               	.LBE320:
  57:../../LUFA-111009/LUFA/Drivers/USB/Core/AVR8/Template/Template_Endpoint_RW.c **** 			#endif
 2214               		.loc 3 57 4 is_stmt 1 view .LVU559
 2215 0050 0E94 0000 		call USB_USBTask
 2216               	.LVL203:
  60:../../LUFA-111009/LUFA/Drivers/USB/Core/AVR8/Template/Template_Endpoint_RW.c **** 			{
 2217               		.loc 3 60 4 view .LVU560
  60:../../LUFA-111009/LUFA/Drivers/USB/Core/AVR8/Template/Template_Endpoint_RW.c **** 			{
 2218               		.loc 3 60 7 is_stmt 0 view .LVU561
 2219 0054 E114      		cp r14,__zero_reg__
 2220 0056 F104      		cpc r15,__zero_reg__
 2221 0058 01F0      		breq .L126
  62:../../LUFA-111009/LUFA/Drivers/USB/Core/AVR8/Template/Template_Endpoint_RW.c **** 				return ENDPOINT_RWSTREAM_IncompleteTransfer;
 2222               		.loc 3 62 5 is_stmt 1 view .LVU562
  62:../../LUFA-111009/LUFA/Drivers/USB/Core/AVR8/Template/Template_Endpoint_RW.c **** 				return ENDPOINT_RWSTREAM_IncompleteTransfer;
 2223               		.loc 3 62 21 is_stmt 0 view .LVU563
 2224 005a F701      		movw r30,r14
 2225 005c 8081      		ld r24,Z
 2226 005e 9181      		ldd r25,Z+1
 2227 0060 A80E      		add r10,r24
 2228 0062 B91E      		adc r11,r25
 2229               	.LVL204:
  62:../../LUFA-111009/LUFA/Drivers/USB/Core/AVR8/Template/Template_Endpoint_RW.c **** 				return ENDPOINT_RWSTREAM_IncompleteTransfer;
 2230               		.loc 3 62 21 view .LVU564
 2231 0064 B182      		std Z+1,r11
 2232 0066 A082      		st Z,r10
  63:../../LUFA-111009/LUFA/Drivers/USB/Core/AVR8/Template/Template_Endpoint_RW.c **** 			}
 2233               		.loc 3 63 5 is_stmt 1 view .LVU565
  63:../../LUFA-111009/LUFA/Drivers/USB/Core/AVR8/Template/Template_Endpoint_RW.c **** 			}
 2234               		.loc 3 63 12 is_stmt 0 view .LVU566
 2235 0068 85E0      		ldi r24,lo8(5)
 2236 006a D82E      		mov r13,r24
 2237               	.L121:
 2238               		.loc 3 79 1 view .LVU567
 2239 006c 8D2D      		mov r24,r13
 2240               	/* epilogue start */
 2241 006e DF91      		pop r29
 2242 0070 CF91      		pop r28
 2243               	.LVL205:
 2244               		.loc 3 79 1 view .LVU568
 2245 0072 1F91      		pop r17
 2246 0074 0F91      		pop r16
 2247               	.LVL206:
 2248               		.loc 3 79 1 view .LVU569
 2249 0076 FF90      		pop r15
 2250 0078 EF90      		pop r14
 2251               	.LVL207:
 2252               		.loc 3 79 1 view .LVU570
 2253 007a DF90      		pop r13
 2254 007c BF90      		pop r11
 2255 007e AF90      		pop r10
 2256 0080 0895      		ret
 2257               	.LVL208:
 2258               	.L126:
  66:../../LUFA-111009/LUFA/Drivers/USB/Core/AVR8/Template/Template_Endpoint_RW.c **** 			  return ErrorCode;
 2259               		.loc 3 66 4 is_stmt 1 view .LVU571
  66:../../LUFA-111009/LUFA/Drivers/USB/Core/AVR8/Template/Template_Endpoint_RW.c **** 			  return ErrorCode;
 2260               		.loc 3 66 21 is_stmt 0 view .LVU572
 2261 0082 0E94 0000 		call Endpoint_WaitUntilReady
 2262               	.LVL209:
  66:../../LUFA-111009/LUFA/Drivers/USB/Core/AVR8/Template/Template_Endpoint_RW.c **** 			  return ErrorCode;
 2263               		.loc 3 66 7 view .LVU573
 2264 0086 8823      		tst r24
 2265 0088 01F0      		breq .L124
  66:../../LUFA-111009/LUFA/Drivers/USB/Core/AVR8/Template/Template_Endpoint_RW.c **** 			  return ErrorCode;
 2266               		.loc 3 66 21 view .LVU574
 2267 008a D82E      		mov r13,r24
 2268 008c 00C0      		rjmp .L121
 2269               	.LVL210:
 2270               	.L125:
  71:../../LUFA-111009/LUFA/Drivers/USB/Core/AVR8/Template/Template_Endpoint_RW.c **** 			TEMPLATE_BUFFER_MOVE(DataStream, 1);
 2271               		.loc 3 71 4 is_stmt 1 view .LVU575
 2272               	.LBB322:
 2273               	.LBI322:
 610:../../LUFA-111009/LUFA/Drivers/USB/Core/AVR8/../AVR8/../AVR8/Endpoint_AVR8.h **** 			{
 2274               		.loc 2 610 26 view .LVU576
 2275               	.LBB323:
 612:../../LUFA-111009/LUFA/Drivers/USB/Core/AVR8/../AVR8/../AVR8/Endpoint_AVR8.h **** 			}
 2276               		.loc 2 612 5 view .LVU577
 612:../../LUFA-111009/LUFA/Drivers/USB/Core/AVR8/../AVR8/../AVR8/Endpoint_AVR8.h **** 			}
 2277               		.loc 2 612 12 is_stmt 0 view .LVU578
 2278 008e 6091 F100 		lds r22,241
 2279               	.LBE323:
 2280               	.LBE322:
  71:../../LUFA-111009/LUFA/Drivers/USB/Core/AVR8/Template/Template_Endpoint_RW.c **** 			TEMPLATE_BUFFER_MOVE(DataStream, 1);
 2281               		.loc 3 71 4 view .LVU579
 2282 0092 C801      		movw r24,r16
 2283 0094 0E94 0000 		call eeprom_update_byte
 2284               	.LVL211:
  72:../../LUFA-111009/LUFA/Drivers/USB/Core/AVR8/Template/Template_Endpoint_RW.c **** 			Length--;
 2285               		.loc 3 72 4 is_stmt 1 view .LVU580
 2286 0098 0F5F      		subi r16,-1
 2287 009a 1F4F      		sbci r17,-1
 2288               	.LVL212:
  73:../../LUFA-111009/LUFA/Drivers/USB/Core/AVR8/Template/Template_Endpoint_RW.c **** 			BytesInTransfer++;
 2289               		.loc 3 73 4 view .LVU581
  73:../../LUFA-111009/LUFA/Drivers/USB/Core/AVR8/Template/Template_Endpoint_RW.c **** 			BytesInTransfer++;
 2290               		.loc 3 73 10 is_stmt 0 view .LVU582
 2291 009c 2197      		sbiw r28,1
 2292               	.LVL213:
  74:../../LUFA-111009/LUFA/Drivers/USB/Core/AVR8/Template/Template_Endpoint_RW.c **** 		}
 2293               		.loc 3 74 4 is_stmt 1 view .LVU583
  74:../../LUFA-111009/LUFA/Drivers/USB/Core/AVR8/Template/Template_Endpoint_RW.c **** 		}
 2294               		.loc 3 74 19 is_stmt 0 view .LVU584
 2295 009e FFEF      		ldi r31,-1
 2296 00a0 AF1A      		sub r10,r31
 2297 00a2 BF0A      		sbc r11,r31
 2298               	.LVL214:
  74:../../LUFA-111009/LUFA/Drivers/USB/Core/AVR8/Template/Template_Endpoint_RW.c **** 		}
 2299               		.loc 3 74 19 view .LVU585
 2300 00a4 00C0      		rjmp .L124
 2301               		.cfi_endproc
 2302               	.LFE91:
 2304               		.section	.text.Endpoint_Read_EStream_BE,"ax",@progbits
 2305               	.global	Endpoint_Read_EStream_BE
 2307               	Endpoint_Read_EStream_BE:
 2308               	.LVL215:
 2309               	.LFB92:
  36:../../LUFA-111009/LUFA/Drivers/USB/Core/AVR8/Template/Template_Endpoint_RW.c **** 	uint8_t* DataStream      = ((uint8_t*)Buffer + TEMPLATE_BUFFER_OFFSET(Length));
 2310               		.loc 3 36 1 is_stmt 1 view -0
 2311               		.cfi_startproc
  36:../../LUFA-111009/LUFA/Drivers/USB/Core/AVR8/Template/Template_Endpoint_RW.c **** 	uint8_t* DataStream      = ((uint8_t*)Buffer + TEMPLATE_BUFFER_OFFSET(Length));
 2312               		.loc 3 36 1 is_stmt 0 view .LVU587
 2313 0000 AF92      		push r10
 2314               	.LCFI95:
 2315               		.cfi_def_cfa_offset 3
 2316               		.cfi_offset 10, -2
 2317 0002 BF92      		push r11
 2318               	.LCFI96:
 2319               		.cfi_def_cfa_offset 4
 2320               		.cfi_offset 11, -3
 2321 0004 DF92      		push r13
 2322               	.LCFI97:
 2323               		.cfi_def_cfa_offset 5
 2324               		.cfi_offset 13, -4
 2325 0006 EF92      		push r14
 2326               	.LCFI98:
 2327               		.cfi_def_cfa_offset 6
 2328               		.cfi_offset 14, -5
 2329 0008 FF92      		push r15
 2330               	.LCFI99:
 2331               		.cfi_def_cfa_offset 7
 2332               		.cfi_offset 15, -6
 2333 000a 0F93      		push r16
 2334               	.LCFI100:
 2335               		.cfi_def_cfa_offset 8
 2336               		.cfi_offset 16, -7
 2337 000c 1F93      		push r17
 2338               	.LCFI101:
 2339               		.cfi_def_cfa_offset 9
 2340               		.cfi_offset 17, -8
 2341 000e CF93      		push r28
 2342               	.LCFI102:
 2343               		.cfi_def_cfa_offset 10
 2344               		.cfi_offset 28, -9
 2345 0010 DF93      		push r29
 2346               	.LCFI103:
 2347               		.cfi_def_cfa_offset 11
 2348               		.cfi_offset 29, -10
 2349               	/* prologue: function */
 2350               	/* frame size = 0 */
 2351               	/* stack size = 9 */
 2352               	.L__stack_usage = 9
 2353 0012 EC01      		movw r28,r24
 2354 0014 8B01      		movw r16,r22
 2355 0016 7A01      		movw r14,r20
  37:../../LUFA-111009/LUFA/Drivers/USB/Core/AVR8/Template/Template_Endpoint_RW.c **** 	uint16_t BytesInTransfer = 0;
 2356               		.loc 3 37 2 is_stmt 1 view .LVU588
 2357               	.LVL216:
  38:../../LUFA-111009/LUFA/Drivers/USB/Core/AVR8/Template/Template_Endpoint_RW.c **** 	uint8_t  ErrorCode;
 2358               		.loc 3 38 2 view .LVU589
  39:../../LUFA-111009/LUFA/Drivers/USB/Core/AVR8/Template/Template_Endpoint_RW.c **** 
 2359               		.loc 3 39 2 view .LVU590
  41:../../LUFA-111009/LUFA/Drivers/USB/Core/AVR8/Template/Template_Endpoint_RW.c **** 	  return ErrorCode;
 2360               		.loc 3 41 2 view .LVU591
  41:../../LUFA-111009/LUFA/Drivers/USB/Core/AVR8/Template/Template_Endpoint_RW.c **** 	  return ErrorCode;
 2361               		.loc 3 41 19 is_stmt 0 view .LVU592
 2362 0018 0E94 0000 		call Endpoint_WaitUntilReady
 2363               	.LVL217:
  41:../../LUFA-111009/LUFA/Drivers/USB/Core/AVR8/Template/Template_Endpoint_RW.c **** 	  return ErrorCode;
 2364               		.loc 3 41 19 view .LVU593
 2365 001c D82E      		mov r13,r24
 2366               	.LVL218:
  41:../../LUFA-111009/LUFA/Drivers/USB/Core/AVR8/Template/Template_Endpoint_RW.c **** 	  return ErrorCode;
 2367               		.loc 3 41 5 view .LVU594
 2368 001e 8111      		cpse r24,__zero_reg__
 2369 0020 00C0      		rjmp .L133
  37:../../LUFA-111009/LUFA/Drivers/USB/Core/AVR8/Template/Template_Endpoint_RW.c **** 	uint16_t BytesInTransfer = 0;
 2370               		.loc 3 37 47 view .LVU595
 2371 0022 C801      		movw r24,r16
 2372 0024 0197      		sbiw r24,1
 2373               	.LVL219:
  37:../../LUFA-111009/LUFA/Drivers/USB/Core/AVR8/Template/Template_Endpoint_RW.c **** 	uint16_t BytesInTransfer = 0;
 2374               		.loc 3 37 11 view .LVU596
 2375 0026 C80F      		add r28,r24
 2376 0028 D91F      		adc r29,r25
 2377               	.LVL220:
  44:../../LUFA-111009/LUFA/Drivers/USB/Core/AVR8/Template/Template_Endpoint_RW.c **** 	{
 2378               		.loc 3 44 2 is_stmt 1 view .LVU597
  44:../../LUFA-111009/LUFA/Drivers/USB/Core/AVR8/Template/Template_Endpoint_RW.c **** 	{
 2379               		.loc 3 44 5 is_stmt 0 view .LVU598
 2380 002a E114      		cp r14,__zero_reg__
 2381 002c F104      		cpc r15,__zero_reg__
 2382 002e 01F0      		breq .L135
  46:../../LUFA-111009/LUFA/Drivers/USB/Core/AVR8/Template/Template_Endpoint_RW.c **** 		TEMPLATE_BUFFER_MOVE(DataStream, *BytesProcessed);
 2383               		.loc 3 46 3 is_stmt 1 view .LVU599
  46:../../LUFA-111009/LUFA/Drivers/USB/Core/AVR8/Template/Template_Endpoint_RW.c **** 		TEMPLATE_BUFFER_MOVE(DataStream, *BytesProcessed);
 2384               		.loc 3 46 13 is_stmt 0 view .LVU600
 2385 0030 F701      		movw r30,r14
 2386 0032 8081      		ld r24,Z
 2387 0034 9181      		ldd r25,Z+1
 2388               	.LVL221:
  46:../../LUFA-111009/LUFA/Drivers/USB/Core/AVR8/Template/Template_Endpoint_RW.c **** 		TEMPLATE_BUFFER_MOVE(DataStream, *BytesProcessed);
 2389               		.loc 3 46 10 view .LVU601
 2390 0036 081B      		sub r16,r24
 2391 0038 190B      		sbc r17,r25
 2392               	.LVL222:
  47:../../LUFA-111009/LUFA/Drivers/USB/Core/AVR8/Template/Template_Endpoint_RW.c **** 	}
 2393               		.loc 3 47 3 is_stmt 1 view .LVU602
 2394 003a C81B      		sub r28,r24
 2395 003c D90B      		sbc r29,r25
 2396               	.LVL223:
 2397               	.L135:
  36:../../LUFA-111009/LUFA/Drivers/USB/Core/AVR8/Template/Template_Endpoint_RW.c **** 	uint8_t* DataStream      = ((uint8_t*)Buffer + TEMPLATE_BUFFER_OFFSET(Length));
 2398               		.loc 3 36 1 is_stmt 0 view .LVU603
 2399 003e B12C      		mov r11,__zero_reg__
 2400 0040 A12C      		mov r10,__zero_reg__
 2401               	.LVL224:
 2402               	.L136:
  50:../../LUFA-111009/LUFA/Drivers/USB/Core/AVR8/Template/Template_Endpoint_RW.c **** 	{
 2403               		.loc 3 50 8 is_stmt 1 view .LVU604
 2404 0042 0115      		cp r16,__zero_reg__
 2405 0044 1105      		cpc r17,__zero_reg__
 2406 0046 01F0      		breq .L133
  52:../../LUFA-111009/LUFA/Drivers/USB/Core/AVR8/Template/Template_Endpoint_RW.c **** 		{
 2407               		.loc 3 52 3 view .LVU605
 2408               	.LBB324:
 2409               	.LBI324:
 418:../../LUFA-111009/LUFA/Drivers/USB/Core/AVR8/../AVR8/../AVR8/Endpoint_AVR8.h **** 			{
 2410               		.loc 2 418 23 view .LVU606
 2411               	.LBB325:
 420:../../LUFA-111009/LUFA/Drivers/USB/Core/AVR8/../AVR8/../AVR8/Endpoint_AVR8.h **** 			}
 2412               		.loc 2 420 5 view .LVU607
 420:../../LUFA-111009/LUFA/Drivers/USB/Core/AVR8/../AVR8/../AVR8/Endpoint_AVR8.h **** 			}
 2413               		.loc 2 420 14 is_stmt 0 view .LVU608
 2414 0048 8091 E800 		lds r24,232
 2415               	.LBE325:
 2416               	.LBE324:
  52:../../LUFA-111009/LUFA/Drivers/USB/Core/AVR8/Template/Template_Endpoint_RW.c **** 		{
 2417               		.loc 3 52 6 view .LVU609
 2418 004c 85FD      		sbrc r24,5
 2419 004e 00C0      		rjmp .L137
  54:../../LUFA-111009/LUFA/Drivers/USB/Core/AVR8/Template/Template_Endpoint_RW.c **** 
 2420               		.loc 3 54 4 is_stmt 1 view .LVU610
 2421               	.LBB326:
 2422               	.LBI326:
 528:../../LUFA-111009/LUFA/Drivers/USB/Core/AVR8/../AVR8/../AVR8/Endpoint_AVR8.h **** 			{
 2423               		.loc 2 528 23 view .LVU611
 2424               	.LBB327:
 531:../../LUFA-111009/LUFA/Drivers/USB/Core/AVR8/../AVR8/../AVR8/Endpoint_AVR8.h **** 				#else
 2425               		.loc 2 531 6 view .LVU612
