   1               		.file	"EndpointStream_AVR8.c"
   2               	__SP_H__ = 0x3e
   3               	__SP_L__ = 0x3d
   4               	__SREG__ = 0x3f
   5               	__tmp_reg__ = 0
   6               	__zero_reg__ = 1
   7               		.text
   8               	.Ltext0:
   9               		.cfi_sections	.debug_frame
  10               		.section	.text.Endpoint_Discard_Stream,"ax",@progbits
  11               	.global	Endpoint_Discard_Stream
  13               	Endpoint_Discard_Stream:
  14               	.LVL0:
  15               	.LFB81:
  16               		.file 1 "../../LUFA-111009/LUFA/Drivers/USB/Core/AVR8/EndpointStream_AVR8.c"
   1:../../LUFA-111009/LUFA/Drivers/USB/Core/AVR8/EndpointStream_AVR8.c **** /*
   2:../../LUFA-111009/LUFA/Drivers/USB/Core/AVR8/EndpointStream_AVR8.c ****              LUFA Library
   3:../../LUFA-111009/LUFA/Drivers/USB/Core/AVR8/EndpointStream_AVR8.c ****      Copyright (C) Dean Camera, 2011.
   4:../../LUFA-111009/LUFA/Drivers/USB/Core/AVR8/EndpointStream_AVR8.c ****               
   5:../../LUFA-111009/LUFA/Drivers/USB/Core/AVR8/EndpointStream_AVR8.c ****   dean [at] fourwalledcubicle [dot] com
   6:../../LUFA-111009/LUFA/Drivers/USB/Core/AVR8/EndpointStream_AVR8.c ****            www.lufa-lib.org
   7:../../LUFA-111009/LUFA/Drivers/USB/Core/AVR8/EndpointStream_AVR8.c **** */
   8:../../LUFA-111009/LUFA/Drivers/USB/Core/AVR8/EndpointStream_AVR8.c **** 
   9:../../LUFA-111009/LUFA/Drivers/USB/Core/AVR8/EndpointStream_AVR8.c **** /*
  10:../../LUFA-111009/LUFA/Drivers/USB/Core/AVR8/EndpointStream_AVR8.c ****   Copyright 2011  Dean Camera (dean [at] fourwalledcubicle [dot] com)
  11:../../LUFA-111009/LUFA/Drivers/USB/Core/AVR8/EndpointStream_AVR8.c **** 
  12:../../LUFA-111009/LUFA/Drivers/USB/Core/AVR8/EndpointStream_AVR8.c ****   Permission to use, copy, modify, distribute, and sell this 
  13:../../LUFA-111009/LUFA/Drivers/USB/Core/AVR8/EndpointStream_AVR8.c ****   software and its documentation for any purpose is hereby granted
  14:../../LUFA-111009/LUFA/Drivers/USB/Core/AVR8/EndpointStream_AVR8.c ****   without fee, provided that the above copyright notice appear in 
  15:../../LUFA-111009/LUFA/Drivers/USB/Core/AVR8/EndpointStream_AVR8.c ****   all copies and that both that the copyright notice and this
  16:../../LUFA-111009/LUFA/Drivers/USB/Core/AVR8/EndpointStream_AVR8.c ****   permission notice and warranty disclaimer appear in supporting 
  17:../../LUFA-111009/LUFA/Drivers/USB/Core/AVR8/EndpointStream_AVR8.c ****   documentation, and that the name of the author not be used in 
  18:../../LUFA-111009/LUFA/Drivers/USB/Core/AVR8/EndpointStream_AVR8.c ****   advertising or publicity pertaining to distribution of the 
  19:../../LUFA-111009/LUFA/Drivers/USB/Core/AVR8/EndpointStream_AVR8.c ****   software without specific, written prior permission.
  20:../../LUFA-111009/LUFA/Drivers/USB/Core/AVR8/EndpointStream_AVR8.c **** 
  21:../../LUFA-111009/LUFA/Drivers/USB/Core/AVR8/EndpointStream_AVR8.c ****   The author disclaim all warranties with regard to this
  22:../../LUFA-111009/LUFA/Drivers/USB/Core/AVR8/EndpointStream_AVR8.c ****   software, including all implied warranties of merchantability
  23:../../LUFA-111009/LUFA/Drivers/USB/Core/AVR8/EndpointStream_AVR8.c ****   and fitness.  In no event shall the author be liable for any
  24:../../LUFA-111009/LUFA/Drivers/USB/Core/AVR8/EndpointStream_AVR8.c ****   special, indirect or consequential damages or any damages
  25:../../LUFA-111009/LUFA/Drivers/USB/Core/AVR8/EndpointStream_AVR8.c ****   whatsoever resulting from loss of use, data or profits, whether
  26:../../LUFA-111009/LUFA/Drivers/USB/Core/AVR8/EndpointStream_AVR8.c ****   in an action of contract, negligence or other tortious action,
  27:../../LUFA-111009/LUFA/Drivers/USB/Core/AVR8/EndpointStream_AVR8.c ****   arising out of or in connection with the use or performance of
  28:../../LUFA-111009/LUFA/Drivers/USB/Core/AVR8/EndpointStream_AVR8.c ****   this software.
  29:../../LUFA-111009/LUFA/Drivers/USB/Core/AVR8/EndpointStream_AVR8.c **** */
  30:../../LUFA-111009/LUFA/Drivers/USB/Core/AVR8/EndpointStream_AVR8.c **** 
  31:../../LUFA-111009/LUFA/Drivers/USB/Core/AVR8/EndpointStream_AVR8.c **** #define  __INCLUDE_FROM_USB_DRIVER
  32:../../LUFA-111009/LUFA/Drivers/USB/Core/AVR8/EndpointStream_AVR8.c **** #include "../USBMode.h"
  33:../../LUFA-111009/LUFA/Drivers/USB/Core/AVR8/EndpointStream_AVR8.c **** 
  34:../../LUFA-111009/LUFA/Drivers/USB/Core/AVR8/EndpointStream_AVR8.c **** #if defined(USB_CAN_BE_DEVICE)
  35:../../LUFA-111009/LUFA/Drivers/USB/Core/AVR8/EndpointStream_AVR8.c **** 
  36:../../LUFA-111009/LUFA/Drivers/USB/Core/AVR8/EndpointStream_AVR8.c **** #include "EndpointStream_AVR8.h"
  37:../../LUFA-111009/LUFA/Drivers/USB/Core/AVR8/EndpointStream_AVR8.c **** 
  38:../../LUFA-111009/LUFA/Drivers/USB/Core/AVR8/EndpointStream_AVR8.c **** #if !defined(CONTROL_ONLY_DEVICE)
  39:../../LUFA-111009/LUFA/Drivers/USB/Core/AVR8/EndpointStream_AVR8.c **** uint8_t Endpoint_Discard_Stream(uint16_t Length,
  40:../../LUFA-111009/LUFA/Drivers/USB/Core/AVR8/EndpointStream_AVR8.c ****                                 uint16_t* const BytesProcessed)
  41:../../LUFA-111009/LUFA/Drivers/USB/Core/AVR8/EndpointStream_AVR8.c **** {
  17               		.loc 1 41 1 view -0
  18               		.cfi_startproc
  19               		.loc 1 41 1 is_stmt 0 view .LVU1
  20 0000 CF92      		push r12
  21               	.LCFI0:
  22               		.cfi_def_cfa_offset 3
  23               		.cfi_offset 12, -2
  24 0002 DF92      		push r13
  25               	.LCFI1:
  26               		.cfi_def_cfa_offset 4
  27               		.cfi_offset 13, -3
  28 0004 FF92      		push r15
  29               	.LCFI2:
  30               		.cfi_def_cfa_offset 5
  31               		.cfi_offset 15, -4
  32 0006 0F93      		push r16
  33               	.LCFI3:
  34               		.cfi_def_cfa_offset 6
  35               		.cfi_offset 16, -5
  36 0008 1F93      		push r17
  37               	.LCFI4:
  38               		.cfi_def_cfa_offset 7
  39               		.cfi_offset 17, -6
  40 000a CF93      		push r28
  41               	.LCFI5:
  42               		.cfi_def_cfa_offset 8
  43               		.cfi_offset 28, -7
  44 000c DF93      		push r29
  45               	.LCFI6:
  46               		.cfi_def_cfa_offset 9
  47               		.cfi_offset 29, -8
  48               	/* prologue: function */
  49               	/* frame size = 0 */
  50               	/* stack size = 7 */
  51               	.L__stack_usage = 7
  52 000e EC01      		movw r28,r24
  53 0010 8B01      		movw r16,r22
  42:../../LUFA-111009/LUFA/Drivers/USB/Core/AVR8/EndpointStream_AVR8.c **** 	uint8_t  ErrorCode;
  54               		.loc 1 42 2 is_stmt 1 view .LVU2
  43:../../LUFA-111009/LUFA/Drivers/USB/Core/AVR8/EndpointStream_AVR8.c **** 	uint16_t BytesInTransfer = 0;
  55               		.loc 1 43 2 view .LVU3
  56               	.LVL1:
  44:../../LUFA-111009/LUFA/Drivers/USB/Core/AVR8/EndpointStream_AVR8.c **** 	
  45:../../LUFA-111009/LUFA/Drivers/USB/Core/AVR8/EndpointStream_AVR8.c **** 	if ((ErrorCode = Endpoint_WaitUntilReady()))
  57               		.loc 1 45 2 view .LVU4
  58               		.loc 1 45 19 is_stmt 0 view .LVU5
  59 0012 0E94 0000 		call Endpoint_WaitUntilReady
  60               	.LVL2:
  61               		.loc 1 45 19 view .LVU6
  62 0016 F82E      		mov r15,r24
  63               	.LVL3:
  64               		.loc 1 45 5 view .LVU7
  65 0018 8111      		cpse r24,__zero_reg__
  66 001a 00C0      		rjmp .L1
  46:../../LUFA-111009/LUFA/Drivers/USB/Core/AVR8/EndpointStream_AVR8.c **** 	  return ErrorCode;
  47:../../LUFA-111009/LUFA/Drivers/USB/Core/AVR8/EndpointStream_AVR8.c **** 	  
  48:../../LUFA-111009/LUFA/Drivers/USB/Core/AVR8/EndpointStream_AVR8.c **** 	if (BytesProcessed != NULL)
  67               		.loc 1 48 2 is_stmt 1 view .LVU8
  68               		.loc 1 48 5 is_stmt 0 view .LVU9
  69 001c 0115      		cp r16,__zero_reg__
  70 001e 1105      		cpc r17,__zero_reg__
  71 0020 01F0      		breq .L3
  49:../../LUFA-111009/LUFA/Drivers/USB/Core/AVR8/EndpointStream_AVR8.c **** 	  Length -= *BytesProcessed;
  72               		.loc 1 49 4 is_stmt 1 view .LVU10
  73               		.loc 1 49 11 is_stmt 0 view .LVU11
  74 0022 F801      		movw r30,r16
  75 0024 8081      		ld r24,Z
  76 0026 9181      		ldd r25,Z+1
  77 0028 C81B      		sub r28,r24
  78 002a D90B      		sbc r29,r25
  79               	.LVL4:
  80               	.L3:
  41:../../LUFA-111009/LUFA/Drivers/USB/Core/AVR8/EndpointStream_AVR8.c **** 	uint8_t  ErrorCode;
  81               		.loc 1 41 1 view .LVU12
  82 002c D12C      		mov r13,__zero_reg__
  83 002e C12C      		mov r12,__zero_reg__
  84               	.LVL5:
  85               	.L4:
  50:../../LUFA-111009/LUFA/Drivers/USB/Core/AVR8/EndpointStream_AVR8.c **** 
  51:../../LUFA-111009/LUFA/Drivers/USB/Core/AVR8/EndpointStream_AVR8.c **** 	while (Length)
  86               		.loc 1 51 8 is_stmt 1 view .LVU13
  87 0030 2097      		sbiw r28,0
  88 0032 01F0      		breq .L1
  52:../../LUFA-111009/LUFA/Drivers/USB/Core/AVR8/EndpointStream_AVR8.c **** 	{
  53:../../LUFA-111009/LUFA/Drivers/USB/Core/AVR8/EndpointStream_AVR8.c **** 		if (!(Endpoint_IsReadWriteAllowed()))
  89               		.loc 1 53 3 view .LVU14
  90               	.LBB256:
  91               	.LBI256:
  92               		.file 2 "../../LUFA-111009/LUFA/Drivers/USB/Core/AVR8/../AVR8/../AVR8/Endpoint_AVR8.h"
   1:../../LUFA-111009/LUFA/Drivers/USB/Core/AVR8/../AVR8/../AVR8/Endpoint_AVR8.h **** /*
   2:../../LUFA-111009/LUFA/Drivers/USB/Core/AVR8/../AVR8/../AVR8/Endpoint_AVR8.h ****              LUFA Library
   3:../../LUFA-111009/LUFA/Drivers/USB/Core/AVR8/../AVR8/../AVR8/Endpoint_AVR8.h ****      Copyright (C) Dean Camera, 2011.
   4:../../LUFA-111009/LUFA/Drivers/USB/Core/AVR8/../AVR8/../AVR8/Endpoint_AVR8.h **** 
   5:../../LUFA-111009/LUFA/Drivers/USB/Core/AVR8/../AVR8/../AVR8/Endpoint_AVR8.h ****   dean [at] fourwalledcubicle [dot] com
   6:../../LUFA-111009/LUFA/Drivers/USB/Core/AVR8/../AVR8/../AVR8/Endpoint_AVR8.h ****            www.lufa-lib.org
   7:../../LUFA-111009/LUFA/Drivers/USB/Core/AVR8/../AVR8/../AVR8/Endpoint_AVR8.h **** */
   8:../../LUFA-111009/LUFA/Drivers/USB/Core/AVR8/../AVR8/../AVR8/Endpoint_AVR8.h **** 
   9:../../LUFA-111009/LUFA/Drivers/USB/Core/AVR8/../AVR8/../AVR8/Endpoint_AVR8.h **** /*
  10:../../LUFA-111009/LUFA/Drivers/USB/Core/AVR8/../AVR8/../AVR8/Endpoint_AVR8.h ****   Copyright 2011  Dean Camera (dean [at] fourwalledcubicle [dot] com)
  11:../../LUFA-111009/LUFA/Drivers/USB/Core/AVR8/../AVR8/../AVR8/Endpoint_AVR8.h **** 
  12:../../LUFA-111009/LUFA/Drivers/USB/Core/AVR8/../AVR8/../AVR8/Endpoint_AVR8.h ****   Permission to use, copy, modify, distribute, and sell this
  13:../../LUFA-111009/LUFA/Drivers/USB/Core/AVR8/../AVR8/../AVR8/Endpoint_AVR8.h ****   software and its documentation for any purpose is hereby granted
  14:../../LUFA-111009/LUFA/Drivers/USB/Core/AVR8/../AVR8/../AVR8/Endpoint_AVR8.h ****   without fee, provided that the above copyright notice appear in
  15:../../LUFA-111009/LUFA/Drivers/USB/Core/AVR8/../AVR8/../AVR8/Endpoint_AVR8.h ****   all copies and that both that the copyright notice and this
  16:../../LUFA-111009/LUFA/Drivers/USB/Core/AVR8/../AVR8/../AVR8/Endpoint_AVR8.h ****   permission notice and warranty disclaimer appear in supporting
  17:../../LUFA-111009/LUFA/Drivers/USB/Core/AVR8/../AVR8/../AVR8/Endpoint_AVR8.h ****   documentation, and that the name of the author not be used in
  18:../../LUFA-111009/LUFA/Drivers/USB/Core/AVR8/../AVR8/../AVR8/Endpoint_AVR8.h ****   advertising or publicity pertaining to distribution of the
  19:../../LUFA-111009/LUFA/Drivers/USB/Core/AVR8/../AVR8/../AVR8/Endpoint_AVR8.h ****   software without specific, written prior permission.
  20:../../LUFA-111009/LUFA/Drivers/USB/Core/AVR8/../AVR8/../AVR8/Endpoint_AVR8.h **** 
  21:../../LUFA-111009/LUFA/Drivers/USB/Core/AVR8/../AVR8/../AVR8/Endpoint_AVR8.h ****   The author disclaim all warranties with regard to this
  22:../../LUFA-111009/LUFA/Drivers/USB/Core/AVR8/../AVR8/../AVR8/Endpoint_AVR8.h ****   software, including all implied warranties of merchantability
  23:../../LUFA-111009/LUFA/Drivers/USB/Core/AVR8/../AVR8/../AVR8/Endpoint_AVR8.h ****   and fitness.  In no event shall the author be liable for any
  24:../../LUFA-111009/LUFA/Drivers/USB/Core/AVR8/../AVR8/../AVR8/Endpoint_AVR8.h ****   special, indirect or consequential damages or any damages
  25:../../LUFA-111009/LUFA/Drivers/USB/Core/AVR8/../AVR8/../AVR8/Endpoint_AVR8.h ****   whatsoever resulting from loss of use, data or profits, whether
  26:../../LUFA-111009/LUFA/Drivers/USB/Core/AVR8/../AVR8/../AVR8/Endpoint_AVR8.h ****   in an action of contract, negligence or other tortious action,
  27:../../LUFA-111009/LUFA/Drivers/USB/Core/AVR8/../AVR8/../AVR8/Endpoint_AVR8.h ****   arising out of or in connection with the use or performance of
  28:../../LUFA-111009/LUFA/Drivers/USB/Core/AVR8/../AVR8/../AVR8/Endpoint_AVR8.h ****   this software.
  29:../../LUFA-111009/LUFA/Drivers/USB/Core/AVR8/../AVR8/../AVR8/Endpoint_AVR8.h **** */
  30:../../LUFA-111009/LUFA/Drivers/USB/Core/AVR8/../AVR8/../AVR8/Endpoint_AVR8.h **** 
  31:../../LUFA-111009/LUFA/Drivers/USB/Core/AVR8/../AVR8/../AVR8/Endpoint_AVR8.h **** /** \file
  32:../../LUFA-111009/LUFA/Drivers/USB/Core/AVR8/../AVR8/../AVR8/Endpoint_AVR8.h ****  *  \brief USB Endpoint definitions for the AVR8 microcontrollers.
  33:../../LUFA-111009/LUFA/Drivers/USB/Core/AVR8/../AVR8/../AVR8/Endpoint_AVR8.h ****  *  \copydetails Group_EndpointManagement_AVR8
  34:../../LUFA-111009/LUFA/Drivers/USB/Core/AVR8/../AVR8/../AVR8/Endpoint_AVR8.h ****  *
  35:../../LUFA-111009/LUFA/Drivers/USB/Core/AVR8/../AVR8/../AVR8/Endpoint_AVR8.h ****  *  \note This file should not be included directly. It is automatically included as needed by the 
  36:../../LUFA-111009/LUFA/Drivers/USB/Core/AVR8/../AVR8/../AVR8/Endpoint_AVR8.h ****  *        dispatch header located in LUFA/Drivers/USB/USB.h.
  37:../../LUFA-111009/LUFA/Drivers/USB/Core/AVR8/../AVR8/../AVR8/Endpoint_AVR8.h ****  */
  38:../../LUFA-111009/LUFA/Drivers/USB/Core/AVR8/../AVR8/../AVR8/Endpoint_AVR8.h **** 
  39:../../LUFA-111009/LUFA/Drivers/USB/Core/AVR8/../AVR8/../AVR8/Endpoint_AVR8.h **** /** \ingroup Group_EndpointRW
  40:../../LUFA-111009/LUFA/Drivers/USB/Core/AVR8/../AVR8/../AVR8/Endpoint_AVR8.h ****  *  \defgroup Group_EndpointRW_AVR8 Endpoint Data Reading and Writing (AVR8)
  41:../../LUFA-111009/LUFA/Drivers/USB/Core/AVR8/../AVR8/../AVR8/Endpoint_AVR8.h ****  *  \brief Endpoint data read/write definitions for the Atmel AVR8 architecture.
  42:../../LUFA-111009/LUFA/Drivers/USB/Core/AVR8/../AVR8/../AVR8/Endpoint_AVR8.h ****  *
  43:../../LUFA-111009/LUFA/Drivers/USB/Core/AVR8/../AVR8/../AVR8/Endpoint_AVR8.h ****  *  Functions, macros, variables, enums and types related to data reading and writing from and to e
  44:../../LUFA-111009/LUFA/Drivers/USB/Core/AVR8/../AVR8/../AVR8/Endpoint_AVR8.h ****  */
  45:../../LUFA-111009/LUFA/Drivers/USB/Core/AVR8/../AVR8/../AVR8/Endpoint_AVR8.h **** 
  46:../../LUFA-111009/LUFA/Drivers/USB/Core/AVR8/../AVR8/../AVR8/Endpoint_AVR8.h **** /** \ingroup Group_EndpointPrimitiveRW
  47:../../LUFA-111009/LUFA/Drivers/USB/Core/AVR8/../AVR8/../AVR8/Endpoint_AVR8.h ****  *  \defgroup Group_EndpointPrimitiveRW_AVR8 Read/Write of Primitive Data Types (AVR8)
  48:../../LUFA-111009/LUFA/Drivers/USB/Core/AVR8/../AVR8/../AVR8/Endpoint_AVR8.h ****  *  \brief Endpoint primitive read/write definitions for the Atmel AVR8 architecture.
  49:../../LUFA-111009/LUFA/Drivers/USB/Core/AVR8/../AVR8/../AVR8/Endpoint_AVR8.h ****  *
  50:../../LUFA-111009/LUFA/Drivers/USB/Core/AVR8/../AVR8/../AVR8/Endpoint_AVR8.h ****  *  Functions, macros, variables, enums and types related to data reading and writing of primitive 
  51:../../LUFA-111009/LUFA/Drivers/USB/Core/AVR8/../AVR8/../AVR8/Endpoint_AVR8.h ****  *  from and to endpoints.
  52:../../LUFA-111009/LUFA/Drivers/USB/Core/AVR8/../AVR8/../AVR8/Endpoint_AVR8.h ****  */
  53:../../LUFA-111009/LUFA/Drivers/USB/Core/AVR8/../AVR8/../AVR8/Endpoint_AVR8.h **** 
  54:../../LUFA-111009/LUFA/Drivers/USB/Core/AVR8/../AVR8/../AVR8/Endpoint_AVR8.h **** /** \ingroup Group_EndpointPacketManagement
  55:../../LUFA-111009/LUFA/Drivers/USB/Core/AVR8/../AVR8/../AVR8/Endpoint_AVR8.h ****  *  \defgroup Group_EndpointPacketManagement_AVR8 Endpoint Packet Management (AVR8)
  56:../../LUFA-111009/LUFA/Drivers/USB/Core/AVR8/../AVR8/../AVR8/Endpoint_AVR8.h ****  *  \brief Endpoint packet management definitions for the Atmel AVR8 architecture.
  57:../../LUFA-111009/LUFA/Drivers/USB/Core/AVR8/../AVR8/../AVR8/Endpoint_AVR8.h ****  *
  58:../../LUFA-111009/LUFA/Drivers/USB/Core/AVR8/../AVR8/../AVR8/Endpoint_AVR8.h ****  *  Functions, macros, variables, enums and types related to packet management of endpoints.
  59:../../LUFA-111009/LUFA/Drivers/USB/Core/AVR8/../AVR8/../AVR8/Endpoint_AVR8.h ****  */
  60:../../LUFA-111009/LUFA/Drivers/USB/Core/AVR8/../AVR8/../AVR8/Endpoint_AVR8.h **** 
  61:../../LUFA-111009/LUFA/Drivers/USB/Core/AVR8/../AVR8/../AVR8/Endpoint_AVR8.h **** /** \ingroup Group_EndpointManagement
  62:../../LUFA-111009/LUFA/Drivers/USB/Core/AVR8/../AVR8/../AVR8/Endpoint_AVR8.h ****  *  \defgroup Group_EndpointManagement_AVR8 Endpoint Management (AVR8)
  63:../../LUFA-111009/LUFA/Drivers/USB/Core/AVR8/../AVR8/../AVR8/Endpoint_AVR8.h ****  *  \brief Endpoint management definitions for the Atmel AVR8 architecture.
  64:../../LUFA-111009/LUFA/Drivers/USB/Core/AVR8/../AVR8/../AVR8/Endpoint_AVR8.h ****  *
  65:../../LUFA-111009/LUFA/Drivers/USB/Core/AVR8/../AVR8/../AVR8/Endpoint_AVR8.h ****  *  Functions, macros and enums related to endpoint management when in USB Device mode. This
  66:../../LUFA-111009/LUFA/Drivers/USB/Core/AVR8/../AVR8/../AVR8/Endpoint_AVR8.h ****  *  module contains the endpoint management macros, as well as endpoint interrupt and data
  67:../../LUFA-111009/LUFA/Drivers/USB/Core/AVR8/../AVR8/../AVR8/Endpoint_AVR8.h ****  *  send/receive functions for various data types.
  68:../../LUFA-111009/LUFA/Drivers/USB/Core/AVR8/../AVR8/../AVR8/Endpoint_AVR8.h ****  *
  69:../../LUFA-111009/LUFA/Drivers/USB/Core/AVR8/../AVR8/../AVR8/Endpoint_AVR8.h ****  *  @{
  70:../../LUFA-111009/LUFA/Drivers/USB/Core/AVR8/../AVR8/../AVR8/Endpoint_AVR8.h ****  */
  71:../../LUFA-111009/LUFA/Drivers/USB/Core/AVR8/../AVR8/../AVR8/Endpoint_AVR8.h **** 
  72:../../LUFA-111009/LUFA/Drivers/USB/Core/AVR8/../AVR8/../AVR8/Endpoint_AVR8.h **** #ifndef __ENDPOINT_AVR8_H__
  73:../../LUFA-111009/LUFA/Drivers/USB/Core/AVR8/../AVR8/../AVR8/Endpoint_AVR8.h **** #define __ENDPOINT_AVR8_H__
  74:../../LUFA-111009/LUFA/Drivers/USB/Core/AVR8/../AVR8/../AVR8/Endpoint_AVR8.h **** 
  75:../../LUFA-111009/LUFA/Drivers/USB/Core/AVR8/../AVR8/../AVR8/Endpoint_AVR8.h **** 	/* Includes: */
  76:../../LUFA-111009/LUFA/Drivers/USB/Core/AVR8/../AVR8/../AVR8/Endpoint_AVR8.h **** 		#include "../../../../Common/Common.h"
  77:../../LUFA-111009/LUFA/Drivers/USB/Core/AVR8/../AVR8/../AVR8/Endpoint_AVR8.h **** 		#include "../USBTask.h"
  78:../../LUFA-111009/LUFA/Drivers/USB/Core/AVR8/../AVR8/../AVR8/Endpoint_AVR8.h **** 		#include "../USBInterrupt.h"
  79:../../LUFA-111009/LUFA/Drivers/USB/Core/AVR8/../AVR8/../AVR8/Endpoint_AVR8.h **** 
  80:../../LUFA-111009/LUFA/Drivers/USB/Core/AVR8/../AVR8/../AVR8/Endpoint_AVR8.h **** 	/* Enable C linkage for C++ Compilers: */
  81:../../LUFA-111009/LUFA/Drivers/USB/Core/AVR8/../AVR8/../AVR8/Endpoint_AVR8.h **** 		#if defined(__cplusplus)
  82:../../LUFA-111009/LUFA/Drivers/USB/Core/AVR8/../AVR8/../AVR8/Endpoint_AVR8.h **** 			extern "C" {
  83:../../LUFA-111009/LUFA/Drivers/USB/Core/AVR8/../AVR8/../AVR8/Endpoint_AVR8.h **** 		#endif
  84:../../LUFA-111009/LUFA/Drivers/USB/Core/AVR8/../AVR8/../AVR8/Endpoint_AVR8.h **** 
  85:../../LUFA-111009/LUFA/Drivers/USB/Core/AVR8/../AVR8/../AVR8/Endpoint_AVR8.h **** 	/* Preprocessor Checks: */
  86:../../LUFA-111009/LUFA/Drivers/USB/Core/AVR8/../AVR8/../AVR8/Endpoint_AVR8.h **** 		#if !defined(__INCLUDE_FROM_USB_DRIVER)
  87:../../LUFA-111009/LUFA/Drivers/USB/Core/AVR8/../AVR8/../AVR8/Endpoint_AVR8.h **** 			#error Do not include this file directly. Include LUFA/Drivers/USB/USB.h instead.
  88:../../LUFA-111009/LUFA/Drivers/USB/Core/AVR8/../AVR8/../AVR8/Endpoint_AVR8.h **** 		#endif
  89:../../LUFA-111009/LUFA/Drivers/USB/Core/AVR8/../AVR8/../AVR8/Endpoint_AVR8.h **** 
  90:../../LUFA-111009/LUFA/Drivers/USB/Core/AVR8/../AVR8/../AVR8/Endpoint_AVR8.h **** 	/* Private Interface - For use in library only: */
  91:../../LUFA-111009/LUFA/Drivers/USB/Core/AVR8/../AVR8/../AVR8/Endpoint_AVR8.h **** 	#if !defined(__DOXYGEN__)
  92:../../LUFA-111009/LUFA/Drivers/USB/Core/AVR8/../AVR8/../AVR8/Endpoint_AVR8.h **** 		/* Macros: */
  93:../../LUFA-111009/LUFA/Drivers/USB/Core/AVR8/../AVR8/../AVR8/Endpoint_AVR8.h **** 			#define _ENDPOINT_GET_MAXSIZE(EPIndex)         _ENDPOINT_GET_MAXSIZE2(ENDPOINT_DETAILS_EP ## EPI
  94:../../LUFA-111009/LUFA/Drivers/USB/Core/AVR8/../AVR8/../AVR8/Endpoint_AVR8.h **** 			#define _ENDPOINT_GET_MAXSIZE2(EPDetails)      _ENDPOINT_GET_MAXSIZE3(EPDetails)
  95:../../LUFA-111009/LUFA/Drivers/USB/Core/AVR8/../AVR8/../AVR8/Endpoint_AVR8.h **** 			#define _ENDPOINT_GET_MAXSIZE3(MaxSize, Banks) (MaxSize)
  96:../../LUFA-111009/LUFA/Drivers/USB/Core/AVR8/../AVR8/../AVR8/Endpoint_AVR8.h **** 
  97:../../LUFA-111009/LUFA/Drivers/USB/Core/AVR8/../AVR8/../AVR8/Endpoint_AVR8.h **** 			#define _ENDPOINT_GET_BANKS(EPIndex)           _ENDPOINT_GET_BANKS2(ENDPOINT_DETAILS_EP ## EPInd
  98:../../LUFA-111009/LUFA/Drivers/USB/Core/AVR8/../AVR8/../AVR8/Endpoint_AVR8.h **** 			#define _ENDPOINT_GET_BANKS2(EPDetails)        _ENDPOINT_GET_BANKS3(EPDetails)
  99:../../LUFA-111009/LUFA/Drivers/USB/Core/AVR8/../AVR8/../AVR8/Endpoint_AVR8.h **** 			#define _ENDPOINT_GET_BANKS3(MaxSize, Banks)   (Banks)
 100:../../LUFA-111009/LUFA/Drivers/USB/Core/AVR8/../AVR8/../AVR8/Endpoint_AVR8.h **** 
 101:../../LUFA-111009/LUFA/Drivers/USB/Core/AVR8/../AVR8/../AVR8/Endpoint_AVR8.h **** 			#if defined(USB_SERIES_4_AVR) || defined(USB_SERIES_6_AVR) || defined(USB_SERIES_7_AVR)
 102:../../LUFA-111009/LUFA/Drivers/USB/Core/AVR8/../AVR8/../AVR8/Endpoint_AVR8.h **** 				#define ENDPOINT_DETAILS_MAXEP             7
 103:../../LUFA-111009/LUFA/Drivers/USB/Core/AVR8/../AVR8/../AVR8/Endpoint_AVR8.h **** 
 104:../../LUFA-111009/LUFA/Drivers/USB/Core/AVR8/../AVR8/../AVR8/Endpoint_AVR8.h **** 				#define ENDPOINT_DETAILS_EP0               64,  1
 105:../../LUFA-111009/LUFA/Drivers/USB/Core/AVR8/../AVR8/../AVR8/Endpoint_AVR8.h **** 				#define ENDPOINT_DETAILS_EP1               256, 2
 106:../../LUFA-111009/LUFA/Drivers/USB/Core/AVR8/../AVR8/../AVR8/Endpoint_AVR8.h **** 				#define ENDPOINT_DETAILS_EP2               64,  2
 107:../../LUFA-111009/LUFA/Drivers/USB/Core/AVR8/../AVR8/../AVR8/Endpoint_AVR8.h **** 				#define ENDPOINT_DETAILS_EP3               64,  2
 108:../../LUFA-111009/LUFA/Drivers/USB/Core/AVR8/../AVR8/../AVR8/Endpoint_AVR8.h **** 				#define ENDPOINT_DETAILS_EP4               64,  2
 109:../../LUFA-111009/LUFA/Drivers/USB/Core/AVR8/../AVR8/../AVR8/Endpoint_AVR8.h **** 				#define ENDPOINT_DETAILS_EP5               64,  2
 110:../../LUFA-111009/LUFA/Drivers/USB/Core/AVR8/../AVR8/../AVR8/Endpoint_AVR8.h **** 				#define ENDPOINT_DETAILS_EP6               64,  2
 111:../../LUFA-111009/LUFA/Drivers/USB/Core/AVR8/../AVR8/../AVR8/Endpoint_AVR8.h **** 			#else
 112:../../LUFA-111009/LUFA/Drivers/USB/Core/AVR8/../AVR8/../AVR8/Endpoint_AVR8.h **** 				#define ENDPOINT_DETAILS_MAXEP             5
 113:../../LUFA-111009/LUFA/Drivers/USB/Core/AVR8/../AVR8/../AVR8/Endpoint_AVR8.h **** 
 114:../../LUFA-111009/LUFA/Drivers/USB/Core/AVR8/../AVR8/../AVR8/Endpoint_AVR8.h **** 				#define ENDPOINT_DETAILS_EP0               64,  1
 115:../../LUFA-111009/LUFA/Drivers/USB/Core/AVR8/../AVR8/../AVR8/Endpoint_AVR8.h **** 				#define ENDPOINT_DETAILS_EP1               64,  1
 116:../../LUFA-111009/LUFA/Drivers/USB/Core/AVR8/../AVR8/../AVR8/Endpoint_AVR8.h **** 				#define ENDPOINT_DETAILS_EP2               64,  1
 117:../../LUFA-111009/LUFA/Drivers/USB/Core/AVR8/../AVR8/../AVR8/Endpoint_AVR8.h **** 				#define ENDPOINT_DETAILS_EP3               64,  2
 118:../../LUFA-111009/LUFA/Drivers/USB/Core/AVR8/../AVR8/../AVR8/Endpoint_AVR8.h **** 				#define ENDPOINT_DETAILS_EP4               64,  2
 119:../../LUFA-111009/LUFA/Drivers/USB/Core/AVR8/../AVR8/../AVR8/Endpoint_AVR8.h **** 			#endif
 120:../../LUFA-111009/LUFA/Drivers/USB/Core/AVR8/../AVR8/../AVR8/Endpoint_AVR8.h **** 
 121:../../LUFA-111009/LUFA/Drivers/USB/Core/AVR8/../AVR8/../AVR8/Endpoint_AVR8.h **** 		/* Inline Functions: */
 122:../../LUFA-111009/LUFA/Drivers/USB/Core/AVR8/../AVR8/../AVR8/Endpoint_AVR8.h **** 			static inline uint8_t Endpoint_BytesToEPSizeMask(const uint16_t Bytes) ATTR_WARN_UNUSED_RESULT A
 123:../../LUFA-111009/LUFA/Drivers/USB/Core/AVR8/../AVR8/../AVR8/Endpoint_AVR8.h **** 			                                                                       ATTR_ALWAYS_INLINE;
 124:../../LUFA-111009/LUFA/Drivers/USB/Core/AVR8/../AVR8/../AVR8/Endpoint_AVR8.h **** 			static inline uint8_t Endpoint_BytesToEPSizeMask(const uint16_t Bytes)
 125:../../LUFA-111009/LUFA/Drivers/USB/Core/AVR8/../AVR8/../AVR8/Endpoint_AVR8.h **** 			{
 126:../../LUFA-111009/LUFA/Drivers/USB/Core/AVR8/../AVR8/../AVR8/Endpoint_AVR8.h **** 				uint8_t  MaskVal    = 0;
 127:../../LUFA-111009/LUFA/Drivers/USB/Core/AVR8/../AVR8/../AVR8/Endpoint_AVR8.h **** 				uint16_t CheckBytes = 8;
 128:../../LUFA-111009/LUFA/Drivers/USB/Core/AVR8/../AVR8/../AVR8/Endpoint_AVR8.h **** 
 129:../../LUFA-111009/LUFA/Drivers/USB/Core/AVR8/../AVR8/../AVR8/Endpoint_AVR8.h **** 				while (CheckBytes < Bytes)
 130:../../LUFA-111009/LUFA/Drivers/USB/Core/AVR8/../AVR8/../AVR8/Endpoint_AVR8.h **** 				{
 131:../../LUFA-111009/LUFA/Drivers/USB/Core/AVR8/../AVR8/../AVR8/Endpoint_AVR8.h **** 					MaskVal++;
 132:../../LUFA-111009/LUFA/Drivers/USB/Core/AVR8/../AVR8/../AVR8/Endpoint_AVR8.h **** 					CheckBytes <<= 1;
 133:../../LUFA-111009/LUFA/Drivers/USB/Core/AVR8/../AVR8/../AVR8/Endpoint_AVR8.h **** 				}
 134:../../LUFA-111009/LUFA/Drivers/USB/Core/AVR8/../AVR8/../AVR8/Endpoint_AVR8.h **** 
 135:../../LUFA-111009/LUFA/Drivers/USB/Core/AVR8/../AVR8/../AVR8/Endpoint_AVR8.h **** 				return (MaskVal << EPSIZE0);
 136:../../LUFA-111009/LUFA/Drivers/USB/Core/AVR8/../AVR8/../AVR8/Endpoint_AVR8.h **** 			}
 137:../../LUFA-111009/LUFA/Drivers/USB/Core/AVR8/../AVR8/../AVR8/Endpoint_AVR8.h **** 
 138:../../LUFA-111009/LUFA/Drivers/USB/Core/AVR8/../AVR8/../AVR8/Endpoint_AVR8.h **** 		/* Function Prototypes: */
 139:../../LUFA-111009/LUFA/Drivers/USB/Core/AVR8/../AVR8/../AVR8/Endpoint_AVR8.h **** 			void Endpoint_ClearEndpoints(void);
 140:../../LUFA-111009/LUFA/Drivers/USB/Core/AVR8/../AVR8/../AVR8/Endpoint_AVR8.h **** 			bool Endpoint_ConfigureEndpoint_Prv(const uint8_t Number,
 141:../../LUFA-111009/LUFA/Drivers/USB/Core/AVR8/../AVR8/../AVR8/Endpoint_AVR8.h **** 			                                    const uint8_t UECFG0XData,
 142:../../LUFA-111009/LUFA/Drivers/USB/Core/AVR8/../AVR8/../AVR8/Endpoint_AVR8.h **** 			                                    const uint8_t UECFG1XData);
 143:../../LUFA-111009/LUFA/Drivers/USB/Core/AVR8/../AVR8/../AVR8/Endpoint_AVR8.h **** 
 144:../../LUFA-111009/LUFA/Drivers/USB/Core/AVR8/../AVR8/../AVR8/Endpoint_AVR8.h **** 	#endif
 145:../../LUFA-111009/LUFA/Drivers/USB/Core/AVR8/../AVR8/../AVR8/Endpoint_AVR8.h **** 
 146:../../LUFA-111009/LUFA/Drivers/USB/Core/AVR8/../AVR8/../AVR8/Endpoint_AVR8.h **** 	/* Public Interface - May be used in end-application: */
 147:../../LUFA-111009/LUFA/Drivers/USB/Core/AVR8/../AVR8/../AVR8/Endpoint_AVR8.h **** 		/* Macros: */			
 148:../../LUFA-111009/LUFA/Drivers/USB/Core/AVR8/../AVR8/../AVR8/Endpoint_AVR8.h **** 			/** \name Endpoint Bank Mode Masks */
 149:../../LUFA-111009/LUFA/Drivers/USB/Core/AVR8/../AVR8/../AVR8/Endpoint_AVR8.h **** 			//@{
 150:../../LUFA-111009/LUFA/Drivers/USB/Core/AVR8/../AVR8/../AVR8/Endpoint_AVR8.h **** 			/** Mask for the bank mode selection for the \ref Endpoint_ConfigureEndpoint() macro. This indic
 151:../../LUFA-111009/LUFA/Drivers/USB/Core/AVR8/../AVR8/../AVR8/Endpoint_AVR8.h **** 			 *  that the endpoint should have one single bank, which requires less USB FIFO memory but resul
 152:../../LUFA-111009/LUFA/Drivers/USB/Core/AVR8/../AVR8/../AVR8/Endpoint_AVR8.h **** 			 *  in slower transfers as only one USB device (the AVR or the host) can access the endpoint's
 153:../../LUFA-111009/LUFA/Drivers/USB/Core/AVR8/../AVR8/../AVR8/Endpoint_AVR8.h **** 			 *  bank at the one time.
 154:../../LUFA-111009/LUFA/Drivers/USB/Core/AVR8/../AVR8/../AVR8/Endpoint_AVR8.h **** 			 */
 155:../../LUFA-111009/LUFA/Drivers/USB/Core/AVR8/../AVR8/../AVR8/Endpoint_AVR8.h **** 			#define ENDPOINT_BANK_SINGLE                    (0 << EPBK0)
 156:../../LUFA-111009/LUFA/Drivers/USB/Core/AVR8/../AVR8/../AVR8/Endpoint_AVR8.h **** 
 157:../../LUFA-111009/LUFA/Drivers/USB/Core/AVR8/../AVR8/../AVR8/Endpoint_AVR8.h **** 			/** Mask for the bank mode selection for the \ref Endpoint_ConfigureEndpoint() macro. This indic
 158:../../LUFA-111009/LUFA/Drivers/USB/Core/AVR8/../AVR8/../AVR8/Endpoint_AVR8.h **** 			 *  that the endpoint should have two banks, which requires more USB FIFO memory but results
 159:../../LUFA-111009/LUFA/Drivers/USB/Core/AVR8/../AVR8/../AVR8/Endpoint_AVR8.h **** 			 *  in faster transfers as one USB device (the AVR or the host) can access one bank while the ot
 160:../../LUFA-111009/LUFA/Drivers/USB/Core/AVR8/../AVR8/../AVR8/Endpoint_AVR8.h **** 			 *  accesses the second bank.
 161:../../LUFA-111009/LUFA/Drivers/USB/Core/AVR8/../AVR8/../AVR8/Endpoint_AVR8.h **** 			 */
 162:../../LUFA-111009/LUFA/Drivers/USB/Core/AVR8/../AVR8/../AVR8/Endpoint_AVR8.h **** 			#define ENDPOINT_BANK_DOUBLE                    (1 << EPBK0)
 163:../../LUFA-111009/LUFA/Drivers/USB/Core/AVR8/../AVR8/../AVR8/Endpoint_AVR8.h **** 			//@}
 164:../../LUFA-111009/LUFA/Drivers/USB/Core/AVR8/../AVR8/../AVR8/Endpoint_AVR8.h **** 
 165:../../LUFA-111009/LUFA/Drivers/USB/Core/AVR8/../AVR8/../AVR8/Endpoint_AVR8.h **** 			#if (!defined(FIXED_CONTROL_ENDPOINT_SIZE) || defined(__DOXYGEN__))
 166:../../LUFA-111009/LUFA/Drivers/USB/Core/AVR8/../AVR8/../AVR8/Endpoint_AVR8.h **** 				/** Default size of the default control endpoint's bank, until altered by the control endpoint 
 167:../../LUFA-111009/LUFA/Drivers/USB/Core/AVR8/../AVR8/../AVR8/Endpoint_AVR8.h **** 				 *  value in the device descriptor. Not available if the \c FIXED_CONTROL_ENDPOINT_SIZE token i
 168:../../LUFA-111009/LUFA/Drivers/USB/Core/AVR8/../AVR8/../AVR8/Endpoint_AVR8.h **** 				 */
 169:../../LUFA-111009/LUFA/Drivers/USB/Core/AVR8/../AVR8/../AVR8/Endpoint_AVR8.h **** 				#define ENDPOINT_CONTROLEP_DEFAULT_SIZE     8
 170:../../LUFA-111009/LUFA/Drivers/USB/Core/AVR8/../AVR8/../AVR8/Endpoint_AVR8.h **** 			#endif
 171:../../LUFA-111009/LUFA/Drivers/USB/Core/AVR8/../AVR8/../AVR8/Endpoint_AVR8.h **** 
 172:../../LUFA-111009/LUFA/Drivers/USB/Core/AVR8/../AVR8/../AVR8/Endpoint_AVR8.h **** 			/** Retrieves the maximum bank size in bytes of a given endpoint.
 173:../../LUFA-111009/LUFA/Drivers/USB/Core/AVR8/../AVR8/../AVR8/Endpoint_AVR8.h **** 			 *
 174:../../LUFA-111009/LUFA/Drivers/USB/Core/AVR8/../AVR8/../AVR8/Endpoint_AVR8.h **** 			 *  \note This macro will only work correctly on endpoint indexes that are compile-time constant
 175:../../LUFA-111009/LUFA/Drivers/USB/Core/AVR8/../AVR8/../AVR8/Endpoint_AVR8.h **** 			 *        defined by the preprocessor.
 176:../../LUFA-111009/LUFA/Drivers/USB/Core/AVR8/../AVR8/../AVR8/Endpoint_AVR8.h **** 			 *
 177:../../LUFA-111009/LUFA/Drivers/USB/Core/AVR8/../AVR8/../AVR8/Endpoint_AVR8.h **** 			 *  \param[in] EPIndex  Endpoint number, a value between 0 and (\ref ENDPOINT_TOTAL_ENDPOINTS - 
 178:../../LUFA-111009/LUFA/Drivers/USB/Core/AVR8/../AVR8/../AVR8/Endpoint_AVR8.h **** 			 */
 179:../../LUFA-111009/LUFA/Drivers/USB/Core/AVR8/../AVR8/../AVR8/Endpoint_AVR8.h **** 			#define ENDPOINT_MAX_SIZE(EPIndex)              _ENDPOINT_GET_MAXSIZE(EPIndex)
 180:../../LUFA-111009/LUFA/Drivers/USB/Core/AVR8/../AVR8/../AVR8/Endpoint_AVR8.h **** 
 181:../../LUFA-111009/LUFA/Drivers/USB/Core/AVR8/../AVR8/../AVR8/Endpoint_AVR8.h **** 			/** Retrieves the total number of banks supported by the given endpoint.
 182:../../LUFA-111009/LUFA/Drivers/USB/Core/AVR8/../AVR8/../AVR8/Endpoint_AVR8.h **** 			 *
 183:../../LUFA-111009/LUFA/Drivers/USB/Core/AVR8/../AVR8/../AVR8/Endpoint_AVR8.h **** 			 *  \note This macro will only work correctly on endpoint indexes that are compile-time constant
 184:../../LUFA-111009/LUFA/Drivers/USB/Core/AVR8/../AVR8/../AVR8/Endpoint_AVR8.h **** 			 *        defined by the preprocessor.
 185:../../LUFA-111009/LUFA/Drivers/USB/Core/AVR8/../AVR8/../AVR8/Endpoint_AVR8.h **** 			 *
 186:../../LUFA-111009/LUFA/Drivers/USB/Core/AVR8/../AVR8/../AVR8/Endpoint_AVR8.h **** 			 *  \param[in] EPIndex  Endpoint number, a value between 0 and (\ref ENDPOINT_TOTAL_ENDPOINTS - 
 187:../../LUFA-111009/LUFA/Drivers/USB/Core/AVR8/../AVR8/../AVR8/Endpoint_AVR8.h **** 			 */
 188:../../LUFA-111009/LUFA/Drivers/USB/Core/AVR8/../AVR8/../AVR8/Endpoint_AVR8.h **** 			#define ENDPOINT_BANKS_SUPPORTED(EPIndex)       _ENDPOINT_GET_BANKS(EPIndex)
 189:../../LUFA-111009/LUFA/Drivers/USB/Core/AVR8/../AVR8/../AVR8/Endpoint_AVR8.h **** 
 190:../../LUFA-111009/LUFA/Drivers/USB/Core/AVR8/../AVR8/../AVR8/Endpoint_AVR8.h **** 			#if !defined(CONTROL_ONLY_DEVICE) || defined(__DOXYGEN__)
 191:../../LUFA-111009/LUFA/Drivers/USB/Core/AVR8/../AVR8/../AVR8/Endpoint_AVR8.h **** 				/** Total number of endpoints (including the default control endpoint at address 0) which may
 192:../../LUFA-111009/LUFA/Drivers/USB/Core/AVR8/../AVR8/../AVR8/Endpoint_AVR8.h **** 				 *  be used in the device. Different USB AVR models support different amounts of endpoints,
 193:../../LUFA-111009/LUFA/Drivers/USB/Core/AVR8/../AVR8/../AVR8/Endpoint_AVR8.h **** 				 *  this value reflects the maximum number of endpoints for the currently selected AVR model.
 194:../../LUFA-111009/LUFA/Drivers/USB/Core/AVR8/../AVR8/../AVR8/Endpoint_AVR8.h **** 				 */
 195:../../LUFA-111009/LUFA/Drivers/USB/Core/AVR8/../AVR8/../AVR8/Endpoint_AVR8.h **** 				#define ENDPOINT_TOTAL_ENDPOINTS            ENDPOINT_DETAILS_MAXEP
 196:../../LUFA-111009/LUFA/Drivers/USB/Core/AVR8/../AVR8/../AVR8/Endpoint_AVR8.h **** 			#else
 197:../../LUFA-111009/LUFA/Drivers/USB/Core/AVR8/../AVR8/../AVR8/Endpoint_AVR8.h **** 				#define ENDPOINT_TOTAL_ENDPOINTS            1
 198:../../LUFA-111009/LUFA/Drivers/USB/Core/AVR8/../AVR8/../AVR8/Endpoint_AVR8.h **** 			#endif
 199:../../LUFA-111009/LUFA/Drivers/USB/Core/AVR8/../AVR8/../AVR8/Endpoint_AVR8.h **** 
 200:../../LUFA-111009/LUFA/Drivers/USB/Core/AVR8/../AVR8/../AVR8/Endpoint_AVR8.h **** 		/* Enums: */
 201:../../LUFA-111009/LUFA/Drivers/USB/Core/AVR8/../AVR8/../AVR8/Endpoint_AVR8.h **** 			/** Enum for the possible error return codes of the \ref Endpoint_WaitUntilReady() function.
 202:../../LUFA-111009/LUFA/Drivers/USB/Core/AVR8/../AVR8/../AVR8/Endpoint_AVR8.h **** 			 *
 203:../../LUFA-111009/LUFA/Drivers/USB/Core/AVR8/../AVR8/../AVR8/Endpoint_AVR8.h **** 			 *  \ingroup Group_EndpointRW_AVR8
 204:../../LUFA-111009/LUFA/Drivers/USB/Core/AVR8/../AVR8/../AVR8/Endpoint_AVR8.h **** 			 */
 205:../../LUFA-111009/LUFA/Drivers/USB/Core/AVR8/../AVR8/../AVR8/Endpoint_AVR8.h **** 			enum Endpoint_WaitUntilReady_ErrorCodes_t
 206:../../LUFA-111009/LUFA/Drivers/USB/Core/AVR8/../AVR8/../AVR8/Endpoint_AVR8.h **** 			{
 207:../../LUFA-111009/LUFA/Drivers/USB/Core/AVR8/../AVR8/../AVR8/Endpoint_AVR8.h **** 				ENDPOINT_READYWAIT_NoError                 = 0, /**< Endpoint is ready for next packet, no erro
 208:../../LUFA-111009/LUFA/Drivers/USB/Core/AVR8/../AVR8/../AVR8/Endpoint_AVR8.h **** 				ENDPOINT_READYWAIT_EndpointStalled         = 1, /**< The endpoint was stalled during the stream
 209:../../LUFA-111009/LUFA/Drivers/USB/Core/AVR8/../AVR8/../AVR8/Endpoint_AVR8.h **** 				                                                 *   transfer by the host or device.
 210:../../LUFA-111009/LUFA/Drivers/USB/Core/AVR8/../AVR8/../AVR8/Endpoint_AVR8.h **** 				                                                 */
 211:../../LUFA-111009/LUFA/Drivers/USB/Core/AVR8/../AVR8/../AVR8/Endpoint_AVR8.h **** 				ENDPOINT_READYWAIT_DeviceDisconnected      = 2,	/**< Device was disconnected from the host whil
 212:../../LUFA-111009/LUFA/Drivers/USB/Core/AVR8/../AVR8/../AVR8/Endpoint_AVR8.h **** 				                                                 *   waiting for the endpoint to become ready.
 213:../../LUFA-111009/LUFA/Drivers/USB/Core/AVR8/../AVR8/../AVR8/Endpoint_AVR8.h **** 				                                                 */
 214:../../LUFA-111009/LUFA/Drivers/USB/Core/AVR8/../AVR8/../AVR8/Endpoint_AVR8.h **** 				ENDPOINT_READYWAIT_BusSuspended            = 3, /**< The USB bus has been suspended by the host
 215:../../LUFA-111009/LUFA/Drivers/USB/Core/AVR8/../AVR8/../AVR8/Endpoint_AVR8.h **** 				                                                 *   no USB endpoint traffic can occur until th
 216:../../LUFA-111009/LUFA/Drivers/USB/Core/AVR8/../AVR8/../AVR8/Endpoint_AVR8.h **** 				                                                 *   has resumed.
 217:../../LUFA-111009/LUFA/Drivers/USB/Core/AVR8/../AVR8/../AVR8/Endpoint_AVR8.h **** 				                                                 */
 218:../../LUFA-111009/LUFA/Drivers/USB/Core/AVR8/../AVR8/../AVR8/Endpoint_AVR8.h **** 				ENDPOINT_READYWAIT_Timeout                 = 4, /**< The host failed to accept or send the next
 219:../../LUFA-111009/LUFA/Drivers/USB/Core/AVR8/../AVR8/../AVR8/Endpoint_AVR8.h **** 				                                                 *   within the software timeout period set by 
 220:../../LUFA-111009/LUFA/Drivers/USB/Core/AVR8/../AVR8/../AVR8/Endpoint_AVR8.h **** 				                                                 *   \ref USB_STREAM_TIMEOUT_MS macro.
 221:../../LUFA-111009/LUFA/Drivers/USB/Core/AVR8/../AVR8/../AVR8/Endpoint_AVR8.h **** 				                                                 */
 222:../../LUFA-111009/LUFA/Drivers/USB/Core/AVR8/../AVR8/../AVR8/Endpoint_AVR8.h **** 			};
 223:../../LUFA-111009/LUFA/Drivers/USB/Core/AVR8/../AVR8/../AVR8/Endpoint_AVR8.h **** 
 224:../../LUFA-111009/LUFA/Drivers/USB/Core/AVR8/../AVR8/../AVR8/Endpoint_AVR8.h **** 		/* Inline Functions: */
 225:../../LUFA-111009/LUFA/Drivers/USB/Core/AVR8/../AVR8/../AVR8/Endpoint_AVR8.h **** 			/** Configures the specified endpoint number with the given endpoint type, direction, bank size
 226:../../LUFA-111009/LUFA/Drivers/USB/Core/AVR8/../AVR8/../AVR8/Endpoint_AVR8.h **** 			 *  and banking mode. Once configured, the endpoint may be read from or written to, depending
 227:../../LUFA-111009/LUFA/Drivers/USB/Core/AVR8/../AVR8/../AVR8/Endpoint_AVR8.h **** 			 *  on its direction.
 228:../../LUFA-111009/LUFA/Drivers/USB/Core/AVR8/../AVR8/../AVR8/Endpoint_AVR8.h **** 			 *
 229:../../LUFA-111009/LUFA/Drivers/USB/Core/AVR8/../AVR8/../AVR8/Endpoint_AVR8.h **** 			 *  \param[in] Number     Endpoint number to configure. This must be more than 0 and less than
 230:../../LUFA-111009/LUFA/Drivers/USB/Core/AVR8/../AVR8/../AVR8/Endpoint_AVR8.h **** 			 *                        \ref ENDPOINT_TOTAL_ENDPOINTS.
 231:../../LUFA-111009/LUFA/Drivers/USB/Core/AVR8/../AVR8/../AVR8/Endpoint_AVR8.h **** 			 *
 232:../../LUFA-111009/LUFA/Drivers/USB/Core/AVR8/../AVR8/../AVR8/Endpoint_AVR8.h **** 			 *  \param[in] Type       Type of endpoint to configure, a \c EP_TYPE_* mask. Not all endpoint t
 233:../../LUFA-111009/LUFA/Drivers/USB/Core/AVR8/../AVR8/../AVR8/Endpoint_AVR8.h **** 			 *                        are available on Low Speed USB devices - refer to the USB 2.0 specific
 234:../../LUFA-111009/LUFA/Drivers/USB/Core/AVR8/../AVR8/../AVR8/Endpoint_AVR8.h **** 			 *
 235:../../LUFA-111009/LUFA/Drivers/USB/Core/AVR8/../AVR8/../AVR8/Endpoint_AVR8.h **** 			 *  \param[in] Direction  Endpoint data direction, either \ref ENDPOINT_DIR_OUT or \ref ENDPOINT
 236:../../LUFA-111009/LUFA/Drivers/USB/Core/AVR8/../AVR8/../AVR8/Endpoint_AVR8.h **** 			 *                        All endpoints (except Control type) are unidirectional - data may only
 237:../../LUFA-111009/LUFA/Drivers/USB/Core/AVR8/../AVR8/../AVR8/Endpoint_AVR8.h **** 			 *                        from or written to the endpoint bank based on its direction, not both.
 238:../../LUFA-111009/LUFA/Drivers/USB/Core/AVR8/../AVR8/../AVR8/Endpoint_AVR8.h **** 			 *
 239:../../LUFA-111009/LUFA/Drivers/USB/Core/AVR8/../AVR8/../AVR8/Endpoint_AVR8.h **** 			 *  \param[in] Size       Size of the endpoint's bank, where packets are stored before they are 
 240:../../LUFA-111009/LUFA/Drivers/USB/Core/AVR8/../AVR8/../AVR8/Endpoint_AVR8.h **** 			 *                        to the USB host, or after they have been received from the USB host (d
 241:../../LUFA-111009/LUFA/Drivers/USB/Core/AVR8/../AVR8/../AVR8/Endpoint_AVR8.h **** 			 *                        the endpoint's data direction). The bank size must indicate the maximu
 242:../../LUFA-111009/LUFA/Drivers/USB/Core/AVR8/../AVR8/../AVR8/Endpoint_AVR8.h **** 			 *                        that the endpoint can handle.
 243:../../LUFA-111009/LUFA/Drivers/USB/Core/AVR8/../AVR8/../AVR8/Endpoint_AVR8.h **** 			 *
 244:../../LUFA-111009/LUFA/Drivers/USB/Core/AVR8/../AVR8/../AVR8/Endpoint_AVR8.h **** 			 *  \param[in] Banks      Number of banks to use for the endpoint being configured, an \c ENDPOI
 245:../../LUFA-111009/LUFA/Drivers/USB/Core/AVR8/../AVR8/../AVR8/Endpoint_AVR8.h **** 			 *                        More banks uses more USB DPRAM, but offers better performance. Isochro
 246:../../LUFA-111009/LUFA/Drivers/USB/Core/AVR8/../AVR8/../AVR8/Endpoint_AVR8.h **** 			 *                        endpoints <b>must</b> have at least two banks.
 247:../../LUFA-111009/LUFA/Drivers/USB/Core/AVR8/../AVR8/../AVR8/Endpoint_AVR8.h **** 			 *
 248:../../LUFA-111009/LUFA/Drivers/USB/Core/AVR8/../AVR8/../AVR8/Endpoint_AVR8.h **** 			 *  \note When the \c ORDERED_EP_CONFIG compile time option is used, Endpoints <b>must</b> be co
 249:../../LUFA-111009/LUFA/Drivers/USB/Core/AVR8/../AVR8/../AVR8/Endpoint_AVR8.h **** 			 *        ascending order, or bank corruption will occur.
 250:../../LUFA-111009/LUFA/Drivers/USB/Core/AVR8/../AVR8/../AVR8/Endpoint_AVR8.h **** 			 *        \n\n
 251:../../LUFA-111009/LUFA/Drivers/USB/Core/AVR8/../AVR8/../AVR8/Endpoint_AVR8.h **** 			 *
 252:../../LUFA-111009/LUFA/Drivers/USB/Core/AVR8/../AVR8/../AVR8/Endpoint_AVR8.h **** 			 *  \note Different endpoints may have different maximum packet sizes based on the endpoint's in
 253:../../LUFA-111009/LUFA/Drivers/USB/Core/AVR8/../AVR8/../AVR8/Endpoint_AVR8.h **** 			 *        the chosen microcontroller model's datasheet to determine the maximum bank size for ea
 254:../../LUFA-111009/LUFA/Drivers/USB/Core/AVR8/../AVR8/../AVR8/Endpoint_AVR8.h **** 			 *        \n\n
 255:../../LUFA-111009/LUFA/Drivers/USB/Core/AVR8/../AVR8/../AVR8/Endpoint_AVR8.h **** 			 *
 256:../../LUFA-111009/LUFA/Drivers/USB/Core/AVR8/../AVR8/../AVR8/Endpoint_AVR8.h **** 			 *  \note The default control endpoint should not be manually configured by the user application
 257:../../LUFA-111009/LUFA/Drivers/USB/Core/AVR8/../AVR8/../AVR8/Endpoint_AVR8.h **** 			 *        it is automatically configured by the library internally.
 258:../../LUFA-111009/LUFA/Drivers/USB/Core/AVR8/../AVR8/../AVR8/Endpoint_AVR8.h **** 			 *        \n\n
 259:../../LUFA-111009/LUFA/Drivers/USB/Core/AVR8/../AVR8/../AVR8/Endpoint_AVR8.h **** 			 *
 260:../../LUFA-111009/LUFA/Drivers/USB/Core/AVR8/../AVR8/../AVR8/Endpoint_AVR8.h **** 			 *  \note This routine will automatically select the specified endpoint upon success. Upon failu
 261:../../LUFA-111009/LUFA/Drivers/USB/Core/AVR8/../AVR8/../AVR8/Endpoint_AVR8.h **** 			 *        which failed to reconfigure correctly will be selected.
 262:../../LUFA-111009/LUFA/Drivers/USB/Core/AVR8/../AVR8/../AVR8/Endpoint_AVR8.h **** 			 *
 263:../../LUFA-111009/LUFA/Drivers/USB/Core/AVR8/../AVR8/../AVR8/Endpoint_AVR8.h **** 			 *  \return Boolean \c true if the configuration succeeded, \c false otherwise.
 264:../../LUFA-111009/LUFA/Drivers/USB/Core/AVR8/../AVR8/../AVR8/Endpoint_AVR8.h **** 			 */
 265:../../LUFA-111009/LUFA/Drivers/USB/Core/AVR8/../AVR8/../AVR8/Endpoint_AVR8.h **** 			static inline bool Endpoint_ConfigureEndpoint(const uint8_t Number,
 266:../../LUFA-111009/LUFA/Drivers/USB/Core/AVR8/../AVR8/../AVR8/Endpoint_AVR8.h **** 			                                              const uint8_t Type,
 267:../../LUFA-111009/LUFA/Drivers/USB/Core/AVR8/../AVR8/../AVR8/Endpoint_AVR8.h **** 			                                              const uint8_t Direction,
 268:../../LUFA-111009/LUFA/Drivers/USB/Core/AVR8/../AVR8/../AVR8/Endpoint_AVR8.h **** 			                                              const uint16_t Size,
 269:../../LUFA-111009/LUFA/Drivers/USB/Core/AVR8/../AVR8/../AVR8/Endpoint_AVR8.h **** 			                                              const uint8_t Banks) ATTR_ALWAYS_INLINE;
 270:../../LUFA-111009/LUFA/Drivers/USB/Core/AVR8/../AVR8/../AVR8/Endpoint_AVR8.h **** 			static inline bool Endpoint_ConfigureEndpoint(const uint8_t Number,
 271:../../LUFA-111009/LUFA/Drivers/USB/Core/AVR8/../AVR8/../AVR8/Endpoint_AVR8.h **** 			                                              const uint8_t Type,
 272:../../LUFA-111009/LUFA/Drivers/USB/Core/AVR8/../AVR8/../AVR8/Endpoint_AVR8.h **** 			                                              const uint8_t Direction,
 273:../../LUFA-111009/LUFA/Drivers/USB/Core/AVR8/../AVR8/../AVR8/Endpoint_AVR8.h **** 			                                              const uint16_t Size,
 274:../../LUFA-111009/LUFA/Drivers/USB/Core/AVR8/../AVR8/../AVR8/Endpoint_AVR8.h **** 			                                              const uint8_t Banks)
 275:../../LUFA-111009/LUFA/Drivers/USB/Core/AVR8/../AVR8/../AVR8/Endpoint_AVR8.h **** 			{
 276:../../LUFA-111009/LUFA/Drivers/USB/Core/AVR8/../AVR8/../AVR8/Endpoint_AVR8.h **** 				return Endpoint_ConfigureEndpoint_Prv(Number, ((Type << EPTYPE0) | (Direction ? (1 << EPDIR) : 
 277:../../LUFA-111009/LUFA/Drivers/USB/Core/AVR8/../AVR8/../AVR8/Endpoint_AVR8.h **** 				                                      ((1 << ALLOC) | Banks | Endpoint_BytesToEPSizeMask(Size))
 278:../../LUFA-111009/LUFA/Drivers/USB/Core/AVR8/../AVR8/../AVR8/Endpoint_AVR8.h **** 			}
 279:../../LUFA-111009/LUFA/Drivers/USB/Core/AVR8/../AVR8/../AVR8/Endpoint_AVR8.h **** 
 280:../../LUFA-111009/LUFA/Drivers/USB/Core/AVR8/../AVR8/../AVR8/Endpoint_AVR8.h **** 			/** Indicates the number of bytes currently stored in the current endpoint's selected bank.
 281:../../LUFA-111009/LUFA/Drivers/USB/Core/AVR8/../AVR8/../AVR8/Endpoint_AVR8.h **** 			 *
 282:../../LUFA-111009/LUFA/Drivers/USB/Core/AVR8/../AVR8/../AVR8/Endpoint_AVR8.h **** 			 *  \note The return width of this function may differ, depending on the maximum endpoint bank s
 283:../../LUFA-111009/LUFA/Drivers/USB/Core/AVR8/../AVR8/../AVR8/Endpoint_AVR8.h **** 			 *        of the selected AVR model.
 284:../../LUFA-111009/LUFA/Drivers/USB/Core/AVR8/../AVR8/../AVR8/Endpoint_AVR8.h **** 			 *
 285:../../LUFA-111009/LUFA/Drivers/USB/Core/AVR8/../AVR8/../AVR8/Endpoint_AVR8.h **** 			 *  \ingroup Group_EndpointRW_AVR8
 286:../../LUFA-111009/LUFA/Drivers/USB/Core/AVR8/../AVR8/../AVR8/Endpoint_AVR8.h **** 			 *
 287:../../LUFA-111009/LUFA/Drivers/USB/Core/AVR8/../AVR8/../AVR8/Endpoint_AVR8.h **** 			 *  \return Total number of bytes in the currently selected Endpoint's FIFO buffer.
 288:../../LUFA-111009/LUFA/Drivers/USB/Core/AVR8/../AVR8/../AVR8/Endpoint_AVR8.h **** 			 */
 289:../../LUFA-111009/LUFA/Drivers/USB/Core/AVR8/../AVR8/../AVR8/Endpoint_AVR8.h **** 			static inline uint16_t Endpoint_BytesInEndpoint(void) ATTR_WARN_UNUSED_RESULT ATTR_ALWAYS_INLINE
 290:../../LUFA-111009/LUFA/Drivers/USB/Core/AVR8/../AVR8/../AVR8/Endpoint_AVR8.h **** 			static inline uint16_t Endpoint_BytesInEndpoint(void)
 291:../../LUFA-111009/LUFA/Drivers/USB/Core/AVR8/../AVR8/../AVR8/Endpoint_AVR8.h **** 			{
 292:../../LUFA-111009/LUFA/Drivers/USB/Core/AVR8/../AVR8/../AVR8/Endpoint_AVR8.h **** 				#if defined(USB_SERIES_6_AVR) || defined(USB_SERIES_7_AVR)
 293:../../LUFA-111009/LUFA/Drivers/USB/Core/AVR8/../AVR8/../AVR8/Endpoint_AVR8.h **** 					return UEBCX;
 294:../../LUFA-111009/LUFA/Drivers/USB/Core/AVR8/../AVR8/../AVR8/Endpoint_AVR8.h **** 				#elif defined(USB_SERIES_4_AVR)
 295:../../LUFA-111009/LUFA/Drivers/USB/Core/AVR8/../AVR8/../AVR8/Endpoint_AVR8.h **** 					return (((uint16_t)UEBCHX << 8) | UEBCLX);
 296:../../LUFA-111009/LUFA/Drivers/USB/Core/AVR8/../AVR8/../AVR8/Endpoint_AVR8.h **** 				#elif defined(USB_SERIES_2_AVR)
 297:../../LUFA-111009/LUFA/Drivers/USB/Core/AVR8/../AVR8/../AVR8/Endpoint_AVR8.h **** 					return UEBCLX;
 298:../../LUFA-111009/LUFA/Drivers/USB/Core/AVR8/../AVR8/../AVR8/Endpoint_AVR8.h **** 				#endif
 299:../../LUFA-111009/LUFA/Drivers/USB/Core/AVR8/../AVR8/../AVR8/Endpoint_AVR8.h **** 			}
 300:../../LUFA-111009/LUFA/Drivers/USB/Core/AVR8/../AVR8/../AVR8/Endpoint_AVR8.h **** 
 301:../../LUFA-111009/LUFA/Drivers/USB/Core/AVR8/../AVR8/../AVR8/Endpoint_AVR8.h **** 			/** Get the endpoint address of the currently selected endpoint. This is typically used to save
 302:../../LUFA-111009/LUFA/Drivers/USB/Core/AVR8/../AVR8/../AVR8/Endpoint_AVR8.h **** 			 *  the currently selected endpoint number so that it can be restored after another endpoint has
 303:../../LUFA-111009/LUFA/Drivers/USB/Core/AVR8/../AVR8/../AVR8/Endpoint_AVR8.h **** 			 *  been manipulated.
 304:../../LUFA-111009/LUFA/Drivers/USB/Core/AVR8/../AVR8/../AVR8/Endpoint_AVR8.h **** 			 *
 305:../../LUFA-111009/LUFA/Drivers/USB/Core/AVR8/../AVR8/../AVR8/Endpoint_AVR8.h **** 			 *  \return Index of the currently selected endpoint.
 306:../../LUFA-111009/LUFA/Drivers/USB/Core/AVR8/../AVR8/../AVR8/Endpoint_AVR8.h **** 			 */
 307:../../LUFA-111009/LUFA/Drivers/USB/Core/AVR8/../AVR8/../AVR8/Endpoint_AVR8.h **** 			static inline uint8_t Endpoint_GetCurrentEndpoint(void) ATTR_WARN_UNUSED_RESULT ATTR_ALWAYS_INLI
 308:../../LUFA-111009/LUFA/Drivers/USB/Core/AVR8/../AVR8/../AVR8/Endpoint_AVR8.h **** 			static inline uint8_t Endpoint_GetCurrentEndpoint(void)
 309:../../LUFA-111009/LUFA/Drivers/USB/Core/AVR8/../AVR8/../AVR8/Endpoint_AVR8.h **** 			{
 310:../../LUFA-111009/LUFA/Drivers/USB/Core/AVR8/../AVR8/../AVR8/Endpoint_AVR8.h **** 				#if !defined(CONTROL_ONLY_DEVICE)
 311:../../LUFA-111009/LUFA/Drivers/USB/Core/AVR8/../AVR8/../AVR8/Endpoint_AVR8.h **** 					return (UENUM & ENDPOINT_EPNUM_MASK);
 312:../../LUFA-111009/LUFA/Drivers/USB/Core/AVR8/../AVR8/../AVR8/Endpoint_AVR8.h **** 				#else
 313:../../LUFA-111009/LUFA/Drivers/USB/Core/AVR8/../AVR8/../AVR8/Endpoint_AVR8.h **** 					return ENDPOINT_CONTROLEP;
 314:../../LUFA-111009/LUFA/Drivers/USB/Core/AVR8/../AVR8/../AVR8/Endpoint_AVR8.h **** 				#endif
 315:../../LUFA-111009/LUFA/Drivers/USB/Core/AVR8/../AVR8/../AVR8/Endpoint_AVR8.h **** 			}
 316:../../LUFA-111009/LUFA/Drivers/USB/Core/AVR8/../AVR8/../AVR8/Endpoint_AVR8.h **** 
 317:../../LUFA-111009/LUFA/Drivers/USB/Core/AVR8/../AVR8/../AVR8/Endpoint_AVR8.h **** 			/** Selects the given endpoint number. If the address from the device descriptors is used, the
 318:../../LUFA-111009/LUFA/Drivers/USB/Core/AVR8/../AVR8/../AVR8/Endpoint_AVR8.h **** 			 *  value should be masked with the \ref ENDPOINT_EPNUM_MASK constant to extract only the endpoi
 319:../../LUFA-111009/LUFA/Drivers/USB/Core/AVR8/../AVR8/../AVR8/Endpoint_AVR8.h **** 			 *  number (and discarding the endpoint direction bit).
 320:../../LUFA-111009/LUFA/Drivers/USB/Core/AVR8/../AVR8/../AVR8/Endpoint_AVR8.h **** 			 *
 321:../../LUFA-111009/LUFA/Drivers/USB/Core/AVR8/../AVR8/../AVR8/Endpoint_AVR8.h **** 			 *  Any endpoint operations which do not require the endpoint number to be indicated will operat
 322:../../LUFA-111009/LUFA/Drivers/USB/Core/AVR8/../AVR8/../AVR8/Endpoint_AVR8.h **** 			 *  the currently selected endpoint.
 323:../../LUFA-111009/LUFA/Drivers/USB/Core/AVR8/../AVR8/../AVR8/Endpoint_AVR8.h **** 			 *
 324:../../LUFA-111009/LUFA/Drivers/USB/Core/AVR8/../AVR8/../AVR8/Endpoint_AVR8.h **** 			 *  \param[in] EndpointNumber Endpoint number to select.
 325:../../LUFA-111009/LUFA/Drivers/USB/Core/AVR8/../AVR8/../AVR8/Endpoint_AVR8.h **** 			 */
 326:../../LUFA-111009/LUFA/Drivers/USB/Core/AVR8/../AVR8/../AVR8/Endpoint_AVR8.h **** 			static inline void Endpoint_SelectEndpoint(const uint8_t EndpointNumber) ATTR_ALWAYS_INLINE;
 327:../../LUFA-111009/LUFA/Drivers/USB/Core/AVR8/../AVR8/../AVR8/Endpoint_AVR8.h **** 			static inline void Endpoint_SelectEndpoint(const uint8_t EndpointNumber)
 328:../../LUFA-111009/LUFA/Drivers/USB/Core/AVR8/../AVR8/../AVR8/Endpoint_AVR8.h **** 			{
 329:../../LUFA-111009/LUFA/Drivers/USB/Core/AVR8/../AVR8/../AVR8/Endpoint_AVR8.h **** 				#if !defined(CONTROL_ONLY_DEVICE)
 330:../../LUFA-111009/LUFA/Drivers/USB/Core/AVR8/../AVR8/../AVR8/Endpoint_AVR8.h **** 					UENUM = EndpointNumber;
 331:../../LUFA-111009/LUFA/Drivers/USB/Core/AVR8/../AVR8/../AVR8/Endpoint_AVR8.h **** 				#endif
 332:../../LUFA-111009/LUFA/Drivers/USB/Core/AVR8/../AVR8/../AVR8/Endpoint_AVR8.h **** 			}
 333:../../LUFA-111009/LUFA/Drivers/USB/Core/AVR8/../AVR8/../AVR8/Endpoint_AVR8.h **** 
 334:../../LUFA-111009/LUFA/Drivers/USB/Core/AVR8/../AVR8/../AVR8/Endpoint_AVR8.h **** 			/** Resets the endpoint bank FIFO. This clears all the endpoint banks and resets the USB control
 335:../../LUFA-111009/LUFA/Drivers/USB/Core/AVR8/../AVR8/../AVR8/Endpoint_AVR8.h **** 			 *  data In and Out pointers to the bank's contents.
 336:../../LUFA-111009/LUFA/Drivers/USB/Core/AVR8/../AVR8/../AVR8/Endpoint_AVR8.h **** 			 *
 337:../../LUFA-111009/LUFA/Drivers/USB/Core/AVR8/../AVR8/../AVR8/Endpoint_AVR8.h **** 			 *  \param[in] EndpointNumber Endpoint number whose FIFO buffers are to be reset.
 338:../../LUFA-111009/LUFA/Drivers/USB/Core/AVR8/../AVR8/../AVR8/Endpoint_AVR8.h **** 			 */
 339:../../LUFA-111009/LUFA/Drivers/USB/Core/AVR8/../AVR8/../AVR8/Endpoint_AVR8.h **** 			static inline void Endpoint_ResetEndpoint(const uint8_t EndpointNumber) ATTR_ALWAYS_INLINE;
 340:../../LUFA-111009/LUFA/Drivers/USB/Core/AVR8/../AVR8/../AVR8/Endpoint_AVR8.h **** 			static inline void Endpoint_ResetEndpoint(const uint8_t EndpointNumber)
 341:../../LUFA-111009/LUFA/Drivers/USB/Core/AVR8/../AVR8/../AVR8/Endpoint_AVR8.h **** 			{
 342:../../LUFA-111009/LUFA/Drivers/USB/Core/AVR8/../AVR8/../AVR8/Endpoint_AVR8.h **** 				UERST = (1 << EndpointNumber);
 343:../../LUFA-111009/LUFA/Drivers/USB/Core/AVR8/../AVR8/../AVR8/Endpoint_AVR8.h **** 				UERST = 0;
 344:../../LUFA-111009/LUFA/Drivers/USB/Core/AVR8/../AVR8/../AVR8/Endpoint_AVR8.h **** 			}
 345:../../LUFA-111009/LUFA/Drivers/USB/Core/AVR8/../AVR8/../AVR8/Endpoint_AVR8.h **** 
 346:../../LUFA-111009/LUFA/Drivers/USB/Core/AVR8/../AVR8/../AVR8/Endpoint_AVR8.h **** 			/** Enables the currently selected endpoint so that data can be sent and received through it to
 347:../../LUFA-111009/LUFA/Drivers/USB/Core/AVR8/../AVR8/../AVR8/Endpoint_AVR8.h **** 			 *  and from a host.
 348:../../LUFA-111009/LUFA/Drivers/USB/Core/AVR8/../AVR8/../AVR8/Endpoint_AVR8.h **** 			 *
 349:../../LUFA-111009/LUFA/Drivers/USB/Core/AVR8/../AVR8/../AVR8/Endpoint_AVR8.h **** 			 *  \note Endpoints must first be configured properly via \ref Endpoint_ConfigureEndpoint().
 350:../../LUFA-111009/LUFA/Drivers/USB/Core/AVR8/../AVR8/../AVR8/Endpoint_AVR8.h **** 			 */
 351:../../LUFA-111009/LUFA/Drivers/USB/Core/AVR8/../AVR8/../AVR8/Endpoint_AVR8.h **** 			static inline void Endpoint_EnableEndpoint(void) ATTR_ALWAYS_INLINE;
 352:../../LUFA-111009/LUFA/Drivers/USB/Core/AVR8/../AVR8/../AVR8/Endpoint_AVR8.h **** 			static inline void Endpoint_EnableEndpoint(void)
 353:../../LUFA-111009/LUFA/Drivers/USB/Core/AVR8/../AVR8/../AVR8/Endpoint_AVR8.h **** 			{
 354:../../LUFA-111009/LUFA/Drivers/USB/Core/AVR8/../AVR8/../AVR8/Endpoint_AVR8.h **** 				UECONX |= (1 << EPEN);
 355:../../LUFA-111009/LUFA/Drivers/USB/Core/AVR8/../AVR8/../AVR8/Endpoint_AVR8.h **** 			}
 356:../../LUFA-111009/LUFA/Drivers/USB/Core/AVR8/../AVR8/../AVR8/Endpoint_AVR8.h **** 
 357:../../LUFA-111009/LUFA/Drivers/USB/Core/AVR8/../AVR8/../AVR8/Endpoint_AVR8.h **** 			/** Disables the currently selected endpoint so that data cannot be sent and received through it
 358:../../LUFA-111009/LUFA/Drivers/USB/Core/AVR8/../AVR8/../AVR8/Endpoint_AVR8.h **** 			 *  to and from a host.
 359:../../LUFA-111009/LUFA/Drivers/USB/Core/AVR8/../AVR8/../AVR8/Endpoint_AVR8.h **** 			 */
 360:../../LUFA-111009/LUFA/Drivers/USB/Core/AVR8/../AVR8/../AVR8/Endpoint_AVR8.h **** 			static inline void Endpoint_DisableEndpoint(void) ATTR_ALWAYS_INLINE;
 361:../../LUFA-111009/LUFA/Drivers/USB/Core/AVR8/../AVR8/../AVR8/Endpoint_AVR8.h **** 			static inline void Endpoint_DisableEndpoint(void)
 362:../../LUFA-111009/LUFA/Drivers/USB/Core/AVR8/../AVR8/../AVR8/Endpoint_AVR8.h **** 			{
 363:../../LUFA-111009/LUFA/Drivers/USB/Core/AVR8/../AVR8/../AVR8/Endpoint_AVR8.h **** 				UECONX &= ~(1 << EPEN);
 364:../../LUFA-111009/LUFA/Drivers/USB/Core/AVR8/../AVR8/../AVR8/Endpoint_AVR8.h **** 			}
 365:../../LUFA-111009/LUFA/Drivers/USB/Core/AVR8/../AVR8/../AVR8/Endpoint_AVR8.h **** 
 366:../../LUFA-111009/LUFA/Drivers/USB/Core/AVR8/../AVR8/../AVR8/Endpoint_AVR8.h **** 			/** Determines if the currently selected endpoint is enabled, but not necessarily configured.
 367:../../LUFA-111009/LUFA/Drivers/USB/Core/AVR8/../AVR8/../AVR8/Endpoint_AVR8.h **** 			 *
 368:../../LUFA-111009/LUFA/Drivers/USB/Core/AVR8/../AVR8/../AVR8/Endpoint_AVR8.h **** 			 * \return Boolean \c true if the currently selected endpoint is enabled, \c false otherwise.
 369:../../LUFA-111009/LUFA/Drivers/USB/Core/AVR8/../AVR8/../AVR8/Endpoint_AVR8.h **** 			 */
 370:../../LUFA-111009/LUFA/Drivers/USB/Core/AVR8/../AVR8/../AVR8/Endpoint_AVR8.h **** 			static inline bool Endpoint_IsEnabled(void) ATTR_WARN_UNUSED_RESULT ATTR_ALWAYS_INLINE;
 371:../../LUFA-111009/LUFA/Drivers/USB/Core/AVR8/../AVR8/../AVR8/Endpoint_AVR8.h **** 			static inline bool Endpoint_IsEnabled(void)
 372:../../LUFA-111009/LUFA/Drivers/USB/Core/AVR8/../AVR8/../AVR8/Endpoint_AVR8.h **** 			{
 373:../../LUFA-111009/LUFA/Drivers/USB/Core/AVR8/../AVR8/../AVR8/Endpoint_AVR8.h **** 				return ((UECONX & (1 << EPEN)) ? true : false);
 374:../../LUFA-111009/LUFA/Drivers/USB/Core/AVR8/../AVR8/../AVR8/Endpoint_AVR8.h **** 			}
 375:../../LUFA-111009/LUFA/Drivers/USB/Core/AVR8/../AVR8/../AVR8/Endpoint_AVR8.h **** 
 376:../../LUFA-111009/LUFA/Drivers/USB/Core/AVR8/../AVR8/../AVR8/Endpoint_AVR8.h **** 			/** Retrieves the number of busy banks in the currently selected endpoint, which have been queue
 377:../../LUFA-111009/LUFA/Drivers/USB/Core/AVR8/../AVR8/../AVR8/Endpoint_AVR8.h **** 			 *  transmission via the \ref Endpoint_ClearIN() command, or are awaiting acknowledgement via th
 378:../../LUFA-111009/LUFA/Drivers/USB/Core/AVR8/../AVR8/../AVR8/Endpoint_AVR8.h **** 			 *  \ref Endpoint_ClearOUT() command.
 379:../../LUFA-111009/LUFA/Drivers/USB/Core/AVR8/../AVR8/../AVR8/Endpoint_AVR8.h **** 			 *
 380:../../LUFA-111009/LUFA/Drivers/USB/Core/AVR8/../AVR8/../AVR8/Endpoint_AVR8.h **** 			 *  \ingroup Group_EndpointPacketManagement_AVR8
 381:../../LUFA-111009/LUFA/Drivers/USB/Core/AVR8/../AVR8/../AVR8/Endpoint_AVR8.h **** 			 *
 382:../../LUFA-111009/LUFA/Drivers/USB/Core/AVR8/../AVR8/../AVR8/Endpoint_AVR8.h **** 			 *  \return Total number of busy banks in the selected endpoint.
 383:../../LUFA-111009/LUFA/Drivers/USB/Core/AVR8/../AVR8/../AVR8/Endpoint_AVR8.h **** 			 */
 384:../../LUFA-111009/LUFA/Drivers/USB/Core/AVR8/../AVR8/../AVR8/Endpoint_AVR8.h **** 			static inline uint8_t Endpoint_GetBusyBanks(void) ATTR_ALWAYS_INLINE ATTR_WARN_UNUSED_RESULT;
 385:../../LUFA-111009/LUFA/Drivers/USB/Core/AVR8/../AVR8/../AVR8/Endpoint_AVR8.h **** 			static inline uint8_t Endpoint_GetBusyBanks(void)
 386:../../LUFA-111009/LUFA/Drivers/USB/Core/AVR8/../AVR8/../AVR8/Endpoint_AVR8.h **** 			{
 387:../../LUFA-111009/LUFA/Drivers/USB/Core/AVR8/../AVR8/../AVR8/Endpoint_AVR8.h **** 				return (UESTA0X & (0x03 << NBUSYBK0));
 388:../../LUFA-111009/LUFA/Drivers/USB/Core/AVR8/../AVR8/../AVR8/Endpoint_AVR8.h **** 			}
 389:../../LUFA-111009/LUFA/Drivers/USB/Core/AVR8/../AVR8/../AVR8/Endpoint_AVR8.h **** 
 390:../../LUFA-111009/LUFA/Drivers/USB/Core/AVR8/../AVR8/../AVR8/Endpoint_AVR8.h **** 			/** Aborts all pending IN transactions on the currently selected endpoint, once the bank
 391:../../LUFA-111009/LUFA/Drivers/USB/Core/AVR8/../AVR8/../AVR8/Endpoint_AVR8.h **** 			 *  has been queued for transmission to the host via \ref Endpoint_ClearIN(). This function
 392:../../LUFA-111009/LUFA/Drivers/USB/Core/AVR8/../AVR8/../AVR8/Endpoint_AVR8.h **** 			 *  will terminate all queued transactions, resetting the endpoint banks ready for a new
 393:../../LUFA-111009/LUFA/Drivers/USB/Core/AVR8/../AVR8/../AVR8/Endpoint_AVR8.h **** 			 *  packet.
 394:../../LUFA-111009/LUFA/Drivers/USB/Core/AVR8/../AVR8/../AVR8/Endpoint_AVR8.h **** 			 *
 395:../../LUFA-111009/LUFA/Drivers/USB/Core/AVR8/../AVR8/../AVR8/Endpoint_AVR8.h **** 			 *  \ingroup Group_EndpointPacketManagement_AVR8
 396:../../LUFA-111009/LUFA/Drivers/USB/Core/AVR8/../AVR8/../AVR8/Endpoint_AVR8.h **** 			 */
 397:../../LUFA-111009/LUFA/Drivers/USB/Core/AVR8/../AVR8/../AVR8/Endpoint_AVR8.h **** 			static inline void Endpoint_AbortPendingIN(void)
 398:../../LUFA-111009/LUFA/Drivers/USB/Core/AVR8/../AVR8/../AVR8/Endpoint_AVR8.h **** 			{
 399:../../LUFA-111009/LUFA/Drivers/USB/Core/AVR8/../AVR8/../AVR8/Endpoint_AVR8.h **** 				while (Endpoint_GetBusyBanks() != 0)
 400:../../LUFA-111009/LUFA/Drivers/USB/Core/AVR8/../AVR8/../AVR8/Endpoint_AVR8.h **** 				{
 401:../../LUFA-111009/LUFA/Drivers/USB/Core/AVR8/../AVR8/../AVR8/Endpoint_AVR8.h **** 					UEINTX |= (1 << RXOUTI);
 402:../../LUFA-111009/LUFA/Drivers/USB/Core/AVR8/../AVR8/../AVR8/Endpoint_AVR8.h **** 					while (UEINTX & (1 << RXOUTI));
 403:../../LUFA-111009/LUFA/Drivers/USB/Core/AVR8/../AVR8/../AVR8/Endpoint_AVR8.h **** 				}
 404:../../LUFA-111009/LUFA/Drivers/USB/Core/AVR8/../AVR8/../AVR8/Endpoint_AVR8.h **** 			}
 405:../../LUFA-111009/LUFA/Drivers/USB/Core/AVR8/../AVR8/../AVR8/Endpoint_AVR8.h **** 
 406:../../LUFA-111009/LUFA/Drivers/USB/Core/AVR8/../AVR8/../AVR8/Endpoint_AVR8.h **** 			/** Determines if the currently selected endpoint may be read from (if data is waiting in the en
 407:../../LUFA-111009/LUFA/Drivers/USB/Core/AVR8/../AVR8/../AVR8/Endpoint_AVR8.h **** 			 *  bank and the endpoint is an OUT direction, or if the bank is not yet full if the endpoint is
 408:../../LUFA-111009/LUFA/Drivers/USB/Core/AVR8/../AVR8/../AVR8/Endpoint_AVR8.h **** 			 *  direction). This function will return false if an error has occurred in the endpoint, if the
 409:../../LUFA-111009/LUFA/Drivers/USB/Core/AVR8/../AVR8/../AVR8/Endpoint_AVR8.h **** 			 *  is an OUT direction and no packet (or an empty packet) has been received, or if the endpoint
 410:../../LUFA-111009/LUFA/Drivers/USB/Core/AVR8/../AVR8/../AVR8/Endpoint_AVR8.h **** 			 *  direction and the endpoint bank is full.
 411:../../LUFA-111009/LUFA/Drivers/USB/Core/AVR8/../AVR8/../AVR8/Endpoint_AVR8.h **** 			 *
 412:../../LUFA-111009/LUFA/Drivers/USB/Core/AVR8/../AVR8/../AVR8/Endpoint_AVR8.h **** 			 *  \ingroup Group_EndpointPacketManagement_AVR8
 413:../../LUFA-111009/LUFA/Drivers/USB/Core/AVR8/../AVR8/../AVR8/Endpoint_AVR8.h **** 			 *
 414:../../LUFA-111009/LUFA/Drivers/USB/Core/AVR8/../AVR8/../AVR8/Endpoint_AVR8.h **** 			 *  \return Boolean \c true if the currently selected endpoint may be read from or written to, d
 415:../../LUFA-111009/LUFA/Drivers/USB/Core/AVR8/../AVR8/../AVR8/Endpoint_AVR8.h **** 			 *          on its direction.
 416:../../LUFA-111009/LUFA/Drivers/USB/Core/AVR8/../AVR8/../AVR8/Endpoint_AVR8.h **** 			 */
 417:../../LUFA-111009/LUFA/Drivers/USB/Core/AVR8/../AVR8/../AVR8/Endpoint_AVR8.h **** 			static inline bool Endpoint_IsReadWriteAllowed(void) ATTR_WARN_UNUSED_RESULT ATTR_ALWAYS_INLINE;
 418:../../LUFA-111009/LUFA/Drivers/USB/Core/AVR8/../AVR8/../AVR8/Endpoint_AVR8.h **** 			static inline bool Endpoint_IsReadWriteAllowed(void)
  93               		.loc 2 418 23 view .LVU15
  94               	.LBB257:
 419:../../LUFA-111009/LUFA/Drivers/USB/Core/AVR8/../AVR8/../AVR8/Endpoint_AVR8.h **** 			{
 420:../../LUFA-111009/LUFA/Drivers/USB/Core/AVR8/../AVR8/../AVR8/Endpoint_AVR8.h **** 				return ((UEINTX & (1 << RWAL)) ? true : false);
  95               		.loc 2 420 5 view .LVU16
  96               		.loc 2 420 14 is_stmt 0 view .LVU17
  97 0034 8091 E800 		lds r24,232
  98               	.LBE257:
  99               	.LBE256:
 100               		.loc 1 53 6 view .LVU18
 101 0038 85FD      		sbrc r24,5
 102 003a 00C0      		rjmp .L5
  54:../../LUFA-111009/LUFA/Drivers/USB/Core/AVR8/EndpointStream_AVR8.c **** 		{
  55:../../LUFA-111009/LUFA/Drivers/USB/Core/AVR8/EndpointStream_AVR8.c **** 			Endpoint_ClearOUT();
 103               		.loc 1 55 4 is_stmt 1 view .LVU19
 104               	.LBB258:
 105               	.LBI258:
 421:../../LUFA-111009/LUFA/Drivers/USB/Core/AVR8/../AVR8/../AVR8/Endpoint_AVR8.h **** 			}
 422:../../LUFA-111009/LUFA/Drivers/USB/Core/AVR8/../AVR8/../AVR8/Endpoint_AVR8.h **** 
 423:../../LUFA-111009/LUFA/Drivers/USB/Core/AVR8/../AVR8/../AVR8/Endpoint_AVR8.h **** 			/** Determines if the currently selected endpoint is configured.
 424:../../LUFA-111009/LUFA/Drivers/USB/Core/AVR8/../AVR8/../AVR8/Endpoint_AVR8.h **** 			 *
 425:../../LUFA-111009/LUFA/Drivers/USB/Core/AVR8/../AVR8/../AVR8/Endpoint_AVR8.h **** 			 *  \return Boolean \c true if the currently selected endpoint has been configured, \c false oth
 426:../../LUFA-111009/LUFA/Drivers/USB/Core/AVR8/../AVR8/../AVR8/Endpoint_AVR8.h **** 			 */
 427:../../LUFA-111009/LUFA/Drivers/USB/Core/AVR8/../AVR8/../AVR8/Endpoint_AVR8.h **** 			static inline bool Endpoint_IsConfigured(void) ATTR_WARN_UNUSED_RESULT ATTR_ALWAYS_INLINE;
 428:../../LUFA-111009/LUFA/Drivers/USB/Core/AVR8/../AVR8/../AVR8/Endpoint_AVR8.h **** 			static inline bool Endpoint_IsConfigured(void)
 429:../../LUFA-111009/LUFA/Drivers/USB/Core/AVR8/../AVR8/../AVR8/Endpoint_AVR8.h **** 			{
 430:../../LUFA-111009/LUFA/Drivers/USB/Core/AVR8/../AVR8/../AVR8/Endpoint_AVR8.h **** 				return ((UESTA0X & (1 << CFGOK)) ? true : false);
 431:../../LUFA-111009/LUFA/Drivers/USB/Core/AVR8/../AVR8/../AVR8/Endpoint_AVR8.h **** 			}
 432:../../LUFA-111009/LUFA/Drivers/USB/Core/AVR8/../AVR8/../AVR8/Endpoint_AVR8.h **** 
 433:../../LUFA-111009/LUFA/Drivers/USB/Core/AVR8/../AVR8/../AVR8/Endpoint_AVR8.h **** 			/** Returns a mask indicating which INTERRUPT type endpoints have interrupted - i.e. their
 434:../../LUFA-111009/LUFA/Drivers/USB/Core/AVR8/../AVR8/../AVR8/Endpoint_AVR8.h **** 			 *  interrupt duration has elapsed. Which endpoints have interrupted can be determined by
 435:../../LUFA-111009/LUFA/Drivers/USB/Core/AVR8/../AVR8/../AVR8/Endpoint_AVR8.h **** 			 *  masking the return value against <tt>(1 << <i>{Endpoint Number}</i>)</tt>.
 436:../../LUFA-111009/LUFA/Drivers/USB/Core/AVR8/../AVR8/../AVR8/Endpoint_AVR8.h **** 			 *
 437:../../LUFA-111009/LUFA/Drivers/USB/Core/AVR8/../AVR8/../AVR8/Endpoint_AVR8.h **** 			 *  \return Mask whose bits indicate which endpoints have interrupted.
 438:../../LUFA-111009/LUFA/Drivers/USB/Core/AVR8/../AVR8/../AVR8/Endpoint_AVR8.h **** 			 */
 439:../../LUFA-111009/LUFA/Drivers/USB/Core/AVR8/../AVR8/../AVR8/Endpoint_AVR8.h **** 			static inline uint8_t Endpoint_GetEndpointInterrupts(void) ATTR_WARN_UNUSED_RESULT ATTR_ALWAYS_I
 440:../../LUFA-111009/LUFA/Drivers/USB/Core/AVR8/../AVR8/../AVR8/Endpoint_AVR8.h **** 			static inline uint8_t Endpoint_GetEndpointInterrupts(void)
 441:../../LUFA-111009/LUFA/Drivers/USB/Core/AVR8/../AVR8/../AVR8/Endpoint_AVR8.h **** 			{
 442:../../LUFA-111009/LUFA/Drivers/USB/Core/AVR8/../AVR8/../AVR8/Endpoint_AVR8.h **** 				return UEINT;
 443:../../LUFA-111009/LUFA/Drivers/USB/Core/AVR8/../AVR8/../AVR8/Endpoint_AVR8.h **** 			}
 444:../../LUFA-111009/LUFA/Drivers/USB/Core/AVR8/../AVR8/../AVR8/Endpoint_AVR8.h **** 
 445:../../LUFA-111009/LUFA/Drivers/USB/Core/AVR8/../AVR8/../AVR8/Endpoint_AVR8.h **** 			/** Determines if the specified endpoint number has interrupted (valid only for INTERRUPT type
 446:../../LUFA-111009/LUFA/Drivers/USB/Core/AVR8/../AVR8/../AVR8/Endpoint_AVR8.h **** 			 *  endpoints).
 447:../../LUFA-111009/LUFA/Drivers/USB/Core/AVR8/../AVR8/../AVR8/Endpoint_AVR8.h **** 			 *
 448:../../LUFA-111009/LUFA/Drivers/USB/Core/AVR8/../AVR8/../AVR8/Endpoint_AVR8.h **** 			 *  \param[in] EndpointNumber  Index of the endpoint whose interrupt flag should be tested.
 449:../../LUFA-111009/LUFA/Drivers/USB/Core/AVR8/../AVR8/../AVR8/Endpoint_AVR8.h **** 			 *
 450:../../LUFA-111009/LUFA/Drivers/USB/Core/AVR8/../AVR8/../AVR8/Endpoint_AVR8.h **** 			 *  \return Boolean \c true if the specified endpoint has interrupted, \c false otherwise.
 451:../../LUFA-111009/LUFA/Drivers/USB/Core/AVR8/../AVR8/../AVR8/Endpoint_AVR8.h **** 			 */
 452:../../LUFA-111009/LUFA/Drivers/USB/Core/AVR8/../AVR8/../AVR8/Endpoint_AVR8.h **** 			static inline bool Endpoint_HasEndpointInterrupted(const uint8_t EndpointNumber) ATTR_WARN_UNUSE
 453:../../LUFA-111009/LUFA/Drivers/USB/Core/AVR8/../AVR8/../AVR8/Endpoint_AVR8.h **** 			static inline bool Endpoint_HasEndpointInterrupted(const uint8_t EndpointNumber)
 454:../../LUFA-111009/LUFA/Drivers/USB/Core/AVR8/../AVR8/../AVR8/Endpoint_AVR8.h **** 			{
 455:../../LUFA-111009/LUFA/Drivers/USB/Core/AVR8/../AVR8/../AVR8/Endpoint_AVR8.h **** 				return ((Endpoint_GetEndpointInterrupts() & (1 << EndpointNumber)) ? true : false);
 456:../../LUFA-111009/LUFA/Drivers/USB/Core/AVR8/../AVR8/../AVR8/Endpoint_AVR8.h **** 			}
 457:../../LUFA-111009/LUFA/Drivers/USB/Core/AVR8/../AVR8/../AVR8/Endpoint_AVR8.h **** 
 458:../../LUFA-111009/LUFA/Drivers/USB/Core/AVR8/../AVR8/../AVR8/Endpoint_AVR8.h **** 			/** Determines if the selected IN endpoint is ready for a new packet to be sent to the host.
 459:../../LUFA-111009/LUFA/Drivers/USB/Core/AVR8/../AVR8/../AVR8/Endpoint_AVR8.h **** 			 *
 460:../../LUFA-111009/LUFA/Drivers/USB/Core/AVR8/../AVR8/../AVR8/Endpoint_AVR8.h **** 			 *  \ingroup Group_EndpointPacketManagement_AVR8
 461:../../LUFA-111009/LUFA/Drivers/USB/Core/AVR8/../AVR8/../AVR8/Endpoint_AVR8.h **** 			 *
 462:../../LUFA-111009/LUFA/Drivers/USB/Core/AVR8/../AVR8/../AVR8/Endpoint_AVR8.h **** 			 *  \return Boolean \c true if the current endpoint is ready for an IN packet, \c false otherwis
 463:../../LUFA-111009/LUFA/Drivers/USB/Core/AVR8/../AVR8/../AVR8/Endpoint_AVR8.h **** 			 */
 464:../../LUFA-111009/LUFA/Drivers/USB/Core/AVR8/../AVR8/../AVR8/Endpoint_AVR8.h **** 			static inline bool Endpoint_IsINReady(void) ATTR_WARN_UNUSED_RESULT ATTR_ALWAYS_INLINE;
 465:../../LUFA-111009/LUFA/Drivers/USB/Core/AVR8/../AVR8/../AVR8/Endpoint_AVR8.h **** 			static inline bool Endpoint_IsINReady(void)
 466:../../LUFA-111009/LUFA/Drivers/USB/Core/AVR8/../AVR8/../AVR8/Endpoint_AVR8.h **** 			{
 467:../../LUFA-111009/LUFA/Drivers/USB/Core/AVR8/../AVR8/../AVR8/Endpoint_AVR8.h **** 				return ((UEINTX & (1 << TXINI)) ? true : false);
 468:../../LUFA-111009/LUFA/Drivers/USB/Core/AVR8/../AVR8/../AVR8/Endpoint_AVR8.h **** 			}
 469:../../LUFA-111009/LUFA/Drivers/USB/Core/AVR8/../AVR8/../AVR8/Endpoint_AVR8.h **** 
 470:../../LUFA-111009/LUFA/Drivers/USB/Core/AVR8/../AVR8/../AVR8/Endpoint_AVR8.h **** 			/** Determines if the selected OUT endpoint has received new packet from the host.
 471:../../LUFA-111009/LUFA/Drivers/USB/Core/AVR8/../AVR8/../AVR8/Endpoint_AVR8.h **** 			 *
 472:../../LUFA-111009/LUFA/Drivers/USB/Core/AVR8/../AVR8/../AVR8/Endpoint_AVR8.h **** 			 *  \ingroup Group_EndpointPacketManagement_AVR8
 473:../../LUFA-111009/LUFA/Drivers/USB/Core/AVR8/../AVR8/../AVR8/Endpoint_AVR8.h **** 			 *
 474:../../LUFA-111009/LUFA/Drivers/USB/Core/AVR8/../AVR8/../AVR8/Endpoint_AVR8.h **** 			 *  \return Boolean \c true if current endpoint is has received an OUT packet, \c false otherwis
 475:../../LUFA-111009/LUFA/Drivers/USB/Core/AVR8/../AVR8/../AVR8/Endpoint_AVR8.h **** 			 */
 476:../../LUFA-111009/LUFA/Drivers/USB/Core/AVR8/../AVR8/../AVR8/Endpoint_AVR8.h **** 			static inline bool Endpoint_IsOUTReceived(void) ATTR_WARN_UNUSED_RESULT ATTR_ALWAYS_INLINE;
 477:../../LUFA-111009/LUFA/Drivers/USB/Core/AVR8/../AVR8/../AVR8/Endpoint_AVR8.h **** 			static inline bool Endpoint_IsOUTReceived(void)
 478:../../LUFA-111009/LUFA/Drivers/USB/Core/AVR8/../AVR8/../AVR8/Endpoint_AVR8.h **** 			{
 479:../../LUFA-111009/LUFA/Drivers/USB/Core/AVR8/../AVR8/../AVR8/Endpoint_AVR8.h **** 				return ((UEINTX & (1 << RXOUTI)) ? true : false);
 480:../../LUFA-111009/LUFA/Drivers/USB/Core/AVR8/../AVR8/../AVR8/Endpoint_AVR8.h **** 			}
 481:../../LUFA-111009/LUFA/Drivers/USB/Core/AVR8/../AVR8/../AVR8/Endpoint_AVR8.h **** 
 482:../../LUFA-111009/LUFA/Drivers/USB/Core/AVR8/../AVR8/../AVR8/Endpoint_AVR8.h **** 			/** Determines if the current CONTROL type endpoint has received a SETUP packet.
 483:../../LUFA-111009/LUFA/Drivers/USB/Core/AVR8/../AVR8/../AVR8/Endpoint_AVR8.h **** 			 *
 484:../../LUFA-111009/LUFA/Drivers/USB/Core/AVR8/../AVR8/../AVR8/Endpoint_AVR8.h **** 			 *  \ingroup Group_EndpointPacketManagement_AVR8
 485:../../LUFA-111009/LUFA/Drivers/USB/Core/AVR8/../AVR8/../AVR8/Endpoint_AVR8.h **** 			 *
 486:../../LUFA-111009/LUFA/Drivers/USB/Core/AVR8/../AVR8/../AVR8/Endpoint_AVR8.h **** 			 *  \return Boolean \c true if the selected endpoint has received a SETUP packet, \c false other
 487:../../LUFA-111009/LUFA/Drivers/USB/Core/AVR8/../AVR8/../AVR8/Endpoint_AVR8.h **** 			 */
 488:../../LUFA-111009/LUFA/Drivers/USB/Core/AVR8/../AVR8/../AVR8/Endpoint_AVR8.h **** 			static inline bool Endpoint_IsSETUPReceived(void) ATTR_WARN_UNUSED_RESULT ATTR_ALWAYS_INLINE;
 489:../../LUFA-111009/LUFA/Drivers/USB/Core/AVR8/../AVR8/../AVR8/Endpoint_AVR8.h **** 			static inline bool Endpoint_IsSETUPReceived(void)
 490:../../LUFA-111009/LUFA/Drivers/USB/Core/AVR8/../AVR8/../AVR8/Endpoint_AVR8.h **** 			{
 491:../../LUFA-111009/LUFA/Drivers/USB/Core/AVR8/../AVR8/../AVR8/Endpoint_AVR8.h **** 				return ((UEINTX & (1 << RXSTPI)) ? true : false);
 492:../../LUFA-111009/LUFA/Drivers/USB/Core/AVR8/../AVR8/../AVR8/Endpoint_AVR8.h **** 			}
 493:../../LUFA-111009/LUFA/Drivers/USB/Core/AVR8/../AVR8/../AVR8/Endpoint_AVR8.h **** 
 494:../../LUFA-111009/LUFA/Drivers/USB/Core/AVR8/../AVR8/../AVR8/Endpoint_AVR8.h **** 			/** Clears a received SETUP packet on the currently selected CONTROL type endpoint, freeing up t
 495:../../LUFA-111009/LUFA/Drivers/USB/Core/AVR8/../AVR8/../AVR8/Endpoint_AVR8.h **** 			 *  endpoint for the next packet.
 496:../../LUFA-111009/LUFA/Drivers/USB/Core/AVR8/../AVR8/../AVR8/Endpoint_AVR8.h **** 			 *
 497:../../LUFA-111009/LUFA/Drivers/USB/Core/AVR8/../AVR8/../AVR8/Endpoint_AVR8.h **** 			 *  \ingroup Group_EndpointPacketManagement_AVR8
 498:../../LUFA-111009/LUFA/Drivers/USB/Core/AVR8/../AVR8/../AVR8/Endpoint_AVR8.h **** 			 *
 499:../../LUFA-111009/LUFA/Drivers/USB/Core/AVR8/../AVR8/../AVR8/Endpoint_AVR8.h **** 			 *  \note This is not applicable for non CONTROL type endpoints.
 500:../../LUFA-111009/LUFA/Drivers/USB/Core/AVR8/../AVR8/../AVR8/Endpoint_AVR8.h **** 			 */
 501:../../LUFA-111009/LUFA/Drivers/USB/Core/AVR8/../AVR8/../AVR8/Endpoint_AVR8.h **** 			static inline void Endpoint_ClearSETUP(void) ATTR_ALWAYS_INLINE;
 502:../../LUFA-111009/LUFA/Drivers/USB/Core/AVR8/../AVR8/../AVR8/Endpoint_AVR8.h **** 			static inline void Endpoint_ClearSETUP(void)
 503:../../LUFA-111009/LUFA/Drivers/USB/Core/AVR8/../AVR8/../AVR8/Endpoint_AVR8.h **** 			{
 504:../../LUFA-111009/LUFA/Drivers/USB/Core/AVR8/../AVR8/../AVR8/Endpoint_AVR8.h **** 				UEINTX &= ~(1 << RXSTPI);
 505:../../LUFA-111009/LUFA/Drivers/USB/Core/AVR8/../AVR8/../AVR8/Endpoint_AVR8.h **** 			}
 506:../../LUFA-111009/LUFA/Drivers/USB/Core/AVR8/../AVR8/../AVR8/Endpoint_AVR8.h **** 
 507:../../LUFA-111009/LUFA/Drivers/USB/Core/AVR8/../AVR8/../AVR8/Endpoint_AVR8.h **** 			/** Sends an IN packet to the host on the currently selected endpoint, freeing up the endpoint f
 508:../../LUFA-111009/LUFA/Drivers/USB/Core/AVR8/../AVR8/../AVR8/Endpoint_AVR8.h **** 			 *  next packet and switching to the alternative endpoint bank if double banked.
 509:../../LUFA-111009/LUFA/Drivers/USB/Core/AVR8/../AVR8/../AVR8/Endpoint_AVR8.h **** 			 *
 510:../../LUFA-111009/LUFA/Drivers/USB/Core/AVR8/../AVR8/../AVR8/Endpoint_AVR8.h **** 			 *  \ingroup Group_EndpointPacketManagement_AVR8
 511:../../LUFA-111009/LUFA/Drivers/USB/Core/AVR8/../AVR8/../AVR8/Endpoint_AVR8.h **** 			 */
 512:../../LUFA-111009/LUFA/Drivers/USB/Core/AVR8/../AVR8/../AVR8/Endpoint_AVR8.h **** 			static inline void Endpoint_ClearIN(void) ATTR_ALWAYS_INLINE;
 513:../../LUFA-111009/LUFA/Drivers/USB/Core/AVR8/../AVR8/../AVR8/Endpoint_AVR8.h **** 			static inline void Endpoint_ClearIN(void)
 514:../../LUFA-111009/LUFA/Drivers/USB/Core/AVR8/../AVR8/../AVR8/Endpoint_AVR8.h **** 			{
 515:../../LUFA-111009/LUFA/Drivers/USB/Core/AVR8/../AVR8/../AVR8/Endpoint_AVR8.h **** 				#if !defined(CONTROL_ONLY_DEVICE)
 516:../../LUFA-111009/LUFA/Drivers/USB/Core/AVR8/../AVR8/../AVR8/Endpoint_AVR8.h **** 					UEINTX &= ~((1 << TXINI) | (1 << FIFOCON));
 517:../../LUFA-111009/LUFA/Drivers/USB/Core/AVR8/../AVR8/../AVR8/Endpoint_AVR8.h **** 				#else
 518:../../LUFA-111009/LUFA/Drivers/USB/Core/AVR8/../AVR8/../AVR8/Endpoint_AVR8.h **** 					UEINTX &= ~(1 << TXINI);
 519:../../LUFA-111009/LUFA/Drivers/USB/Core/AVR8/../AVR8/../AVR8/Endpoint_AVR8.h **** 				#endif
 520:../../LUFA-111009/LUFA/Drivers/USB/Core/AVR8/../AVR8/../AVR8/Endpoint_AVR8.h **** 			}
 521:../../LUFA-111009/LUFA/Drivers/USB/Core/AVR8/../AVR8/../AVR8/Endpoint_AVR8.h **** 
 522:../../LUFA-111009/LUFA/Drivers/USB/Core/AVR8/../AVR8/../AVR8/Endpoint_AVR8.h **** 			/** Acknowledges an OUT packet to the host on the currently selected endpoint, freeing up the en
 523:../../LUFA-111009/LUFA/Drivers/USB/Core/AVR8/../AVR8/../AVR8/Endpoint_AVR8.h **** 			 *  for the next packet and switching to the alternative endpoint bank if double banked.
 524:../../LUFA-111009/LUFA/Drivers/USB/Core/AVR8/../AVR8/../AVR8/Endpoint_AVR8.h **** 			 *
 525:../../LUFA-111009/LUFA/Drivers/USB/Core/AVR8/../AVR8/../AVR8/Endpoint_AVR8.h **** 			 *  \ingroup Group_EndpointPacketManagement_AVR8
 526:../../LUFA-111009/LUFA/Drivers/USB/Core/AVR8/../AVR8/../AVR8/Endpoint_AVR8.h **** 			 */
 527:../../LUFA-111009/LUFA/Drivers/USB/Core/AVR8/../AVR8/../AVR8/Endpoint_AVR8.h **** 			static inline void Endpoint_ClearOUT(void) ATTR_ALWAYS_INLINE;
 528:../../LUFA-111009/LUFA/Drivers/USB/Core/AVR8/../AVR8/../AVR8/Endpoint_AVR8.h **** 			static inline void Endpoint_ClearOUT(void)
 106               		.loc 2 528 23 view .LVU20
 107               	.LBB259:
 529:../../LUFA-111009/LUFA/Drivers/USB/Core/AVR8/../AVR8/../AVR8/Endpoint_AVR8.h **** 			{
 530:../../LUFA-111009/LUFA/Drivers/USB/Core/AVR8/../AVR8/../AVR8/Endpoint_AVR8.h **** 				#if !defined(CONTROL_ONLY_DEVICE)
 531:../../LUFA-111009/LUFA/Drivers/USB/Core/AVR8/../AVR8/../AVR8/Endpoint_AVR8.h **** 					UEINTX &= ~((1 << RXOUTI) | (1 << FIFOCON));
 108               		.loc 2 531 6 view .LVU21
 109               		.loc 2 531 13 is_stmt 0 view .LVU22
 110 003c 8091 E800 		lds r24,232
 111 0040 8B77      		andi r24,lo8(123)
 112 0042 8093 E800 		sts 232,r24
 113               	.LBE259:
 114               	.LBE258:
  56:../../LUFA-111009/LUFA/Drivers/USB/Core/AVR8/EndpointStream_AVR8.c **** 
  57:../../LUFA-111009/LUFA/Drivers/USB/Core/AVR8/EndpointStream_AVR8.c **** 			if (BytesProcessed != NULL)
 115               		.loc 1 57 4 is_stmt 1 view .LVU23
 116               		.loc 1 57 7 is_stmt 0 view .LVU24
 117 0046 0115      		cp r16,__zero_reg__
 118 0048 1105      		cpc r17,__zero_reg__
 119 004a 01F0      		breq .L6
  58:../../LUFA-111009/LUFA/Drivers/USB/Core/AVR8/EndpointStream_AVR8.c **** 			{
  59:../../LUFA-111009/LUFA/Drivers/USB/Core/AVR8/EndpointStream_AVR8.c **** 				*BytesProcessed += BytesInTransfer;
 120               		.loc 1 59 5 is_stmt 1 view .LVU25
 121               		.loc 1 59 21 is_stmt 0 view .LVU26
 122 004c F801      		movw r30,r16
 123 004e 8081      		ld r24,Z
 124 0050 9181      		ldd r25,Z+1
 125 0052 C80E      		add r12,r24
 126 0054 D91E      		adc r13,r25
 127               	.LVL6:
 128               		.loc 1 59 21 view .LVU27
 129 0056 D182      		std Z+1,r13
 130 0058 C082      		st Z,r12
  60:../../LUFA-111009/LUFA/Drivers/USB/Core/AVR8/EndpointStream_AVR8.c **** 				return ENDPOINT_RWSTREAM_IncompleteTransfer;
 131               		.loc 1 60 5 is_stmt 1 view .LVU28
 132               		.loc 1 60 12 is_stmt 0 view .LVU29
 133 005a 85E0      		ldi r24,lo8(5)
 134 005c F82E      		mov r15,r24
 135               	.L1:
  61:../../LUFA-111009/LUFA/Drivers/USB/Core/AVR8/EndpointStream_AVR8.c **** 			}
  62:../../LUFA-111009/LUFA/Drivers/USB/Core/AVR8/EndpointStream_AVR8.c **** 
  63:../../LUFA-111009/LUFA/Drivers/USB/Core/AVR8/EndpointStream_AVR8.c **** 			if ((ErrorCode = Endpoint_WaitUntilReady()))
  64:../../LUFA-111009/LUFA/Drivers/USB/Core/AVR8/EndpointStream_AVR8.c **** 			  return ErrorCode;
  65:../../LUFA-111009/LUFA/Drivers/USB/Core/AVR8/EndpointStream_AVR8.c **** 		}
  66:../../LUFA-111009/LUFA/Drivers/USB/Core/AVR8/EndpointStream_AVR8.c **** 		else
  67:../../LUFA-111009/LUFA/Drivers/USB/Core/AVR8/EndpointStream_AVR8.c **** 		{
  68:../../LUFA-111009/LUFA/Drivers/USB/Core/AVR8/EndpointStream_AVR8.c **** 			Endpoint_Discard_8();
  69:../../LUFA-111009/LUFA/Drivers/USB/Core/AVR8/EndpointStream_AVR8.c **** 
  70:../../LUFA-111009/LUFA/Drivers/USB/Core/AVR8/EndpointStream_AVR8.c **** 			Length--;
  71:../../LUFA-111009/LUFA/Drivers/USB/Core/AVR8/EndpointStream_AVR8.c **** 			BytesInTransfer++;
  72:../../LUFA-111009/LUFA/Drivers/USB/Core/AVR8/EndpointStream_AVR8.c **** 		}
  73:../../LUFA-111009/LUFA/Drivers/USB/Core/AVR8/EndpointStream_AVR8.c **** 	}
  74:../../LUFA-111009/LUFA/Drivers/USB/Core/AVR8/EndpointStream_AVR8.c **** 	
  75:../../LUFA-111009/LUFA/Drivers/USB/Core/AVR8/EndpointStream_AVR8.c **** 	return ENDPOINT_RWSTREAM_NoError;
  76:../../LUFA-111009/LUFA/Drivers/USB/Core/AVR8/EndpointStream_AVR8.c **** }
 136               		.loc 1 76 1 view .LVU30
 137 005e 8F2D      		mov r24,r15
 138               	/* epilogue start */
 139 0060 DF91      		pop r29
 140 0062 CF91      		pop r28
 141               	.LVL7:
 142               		.loc 1 76 1 view .LVU31
 143 0064 1F91      		pop r17
 144 0066 0F91      		pop r16
 145               	.LVL8:
 146               		.loc 1 76 1 view .LVU32
 147 0068 FF90      		pop r15
 148 006a DF90      		pop r13
 149 006c CF90      		pop r12
 150 006e 0895      		ret
 151               	.LVL9:
 152               	.L6:
  63:../../LUFA-111009/LUFA/Drivers/USB/Core/AVR8/EndpointStream_AVR8.c **** 			  return ErrorCode;
 153               		.loc 1 63 4 is_stmt 1 view .LVU33
  63:../../LUFA-111009/LUFA/Drivers/USB/Core/AVR8/EndpointStream_AVR8.c **** 			  return ErrorCode;
 154               		.loc 1 63 21 is_stmt 0 view .LVU34
 155 0070 0E94 0000 		call Endpoint_WaitUntilReady
 156               	.LVL10:
  63:../../LUFA-111009/LUFA/Drivers/USB/Core/AVR8/EndpointStream_AVR8.c **** 			  return ErrorCode;
 157               		.loc 1 63 7 view .LVU35
 158 0074 8823      		tst r24
 159 0076 01F0      		breq .L4
  63:../../LUFA-111009/LUFA/Drivers/USB/Core/AVR8/EndpointStream_AVR8.c **** 			  return ErrorCode;
 160               		.loc 1 63 21 view .LVU36
 161 0078 F82E      		mov r15,r24
 162 007a 00C0      		rjmp .L1
 163               	.LVL11:
 164               	.L5:
  68:../../LUFA-111009/LUFA/Drivers/USB/Core/AVR8/EndpointStream_AVR8.c **** 
 165               		.loc 1 68 4 is_stmt 1 view .LVU37
 166               	.LBB260:
 167               	.LBI260:
 532:../../LUFA-111009/LUFA/Drivers/USB/Core/AVR8/../AVR8/../AVR8/Endpoint_AVR8.h **** 				#else
 533:../../LUFA-111009/LUFA/Drivers/USB/Core/AVR8/../AVR8/../AVR8/Endpoint_AVR8.h **** 					UEINTX &= ~(1 << RXOUTI);
 534:../../LUFA-111009/LUFA/Drivers/USB/Core/AVR8/../AVR8/../AVR8/Endpoint_AVR8.h **** 				#endif
 535:../../LUFA-111009/LUFA/Drivers/USB/Core/AVR8/../AVR8/../AVR8/Endpoint_AVR8.h **** 			}
 536:../../LUFA-111009/LUFA/Drivers/USB/Core/AVR8/../AVR8/../AVR8/Endpoint_AVR8.h **** 
 537:../../LUFA-111009/LUFA/Drivers/USB/Core/AVR8/../AVR8/../AVR8/Endpoint_AVR8.h **** 			/** Stalls the current endpoint, indicating to the host that a logical problem occurred with the
 538:../../LUFA-111009/LUFA/Drivers/USB/Core/AVR8/../AVR8/../AVR8/Endpoint_AVR8.h **** 			 *  indicated endpoint and that the current transfer sequence should be aborted. This provides a
 539:../../LUFA-111009/LUFA/Drivers/USB/Core/AVR8/../AVR8/../AVR8/Endpoint_AVR8.h **** 			 *  way for devices to indicate invalid commands to the host so that the current transfer can be
 540:../../LUFA-111009/LUFA/Drivers/USB/Core/AVR8/../AVR8/../AVR8/Endpoint_AVR8.h **** 			 *  aborted and the host can begin its own recovery sequence.
 541:../../LUFA-111009/LUFA/Drivers/USB/Core/AVR8/../AVR8/../AVR8/Endpoint_AVR8.h **** 			 *
 542:../../LUFA-111009/LUFA/Drivers/USB/Core/AVR8/../AVR8/../AVR8/Endpoint_AVR8.h **** 			 *  The currently selected endpoint remains stalled until either the \ref Endpoint_ClearStall() 
 543:../../LUFA-111009/LUFA/Drivers/USB/Core/AVR8/../AVR8/../AVR8/Endpoint_AVR8.h **** 			 *  is called, or the host issues a CLEAR FEATURE request to the device for the currently select
 544:../../LUFA-111009/LUFA/Drivers/USB/Core/AVR8/../AVR8/../AVR8/Endpoint_AVR8.h **** 			 *  endpoint.
 545:../../LUFA-111009/LUFA/Drivers/USB/Core/AVR8/../AVR8/../AVR8/Endpoint_AVR8.h **** 			 *
 546:../../LUFA-111009/LUFA/Drivers/USB/Core/AVR8/../AVR8/../AVR8/Endpoint_AVR8.h **** 			 *  \ingroup Group_EndpointPacketManagement_AVR8
 547:../../LUFA-111009/LUFA/Drivers/USB/Core/AVR8/../AVR8/../AVR8/Endpoint_AVR8.h **** 			 */
 548:../../LUFA-111009/LUFA/Drivers/USB/Core/AVR8/../AVR8/../AVR8/Endpoint_AVR8.h **** 			static inline void Endpoint_StallTransaction(void) ATTR_ALWAYS_INLINE;
 549:../../LUFA-111009/LUFA/Drivers/USB/Core/AVR8/../AVR8/../AVR8/Endpoint_AVR8.h **** 			static inline void Endpoint_StallTransaction(void)
 550:../../LUFA-111009/LUFA/Drivers/USB/Core/AVR8/../AVR8/../AVR8/Endpoint_AVR8.h **** 			{
 551:../../LUFA-111009/LUFA/Drivers/USB/Core/AVR8/../AVR8/../AVR8/Endpoint_AVR8.h **** 				UECONX |= (1 << STALLRQ);
 552:../../LUFA-111009/LUFA/Drivers/USB/Core/AVR8/../AVR8/../AVR8/Endpoint_AVR8.h **** 			}
 553:../../LUFA-111009/LUFA/Drivers/USB/Core/AVR8/../AVR8/../AVR8/Endpoint_AVR8.h **** 
 554:../../LUFA-111009/LUFA/Drivers/USB/Core/AVR8/../AVR8/../AVR8/Endpoint_AVR8.h **** 			/** Clears the STALL condition on the currently selected endpoint.
 555:../../LUFA-111009/LUFA/Drivers/USB/Core/AVR8/../AVR8/../AVR8/Endpoint_AVR8.h **** 			 *
 556:../../LUFA-111009/LUFA/Drivers/USB/Core/AVR8/../AVR8/../AVR8/Endpoint_AVR8.h **** 			 *  \ingroup Group_EndpointPacketManagement_AVR8
 557:../../LUFA-111009/LUFA/Drivers/USB/Core/AVR8/../AVR8/../AVR8/Endpoint_AVR8.h **** 			 */
 558:../../LUFA-111009/LUFA/Drivers/USB/Core/AVR8/../AVR8/../AVR8/Endpoint_AVR8.h **** 			static inline void Endpoint_ClearStall(void) ATTR_ALWAYS_INLINE;
 559:../../LUFA-111009/LUFA/Drivers/USB/Core/AVR8/../AVR8/../AVR8/Endpoint_AVR8.h **** 			static inline void Endpoint_ClearStall(void)
 560:../../LUFA-111009/LUFA/Drivers/USB/Core/AVR8/../AVR8/../AVR8/Endpoint_AVR8.h **** 			{
 561:../../LUFA-111009/LUFA/Drivers/USB/Core/AVR8/../AVR8/../AVR8/Endpoint_AVR8.h **** 				UECONX |= (1 << STALLRQC);
 562:../../LUFA-111009/LUFA/Drivers/USB/Core/AVR8/../AVR8/../AVR8/Endpoint_AVR8.h **** 			}
 563:../../LUFA-111009/LUFA/Drivers/USB/Core/AVR8/../AVR8/../AVR8/Endpoint_AVR8.h **** 
 564:../../LUFA-111009/LUFA/Drivers/USB/Core/AVR8/../AVR8/../AVR8/Endpoint_AVR8.h **** 			/** Determines if the currently selected endpoint is stalled, false otherwise.
 565:../../LUFA-111009/LUFA/Drivers/USB/Core/AVR8/../AVR8/../AVR8/Endpoint_AVR8.h **** 			 *
 566:../../LUFA-111009/LUFA/Drivers/USB/Core/AVR8/../AVR8/../AVR8/Endpoint_AVR8.h **** 			 *  \ingroup Group_EndpointPacketManagement_AVR8
 567:../../LUFA-111009/LUFA/Drivers/USB/Core/AVR8/../AVR8/../AVR8/Endpoint_AVR8.h **** 			 *
 568:../../LUFA-111009/LUFA/Drivers/USB/Core/AVR8/../AVR8/../AVR8/Endpoint_AVR8.h **** 			 *  \return Boolean \c true if the currently selected endpoint is stalled, \c false otherwise.
 569:../../LUFA-111009/LUFA/Drivers/USB/Core/AVR8/../AVR8/../AVR8/Endpoint_AVR8.h **** 			 */
 570:../../LUFA-111009/LUFA/Drivers/USB/Core/AVR8/../AVR8/../AVR8/Endpoint_AVR8.h **** 			static inline bool Endpoint_IsStalled(void) ATTR_WARN_UNUSED_RESULT ATTR_ALWAYS_INLINE;
 571:../../LUFA-111009/LUFA/Drivers/USB/Core/AVR8/../AVR8/../AVR8/Endpoint_AVR8.h **** 			static inline bool Endpoint_IsStalled(void)
 572:../../LUFA-111009/LUFA/Drivers/USB/Core/AVR8/../AVR8/../AVR8/Endpoint_AVR8.h **** 			{
 573:../../LUFA-111009/LUFA/Drivers/USB/Core/AVR8/../AVR8/../AVR8/Endpoint_AVR8.h **** 				return ((UECONX & (1 << STALLRQ)) ? true : false);
 574:../../LUFA-111009/LUFA/Drivers/USB/Core/AVR8/../AVR8/../AVR8/Endpoint_AVR8.h **** 			}
 575:../../LUFA-111009/LUFA/Drivers/USB/Core/AVR8/../AVR8/../AVR8/Endpoint_AVR8.h **** 
 576:../../LUFA-111009/LUFA/Drivers/USB/Core/AVR8/../AVR8/../AVR8/Endpoint_AVR8.h **** 			/** Resets the data toggle of the currently selected endpoint. */
 577:../../LUFA-111009/LUFA/Drivers/USB/Core/AVR8/../AVR8/../AVR8/Endpoint_AVR8.h **** 			static inline void Endpoint_ResetDataToggle(void) ATTR_ALWAYS_INLINE;
 578:../../LUFA-111009/LUFA/Drivers/USB/Core/AVR8/../AVR8/../AVR8/Endpoint_AVR8.h **** 			static inline void Endpoint_ResetDataToggle(void)
 579:../../LUFA-111009/LUFA/Drivers/USB/Core/AVR8/../AVR8/../AVR8/Endpoint_AVR8.h **** 			{
 580:../../LUFA-111009/LUFA/Drivers/USB/Core/AVR8/../AVR8/../AVR8/Endpoint_AVR8.h **** 				UECONX |= (1 << RSTDT);
 581:../../LUFA-111009/LUFA/Drivers/USB/Core/AVR8/../AVR8/../AVR8/Endpoint_AVR8.h **** 			}
 582:../../LUFA-111009/LUFA/Drivers/USB/Core/AVR8/../AVR8/../AVR8/Endpoint_AVR8.h **** 
 583:../../LUFA-111009/LUFA/Drivers/USB/Core/AVR8/../AVR8/../AVR8/Endpoint_AVR8.h **** 			/** Determines the currently selected endpoint's direction.
 584:../../LUFA-111009/LUFA/Drivers/USB/Core/AVR8/../AVR8/../AVR8/Endpoint_AVR8.h **** 			 *
 585:../../LUFA-111009/LUFA/Drivers/USB/Core/AVR8/../AVR8/../AVR8/Endpoint_AVR8.h **** 			 *  \return The currently selected endpoint's direction, as a \c ENDPOINT_DIR_* mask.
 586:../../LUFA-111009/LUFA/Drivers/USB/Core/AVR8/../AVR8/../AVR8/Endpoint_AVR8.h **** 			 */
 587:../../LUFA-111009/LUFA/Drivers/USB/Core/AVR8/../AVR8/../AVR8/Endpoint_AVR8.h **** 			static inline uint8_t Endpoint_GetEndpointDirection(void) ATTR_WARN_UNUSED_RESULT ATTR_ALWAYS_IN
 588:../../LUFA-111009/LUFA/Drivers/USB/Core/AVR8/../AVR8/../AVR8/Endpoint_AVR8.h **** 			static inline uint8_t Endpoint_GetEndpointDirection(void)
 589:../../LUFA-111009/LUFA/Drivers/USB/Core/AVR8/../AVR8/../AVR8/Endpoint_AVR8.h **** 			{
 590:../../LUFA-111009/LUFA/Drivers/USB/Core/AVR8/../AVR8/../AVR8/Endpoint_AVR8.h **** 				return (UECFG0X & (1 << EPDIR)) ? ENDPOINT_DIR_IN : ENDPOINT_DIR_OUT;
 591:../../LUFA-111009/LUFA/Drivers/USB/Core/AVR8/../AVR8/../AVR8/Endpoint_AVR8.h **** 			}
 592:../../LUFA-111009/LUFA/Drivers/USB/Core/AVR8/../AVR8/../AVR8/Endpoint_AVR8.h **** 
 593:../../LUFA-111009/LUFA/Drivers/USB/Core/AVR8/../AVR8/../AVR8/Endpoint_AVR8.h **** 			/** Sets the direction of the currently selected endpoint.
 594:../../LUFA-111009/LUFA/Drivers/USB/Core/AVR8/../AVR8/../AVR8/Endpoint_AVR8.h **** 			 *
 595:../../LUFA-111009/LUFA/Drivers/USB/Core/AVR8/../AVR8/../AVR8/Endpoint_AVR8.h **** 			 *  \param[in] DirectionMask  New endpoint direction, as a \c ENDPOINT_DIR_* mask.
 596:../../LUFA-111009/LUFA/Drivers/USB/Core/AVR8/../AVR8/../AVR8/Endpoint_AVR8.h **** 			 */
 597:../../LUFA-111009/LUFA/Drivers/USB/Core/AVR8/../AVR8/../AVR8/Endpoint_AVR8.h **** 			static inline void Endpoint_SetEndpointDirection(const uint8_t DirectionMask) ATTR_ALWAYS_INLINE
 598:../../LUFA-111009/LUFA/Drivers/USB/Core/AVR8/../AVR8/../AVR8/Endpoint_AVR8.h **** 			static inline void Endpoint_SetEndpointDirection(const uint8_t DirectionMask)
 599:../../LUFA-111009/LUFA/Drivers/USB/Core/AVR8/../AVR8/../AVR8/Endpoint_AVR8.h **** 			{
 600:../../LUFA-111009/LUFA/Drivers/USB/Core/AVR8/../AVR8/../AVR8/Endpoint_AVR8.h **** 				UECFG0X = ((UECFG0X & ~(1 << EPDIR)) | (DirectionMask ? (1 << EPDIR) : 0));
 601:../../LUFA-111009/LUFA/Drivers/USB/Core/AVR8/../AVR8/../AVR8/Endpoint_AVR8.h **** 			}
 602:../../LUFA-111009/LUFA/Drivers/USB/Core/AVR8/../AVR8/../AVR8/Endpoint_AVR8.h **** 
 603:../../LUFA-111009/LUFA/Drivers/USB/Core/AVR8/../AVR8/../AVR8/Endpoint_AVR8.h **** 			/** Reads one byte from the currently selected endpoint's bank, for OUT direction endpoints.
 604:../../LUFA-111009/LUFA/Drivers/USB/Core/AVR8/../AVR8/../AVR8/Endpoint_AVR8.h **** 			 *
 605:../../LUFA-111009/LUFA/Drivers/USB/Core/AVR8/../AVR8/../AVR8/Endpoint_AVR8.h **** 			 *  \ingroup Group_EndpointPrimitiveRW_AVR8
 606:../../LUFA-111009/LUFA/Drivers/USB/Core/AVR8/../AVR8/../AVR8/Endpoint_AVR8.h **** 			 *
 607:../../LUFA-111009/LUFA/Drivers/USB/Core/AVR8/../AVR8/../AVR8/Endpoint_AVR8.h **** 			 *  \return Next byte in the currently selected endpoint's FIFO buffer.
 608:../../LUFA-111009/LUFA/Drivers/USB/Core/AVR8/../AVR8/../AVR8/Endpoint_AVR8.h **** 			 */
 609:../../LUFA-111009/LUFA/Drivers/USB/Core/AVR8/../AVR8/../AVR8/Endpoint_AVR8.h **** 			static inline uint8_t Endpoint_Read_8(void) ATTR_WARN_UNUSED_RESULT ATTR_ALWAYS_INLINE;
 610:../../LUFA-111009/LUFA/Drivers/USB/Core/AVR8/../AVR8/../AVR8/Endpoint_AVR8.h **** 			static inline uint8_t Endpoint_Read_8(void)
 611:../../LUFA-111009/LUFA/Drivers/USB/Core/AVR8/../AVR8/../AVR8/Endpoint_AVR8.h **** 			{
 612:../../LUFA-111009/LUFA/Drivers/USB/Core/AVR8/../AVR8/../AVR8/Endpoint_AVR8.h **** 				return UEDATX;
 613:../../LUFA-111009/LUFA/Drivers/USB/Core/AVR8/../AVR8/../AVR8/Endpoint_AVR8.h **** 			}
 614:../../LUFA-111009/LUFA/Drivers/USB/Core/AVR8/../AVR8/../AVR8/Endpoint_AVR8.h **** 
 615:../../LUFA-111009/LUFA/Drivers/USB/Core/AVR8/../AVR8/../AVR8/Endpoint_AVR8.h **** 			/** Writes one byte to the currently selected endpoint's bank, for IN direction endpoints.
 616:../../LUFA-111009/LUFA/Drivers/USB/Core/AVR8/../AVR8/../AVR8/Endpoint_AVR8.h **** 			 *
 617:../../LUFA-111009/LUFA/Drivers/USB/Core/AVR8/../AVR8/../AVR8/Endpoint_AVR8.h **** 			 *  \ingroup Group_EndpointPrimitiveRW_AVR8
 618:../../LUFA-111009/LUFA/Drivers/USB/Core/AVR8/../AVR8/../AVR8/Endpoint_AVR8.h **** 			 *
 619:../../LUFA-111009/LUFA/Drivers/USB/Core/AVR8/../AVR8/../AVR8/Endpoint_AVR8.h **** 			 *  \param[in] Data  Data to write into the the currently selected endpoint's FIFO buffer.
 620:../../LUFA-111009/LUFA/Drivers/USB/Core/AVR8/../AVR8/../AVR8/Endpoint_AVR8.h **** 			 */
 621:../../LUFA-111009/LUFA/Drivers/USB/Core/AVR8/../AVR8/../AVR8/Endpoint_AVR8.h **** 			static inline void Endpoint_Write_8(const uint8_t Data) ATTR_ALWAYS_INLINE;
 622:../../LUFA-111009/LUFA/Drivers/USB/Core/AVR8/../AVR8/../AVR8/Endpoint_AVR8.h **** 			static inline void Endpoint_Write_8(const uint8_t Data)
 623:../../LUFA-111009/LUFA/Drivers/USB/Core/AVR8/../AVR8/../AVR8/Endpoint_AVR8.h **** 			{
 624:../../LUFA-111009/LUFA/Drivers/USB/Core/AVR8/../AVR8/../AVR8/Endpoint_AVR8.h **** 				UEDATX = Data;
 625:../../LUFA-111009/LUFA/Drivers/USB/Core/AVR8/../AVR8/../AVR8/Endpoint_AVR8.h **** 			}
 626:../../LUFA-111009/LUFA/Drivers/USB/Core/AVR8/../AVR8/../AVR8/Endpoint_AVR8.h **** 
 627:../../LUFA-111009/LUFA/Drivers/USB/Core/AVR8/../AVR8/../AVR8/Endpoint_AVR8.h **** 			/** Discards one byte from the currently selected endpoint's bank, for OUT direction endpoints.
 628:../../LUFA-111009/LUFA/Drivers/USB/Core/AVR8/../AVR8/../AVR8/Endpoint_AVR8.h **** 			 *
 629:../../LUFA-111009/LUFA/Drivers/USB/Core/AVR8/../AVR8/../AVR8/Endpoint_AVR8.h **** 			 *  \ingroup Group_EndpointPrimitiveRW_AVR8
 630:../../LUFA-111009/LUFA/Drivers/USB/Core/AVR8/../AVR8/../AVR8/Endpoint_AVR8.h **** 			 */
 631:../../LUFA-111009/LUFA/Drivers/USB/Core/AVR8/../AVR8/../AVR8/Endpoint_AVR8.h **** 			static inline void Endpoint_Discard_8(void) ATTR_ALWAYS_INLINE;
 632:../../LUFA-111009/LUFA/Drivers/USB/Core/AVR8/../AVR8/../AVR8/Endpoint_AVR8.h **** 			static inline void Endpoint_Discard_8(void)
 168               		.loc 2 632 23 view .LVU38
 169               	.LBB261:
 633:../../LUFA-111009/LUFA/Drivers/USB/Core/AVR8/../AVR8/../AVR8/Endpoint_AVR8.h **** 			{
 634:../../LUFA-111009/LUFA/Drivers/USB/Core/AVR8/../AVR8/../AVR8/Endpoint_AVR8.h **** 				uint8_t Dummy;
 170               		.loc 2 634 5 view .LVU39
 635:../../LUFA-111009/LUFA/Drivers/USB/Core/AVR8/../AVR8/../AVR8/Endpoint_AVR8.h **** 
 636:../../LUFA-111009/LUFA/Drivers/USB/Core/AVR8/../AVR8/../AVR8/Endpoint_AVR8.h **** 				Dummy = UEDATX;
 171               		.loc 2 636 5 view .LVU40
 172               		.loc 2 636 11 is_stmt 0 view .LVU41
 173 007c 8091 F100 		lds r24,241
 637:../../LUFA-111009/LUFA/Drivers/USB/Core/AVR8/../AVR8/../AVR8/Endpoint_AVR8.h **** 
 638:../../LUFA-111009/LUFA/Drivers/USB/Core/AVR8/../AVR8/../AVR8/Endpoint_AVR8.h **** 				(void)Dummy;
 174               		.loc 2 638 5 is_stmt 1 view .LVU42
 175               	.LBE261:
 176               	.LBE260:
  70:../../LUFA-111009/LUFA/Drivers/USB/Core/AVR8/EndpointStream_AVR8.c **** 			BytesInTransfer++;
 177               		.loc 1 70 4 view .LVU43
  70:../../LUFA-111009/LUFA/Drivers/USB/Core/AVR8/EndpointStream_AVR8.c **** 			BytesInTransfer++;
 178               		.loc 1 70 10 is_stmt 0 view .LVU44
 179 0080 2197      		sbiw r28,1
 180               	.LVL12:
  71:../../LUFA-111009/LUFA/Drivers/USB/Core/AVR8/EndpointStream_AVR8.c **** 		}
 181               		.loc 1 71 4 is_stmt 1 view .LVU45
  71:../../LUFA-111009/LUFA/Drivers/USB/Core/AVR8/EndpointStream_AVR8.c **** 		}
 182               		.loc 1 71 19 is_stmt 0 view .LVU46
 183 0082 FFEF      		ldi r31,-1
 184 0084 CF1A      		sub r12,r31
 185 0086 DF0A      		sbc r13,r31
 186               	.LVL13:
  71:../../LUFA-111009/LUFA/Drivers/USB/Core/AVR8/EndpointStream_AVR8.c **** 		}
 187               		.loc 1 71 19 view .LVU47
 188 0088 00C0      		rjmp .L4
 189               		.cfi_endproc
 190               	.LFE81:
 192               		.section	.text.Endpoint_Null_Stream,"ax",@progbits
 193               	.global	Endpoint_Null_Stream
 195               	Endpoint_Null_Stream:
 196               	.LVL14:
 197               	.LFB82:
  77:../../LUFA-111009/LUFA/Drivers/USB/Core/AVR8/EndpointStream_AVR8.c **** 
  78:../../LUFA-111009/LUFA/Drivers/USB/Core/AVR8/EndpointStream_AVR8.c **** uint8_t Endpoint_Null_Stream(uint16_t Length,
  79:../../LUFA-111009/LUFA/Drivers/USB/Core/AVR8/EndpointStream_AVR8.c ****                              uint16_t* const BytesProcessed)
  80:../../LUFA-111009/LUFA/Drivers/USB/Core/AVR8/EndpointStream_AVR8.c **** {
 198               		.loc 1 80 1 is_stmt 1 view -0
 199               		.cfi_startproc
 200               		.loc 1 80 1 is_stmt 0 view .LVU49
 201 0000 CF92      		push r12
 202               	.LCFI7:
 203               		.cfi_def_cfa_offset 3
 204               		.cfi_offset 12, -2
 205 0002 DF92      		push r13
 206               	.LCFI8:
 207               		.cfi_def_cfa_offset 4
 208               		.cfi_offset 13, -3
 209 0004 FF92      		push r15
 210               	.LCFI9:
 211               		.cfi_def_cfa_offset 5
 212               		.cfi_offset 15, -4
 213 0006 0F93      		push r16
 214               	.LCFI10:
 215               		.cfi_def_cfa_offset 6
 216               		.cfi_offset 16, -5
 217 0008 1F93      		push r17
 218               	.LCFI11:
 219               		.cfi_def_cfa_offset 7
 220               		.cfi_offset 17, -6
 221 000a CF93      		push r28
 222               	.LCFI12:
 223               		.cfi_def_cfa_offset 8
 224               		.cfi_offset 28, -7
 225 000c DF93      		push r29
 226               	.LCFI13:
 227               		.cfi_def_cfa_offset 9
 228               		.cfi_offset 29, -8
 229               	/* prologue: function */
 230               	/* frame size = 0 */
 231               	/* stack size = 7 */
 232               	.L__stack_usage = 7
 233 000e EC01      		movw r28,r24
 234 0010 8B01      		movw r16,r22
  81:../../LUFA-111009/LUFA/Drivers/USB/Core/AVR8/EndpointStream_AVR8.c **** 	uint8_t  ErrorCode;
 235               		.loc 1 81 2 is_stmt 1 view .LVU50
  82:../../LUFA-111009/LUFA/Drivers/USB/Core/AVR8/EndpointStream_AVR8.c **** 	uint16_t BytesInTransfer = 0;
 236               		.loc 1 82 2 view .LVU51
 237               	.LVL15:
  83:../../LUFA-111009/LUFA/Drivers/USB/Core/AVR8/EndpointStream_AVR8.c **** 	
  84:../../LUFA-111009/LUFA/Drivers/USB/Core/AVR8/EndpointStream_AVR8.c **** 	if ((ErrorCode = Endpoint_WaitUntilReady()))
 238               		.loc 1 84 2 view .LVU52
 239               		.loc 1 84 19 is_stmt 0 view .LVU53
 240 0012 0E94 0000 		call Endpoint_WaitUntilReady
 241               	.LVL16:
 242               		.loc 1 84 19 view .LVU54
 243 0016 F82E      		mov r15,r24
 244               	.LVL17:
 245               		.loc 1 84 5 view .LVU55
 246 0018 8111      		cpse r24,__zero_reg__
 247 001a 00C0      		rjmp .L13
  85:../../LUFA-111009/LUFA/Drivers/USB/Core/AVR8/EndpointStream_AVR8.c **** 	  return ErrorCode;
  86:../../LUFA-111009/LUFA/Drivers/USB/Core/AVR8/EndpointStream_AVR8.c **** 	  
  87:../../LUFA-111009/LUFA/Drivers/USB/Core/AVR8/EndpointStream_AVR8.c **** 	if (BytesProcessed != NULL)
 248               		.loc 1 87 2 is_stmt 1 view .LVU56
 249               		.loc 1 87 5 is_stmt 0 view .LVU57
 250 001c 0115      		cp r16,__zero_reg__
 251 001e 1105      		cpc r17,__zero_reg__
 252 0020 01F0      		breq .L15
  88:../../LUFA-111009/LUFA/Drivers/USB/Core/AVR8/EndpointStream_AVR8.c **** 	  Length -= *BytesProcessed;
 253               		.loc 1 88 4 is_stmt 1 view .LVU58
 254               		.loc 1 88 11 is_stmt 0 view .LVU59
 255 0022 F801      		movw r30,r16
 256 0024 8081      		ld r24,Z
 257 0026 9181      		ldd r25,Z+1
 258 0028 C81B      		sub r28,r24
 259 002a D90B      		sbc r29,r25
 260               	.LVL18:
 261               	.L15:
  80:../../LUFA-111009/LUFA/Drivers/USB/Core/AVR8/EndpointStream_AVR8.c **** 	uint8_t  ErrorCode;
 262               		.loc 1 80 1 view .LVU60
 263 002c D12C      		mov r13,__zero_reg__
 264 002e C12C      		mov r12,__zero_reg__
 265               	.LVL19:
 266               	.L16:
  89:../../LUFA-111009/LUFA/Drivers/USB/Core/AVR8/EndpointStream_AVR8.c **** 
  90:../../LUFA-111009/LUFA/Drivers/USB/Core/AVR8/EndpointStream_AVR8.c **** 	while (Length)
 267               		.loc 1 90 8 is_stmt 1 view .LVU61
 268 0030 2097      		sbiw r28,0
 269 0032 01F0      		breq .L13
  91:../../LUFA-111009/LUFA/Drivers/USB/Core/AVR8/EndpointStream_AVR8.c **** 	{
  92:../../LUFA-111009/LUFA/Drivers/USB/Core/AVR8/EndpointStream_AVR8.c **** 		if (!(Endpoint_IsReadWriteAllowed()))
 270               		.loc 1 92 3 view .LVU62
 271               	.LBB262:
 272               	.LBI262:
 418:../../LUFA-111009/LUFA/Drivers/USB/Core/AVR8/../AVR8/../AVR8/Endpoint_AVR8.h **** 			{
 273               		.loc 2 418 23 view .LVU63
 274               	.LBB263:
 420:../../LUFA-111009/LUFA/Drivers/USB/Core/AVR8/../AVR8/../AVR8/Endpoint_AVR8.h **** 			}
 275               		.loc 2 420 5 view .LVU64
 420:../../LUFA-111009/LUFA/Drivers/USB/Core/AVR8/../AVR8/../AVR8/Endpoint_AVR8.h **** 			}
 276               		.loc 2 420 14 is_stmt 0 view .LVU65
 277 0034 8091 E800 		lds r24,232
 278               	.LBE263:
 279               	.LBE262:
 280               		.loc 1 92 6 view .LVU66
 281 0038 85FD      		sbrc r24,5
 282 003a 00C0      		rjmp .L17
  93:../../LUFA-111009/LUFA/Drivers/USB/Core/AVR8/EndpointStream_AVR8.c **** 		{
  94:../../LUFA-111009/LUFA/Drivers/USB/Core/AVR8/EndpointStream_AVR8.c **** 			Endpoint_ClearIN();
 283               		.loc 1 94 4 is_stmt 1 view .LVU67
 284               	.LBB264:
 285               	.LBI264:
 513:../../LUFA-111009/LUFA/Drivers/USB/Core/AVR8/../AVR8/../AVR8/Endpoint_AVR8.h **** 			{
 286               		.loc 2 513 23 view .LVU68
 287               	.LBB265:
 516:../../LUFA-111009/LUFA/Drivers/USB/Core/AVR8/../AVR8/../AVR8/Endpoint_AVR8.h **** 				#else
 288               		.loc 2 516 6 view .LVU69
 516:../../LUFA-111009/LUFA/Drivers/USB/Core/AVR8/../AVR8/../AVR8/Endpoint_AVR8.h **** 				#else
 289               		.loc 2 516 13 is_stmt 0 view .LVU70
 290 003c 8091 E800 		lds r24,232
 291 0040 8E77      		andi r24,lo8(126)
 292 0042 8093 E800 		sts 232,r24
 293               	.LBE265:
 294               	.LBE264:
  95:../../LUFA-111009/LUFA/Drivers/USB/Core/AVR8/EndpointStream_AVR8.c **** 
  96:../../LUFA-111009/LUFA/Drivers/USB/Core/AVR8/EndpointStream_AVR8.c **** 			if (BytesProcessed != NULL)
 295               		.loc 1 96 4 is_stmt 1 view .LVU71
 296               		.loc 1 96 7 is_stmt 0 view .LVU72
 297 0046 0115      		cp r16,__zero_reg__
 298 0048 1105      		cpc r17,__zero_reg__
 299 004a 01F0      		breq .L18
  97:../../LUFA-111009/LUFA/Drivers/USB/Core/AVR8/EndpointStream_AVR8.c **** 			{
  98:../../LUFA-111009/LUFA/Drivers/USB/Core/AVR8/EndpointStream_AVR8.c **** 				*BytesProcessed += BytesInTransfer;
 300               		.loc 1 98 5 is_stmt 1 view .LVU73
 301               		.loc 1 98 21 is_stmt 0 view .LVU74
 302 004c F801      		movw r30,r16
 303 004e 8081      		ld r24,Z
 304 0050 9181      		ldd r25,Z+1
 305 0052 C80E      		add r12,r24
 306 0054 D91E      		adc r13,r25
 307               	.LVL20:
 308               		.loc 1 98 21 view .LVU75
 309 0056 D182      		std Z+1,r13
 310 0058 C082      		st Z,r12
  99:../../LUFA-111009/LUFA/Drivers/USB/Core/AVR8/EndpointStream_AVR8.c **** 				return ENDPOINT_RWSTREAM_IncompleteTransfer;
 311               		.loc 1 99 5 is_stmt 1 view .LVU76
 312               		.loc 1 99 12 is_stmt 0 view .LVU77
 313 005a 85E0      		ldi r24,lo8(5)
 314 005c F82E      		mov r15,r24
 315               	.L13:
 100:../../LUFA-111009/LUFA/Drivers/USB/Core/AVR8/EndpointStream_AVR8.c **** 			}
 101:../../LUFA-111009/LUFA/Drivers/USB/Core/AVR8/EndpointStream_AVR8.c **** 
 102:../../LUFA-111009/LUFA/Drivers/USB/Core/AVR8/EndpointStream_AVR8.c **** 			if ((ErrorCode = Endpoint_WaitUntilReady()))
 103:../../LUFA-111009/LUFA/Drivers/USB/Core/AVR8/EndpointStream_AVR8.c **** 			  return ErrorCode;
 104:../../LUFA-111009/LUFA/Drivers/USB/Core/AVR8/EndpointStream_AVR8.c **** 		}
 105:../../LUFA-111009/LUFA/Drivers/USB/Core/AVR8/EndpointStream_AVR8.c **** 		else
 106:../../LUFA-111009/LUFA/Drivers/USB/Core/AVR8/EndpointStream_AVR8.c **** 		{
 107:../../LUFA-111009/LUFA/Drivers/USB/Core/AVR8/EndpointStream_AVR8.c **** 			Endpoint_Write_8(0);
 108:../../LUFA-111009/LUFA/Drivers/USB/Core/AVR8/EndpointStream_AVR8.c **** 
 109:../../LUFA-111009/LUFA/Drivers/USB/Core/AVR8/EndpointStream_AVR8.c **** 			Length--;
 110:../../LUFA-111009/LUFA/Drivers/USB/Core/AVR8/EndpointStream_AVR8.c **** 			BytesInTransfer++;
 111:../../LUFA-111009/LUFA/Drivers/USB/Core/AVR8/EndpointStream_AVR8.c **** 		}
 112:../../LUFA-111009/LUFA/Drivers/USB/Core/AVR8/EndpointStream_AVR8.c **** 	}
 113:../../LUFA-111009/LUFA/Drivers/USB/Core/AVR8/EndpointStream_AVR8.c **** 	
 114:../../LUFA-111009/LUFA/Drivers/USB/Core/AVR8/EndpointStream_AVR8.c **** 	return ENDPOINT_RWSTREAM_NoError;
 115:../../LUFA-111009/LUFA/Drivers/USB/Core/AVR8/EndpointStream_AVR8.c **** }
 316               		.loc 1 115 1 view .LVU78
 317 005e 8F2D      		mov r24,r15
 318               	/* epilogue start */
 319 0060 DF91      		pop r29
 320 0062 CF91      		pop r28
 321               	.LVL21:
 322               		.loc 1 115 1 view .LVU79
 323 0064 1F91      		pop r17
 324 0066 0F91      		pop r16
 325               	.LVL22:
 326               		.loc 1 115 1 view .LVU80
 327 0068 FF90      		pop r15
 328 006a DF90      		pop r13
 329 006c CF90      		pop r12
 330 006e 0895      		ret
 331               	.LVL23:
 332               	.L18:
 102:../../LUFA-111009/LUFA/Drivers/USB/Core/AVR8/EndpointStream_AVR8.c **** 			  return ErrorCode;
 333               		.loc 1 102 4 is_stmt 1 view .LVU81
 102:../../LUFA-111009/LUFA/Drivers/USB/Core/AVR8/EndpointStream_AVR8.c **** 			  return ErrorCode;
 334               		.loc 1 102 21 is_stmt 0 view .LVU82
 335 0070 0E94 0000 		call Endpoint_WaitUntilReady
 336               	.LVL24:
 102:../../LUFA-111009/LUFA/Drivers/USB/Core/AVR8/EndpointStream_AVR8.c **** 			  return ErrorCode;
 337               		.loc 1 102 7 view .LVU83
 338 0074 8823      		tst r24
 339 0076 01F0      		breq .L16
 102:../../LUFA-111009/LUFA/Drivers/USB/Core/AVR8/EndpointStream_AVR8.c **** 			  return ErrorCode;
 340               		.loc 1 102 21 view .LVU84
 341 0078 F82E      		mov r15,r24
 342 007a 00C0      		rjmp .L13
 343               	.LVL25:
 344               	.L17:
 107:../../LUFA-111009/LUFA/Drivers/USB/Core/AVR8/EndpointStream_AVR8.c **** 
 345               		.loc 1 107 4 is_stmt 1 view .LVU85
 346               	.LBB266:
 347               	.LBI266:
 622:../../LUFA-111009/LUFA/Drivers/USB/Core/AVR8/../AVR8/../AVR8/Endpoint_AVR8.h **** 			{
 348               		.loc 2 622 23 view .LVU86
 349               	.LBB267:
 624:../../LUFA-111009/LUFA/Drivers/USB/Core/AVR8/../AVR8/../AVR8/Endpoint_AVR8.h **** 			}
 350               		.loc 2 624 5 view .LVU87
 624:../../LUFA-111009/LUFA/Drivers/USB/Core/AVR8/../AVR8/../AVR8/Endpoint_AVR8.h **** 			}
 351               		.loc 2 624 12 is_stmt 0 view .LVU88
 352 007c 1092 F100 		sts 241,__zero_reg__
 353               	.LVL26:
 624:../../LUFA-111009/LUFA/Drivers/USB/Core/AVR8/../AVR8/../AVR8/Endpoint_AVR8.h **** 			}
 354               		.loc 2 624 12 view .LVU89
 355               	.LBE267:
 356               	.LBE266:
 109:../../LUFA-111009/LUFA/Drivers/USB/Core/AVR8/EndpointStream_AVR8.c **** 			BytesInTransfer++;
 357               		.loc 1 109 4 is_stmt 1 view .LVU90
 109:../../LUFA-111009/LUFA/Drivers/USB/Core/AVR8/EndpointStream_AVR8.c **** 			BytesInTransfer++;
 358               		.loc 1 109 10 is_stmt 0 view .LVU91
 359 0080 2197      		sbiw r28,1
 360               	.LVL27:
 110:../../LUFA-111009/LUFA/Drivers/USB/Core/AVR8/EndpointStream_AVR8.c **** 		}
 361               		.loc 1 110 4 is_stmt 1 view .LVU92
 110:../../LUFA-111009/LUFA/Drivers/USB/Core/AVR8/EndpointStream_AVR8.c **** 		}
 362               		.loc 1 110 19 is_stmt 0 view .LVU93
 363 0082 FFEF      		ldi r31,-1
 364 0084 CF1A      		sub r12,r31
 365 0086 DF0A      		sbc r13,r31
 366               	.LVL28:
 110:../../LUFA-111009/LUFA/Drivers/USB/Core/AVR8/EndpointStream_AVR8.c **** 		}
 367               		.loc 1 110 19 view .LVU94
 368 0088 00C0      		rjmp .L16
 369               		.cfi_endproc
 370               	.LFE82:
 372               		.section	.text.Endpoint_Write_Stream_LE,"ax",@progbits
 373               	.global	Endpoint_Write_Stream_LE
 375               	Endpoint_Write_Stream_LE:
 376               	.LVL29:
 377               	.LFB83:
 378               		.file 3 "../../LUFA-111009/LUFA/Drivers/USB/Core/AVR8/Template/Template_Endpoint_RW.c"
   1:../../LUFA-111009/LUFA/Drivers/USB/Core/AVR8/Template/Template_Endpoint_RW.c **** /*
   2:../../LUFA-111009/LUFA/Drivers/USB/Core/AVR8/Template/Template_Endpoint_RW.c ****              LUFA Library
   3:../../LUFA-111009/LUFA/Drivers/USB/Core/AVR8/Template/Template_Endpoint_RW.c ****      Copyright (C) Dean Camera, 2011.
   4:../../LUFA-111009/LUFA/Drivers/USB/Core/AVR8/Template/Template_Endpoint_RW.c **** 
   5:../../LUFA-111009/LUFA/Drivers/USB/Core/AVR8/Template/Template_Endpoint_RW.c ****   dean [at] fourwalledcubicle [dot] com
   6:../../LUFA-111009/LUFA/Drivers/USB/Core/AVR8/Template/Template_Endpoint_RW.c ****            www.lufa-lib.org
   7:../../LUFA-111009/LUFA/Drivers/USB/Core/AVR8/Template/Template_Endpoint_RW.c **** */
   8:../../LUFA-111009/LUFA/Drivers/USB/Core/AVR8/Template/Template_Endpoint_RW.c **** 
   9:../../LUFA-111009/LUFA/Drivers/USB/Core/AVR8/Template/Template_Endpoint_RW.c **** /*
  10:../../LUFA-111009/LUFA/Drivers/USB/Core/AVR8/Template/Template_Endpoint_RW.c ****   Copyright 2011  Dean Camera (dean [at] fourwalledcubicle [dot] com)
  11:../../LUFA-111009/LUFA/Drivers/USB/Core/AVR8/Template/Template_Endpoint_RW.c **** 
  12:../../LUFA-111009/LUFA/Drivers/USB/Core/AVR8/Template/Template_Endpoint_RW.c ****   Permission to use, copy, modify, distribute, and sell this
  13:../../LUFA-111009/LUFA/Drivers/USB/Core/AVR8/Template/Template_Endpoint_RW.c ****   software and its documentation for any purpose is hereby granted
  14:../../LUFA-111009/LUFA/Drivers/USB/Core/AVR8/Template/Template_Endpoint_RW.c ****   without fee, provided that the above copyright notice appear in
  15:../../LUFA-111009/LUFA/Drivers/USB/Core/AVR8/Template/Template_Endpoint_RW.c ****   all copies and that both that the copyright notice and this
  16:../../LUFA-111009/LUFA/Drivers/USB/Core/AVR8/Template/Template_Endpoint_RW.c ****   permission notice and warranty disclaimer appear in supporting
  17:../../LUFA-111009/LUFA/Drivers/USB/Core/AVR8/Template/Template_Endpoint_RW.c ****   documentation, and that the name of the author not be used in
  18:../../LUFA-111009/LUFA/Drivers/USB/Core/AVR8/Template/Template_Endpoint_RW.c ****   advertising or publicity pertaining to distribution of the
  19:../../LUFA-111009/LUFA/Drivers/USB/Core/AVR8/Template/Template_Endpoint_RW.c ****   software without specific, written prior permission.
  20:../../LUFA-111009/LUFA/Drivers/USB/Core/AVR8/Template/Template_Endpoint_RW.c **** 
  21:../../LUFA-111009/LUFA/Drivers/USB/Core/AVR8/Template/Template_Endpoint_RW.c ****   The author disclaim all warranties with regard to this
  22:../../LUFA-111009/LUFA/Drivers/USB/Core/AVR8/Template/Template_Endpoint_RW.c ****   software, including all implied warranties of merchantability
  23:../../LUFA-111009/LUFA/Drivers/USB/Core/AVR8/Template/Template_Endpoint_RW.c ****   and fitness.  In no event shall the author be liable for any
  24:../../LUFA-111009/LUFA/Drivers/USB/Core/AVR8/Template/Template_Endpoint_RW.c ****   special, indirect or consequential damages or any damages
  25:../../LUFA-111009/LUFA/Drivers/USB/Core/AVR8/Template/Template_Endpoint_RW.c ****   whatsoever resulting from loss of use, data or profits, whether
  26:../../LUFA-111009/LUFA/Drivers/USB/Core/AVR8/Template/Template_Endpoint_RW.c ****   in an action of contract, negligence or other tortious action,
  27:../../LUFA-111009/LUFA/Drivers/USB/Core/AVR8/Template/Template_Endpoint_RW.c ****   arising out of or in connection with the use or performance of
  28:../../LUFA-111009/LUFA/Drivers/USB/Core/AVR8/Template/Template_Endpoint_RW.c ****   this software.
  29:../../LUFA-111009/LUFA/Drivers/USB/Core/AVR8/Template/Template_Endpoint_RW.c **** */
  30:../../LUFA-111009/LUFA/Drivers/USB/Core/AVR8/Template/Template_Endpoint_RW.c **** 
  31:../../LUFA-111009/LUFA/Drivers/USB/Core/AVR8/Template/Template_Endpoint_RW.c **** #if defined(TEMPLATE_FUNC_NAME)
  32:../../LUFA-111009/LUFA/Drivers/USB/Core/AVR8/Template/Template_Endpoint_RW.c **** 
  33:../../LUFA-111009/LUFA/Drivers/USB/Core/AVR8/Template/Template_Endpoint_RW.c **** uint8_t TEMPLATE_FUNC_NAME (TEMPLATE_BUFFER_TYPE const Buffer,
  34:../../LUFA-111009/LUFA/Drivers/USB/Core/AVR8/Template/Template_Endpoint_RW.c ****                             uint16_t Length,
  35:../../LUFA-111009/LUFA/Drivers/USB/Core/AVR8/Template/Template_Endpoint_RW.c ****                             uint16_t* const BytesProcessed)
  36:../../LUFA-111009/LUFA/Drivers/USB/Core/AVR8/Template/Template_Endpoint_RW.c **** {
 379               		.loc 3 36 1 is_stmt 1 view -0
 380               		.cfi_startproc
 381               		.loc 3 36 1 is_stmt 0 view .LVU96
 382 0000 AF92      		push r10
 383               	.LCFI14:
 384               		.cfi_def_cfa_offset 3
 385               		.cfi_offset 10, -2
 386 0002 BF92      		push r11
 387               	.LCFI15:
 388               		.cfi_def_cfa_offset 4
 389               		.cfi_offset 11, -3
 390 0004 CF92      		push r12
 391               	.LCFI16:
 392               		.cfi_def_cfa_offset 5
 393               		.cfi_offset 12, -4
 394 0006 DF92      		push r13
 395               	.LCFI17:
 396               		.cfi_def_cfa_offset 6
 397               		.cfi_offset 13, -5
 398 0008 FF92      		push r15
 399               	.LCFI18:
 400               		.cfi_def_cfa_offset 7
 401               		.cfi_offset 15, -6
 402 000a 0F93      		push r16
 403               	.LCFI19:
 404               		.cfi_def_cfa_offset 8
 405               		.cfi_offset 16, -7
 406 000c 1F93      		push r17
 407               	.LCFI20:
 408               		.cfi_def_cfa_offset 9
 409               		.cfi_offset 17, -8
 410 000e CF93      		push r28
 411               	.LCFI21:
 412               		.cfi_def_cfa_offset 10
 413               		.cfi_offset 28, -9
 414 0010 DF93      		push r29
 415               	.LCFI22:
 416               		.cfi_def_cfa_offset 11
 417               		.cfi_offset 29, -10
 418               	/* prologue: function */
 419               	/* frame size = 0 */
 420               	/* stack size = 9 */
 421               	.L__stack_usage = 9
 422 0012 6C01      		movw r12,r24
 423 0014 EB01      		movw r28,r22
 424 0016 8A01      		movw r16,r20
  37:../../LUFA-111009/LUFA/Drivers/USB/Core/AVR8/Template/Template_Endpoint_RW.c **** 	uint8_t* DataStream      = ((uint8_t*)Buffer + TEMPLATE_BUFFER_OFFSET(Length));
 425               		.loc 3 37 2 is_stmt 1 view .LVU97
 426               	.LVL30:
  38:../../LUFA-111009/LUFA/Drivers/USB/Core/AVR8/Template/Template_Endpoint_RW.c **** 	uint16_t BytesInTransfer = 0;
 427               		.loc 3 38 2 view .LVU98
  39:../../LUFA-111009/LUFA/Drivers/USB/Core/AVR8/Template/Template_Endpoint_RW.c **** 	uint8_t  ErrorCode;
 428               		.loc 3 39 2 view .LVU99
  40:../../LUFA-111009/LUFA/Drivers/USB/Core/AVR8/Template/Template_Endpoint_RW.c **** 
  41:../../LUFA-111009/LUFA/Drivers/USB/Core/AVR8/Template/Template_Endpoint_RW.c **** 	if ((ErrorCode = Endpoint_WaitUntilReady()))
 429               		.loc 3 41 2 view .LVU100
 430               		.loc 3 41 19 is_stmt 0 view .LVU101
 431 0018 0E94 0000 		call Endpoint_WaitUntilReady
 432               	.LVL31:
 433               		.loc 3 41 19 view .LVU102
 434 001c F82E      		mov r15,r24
 435               	.LVL32:
 436               		.loc 3 41 5 view .LVU103
 437 001e 8111      		cpse r24,__zero_reg__
 438 0020 00C0      		rjmp .L25
  42:../../LUFA-111009/LUFA/Drivers/USB/Core/AVR8/Template/Template_Endpoint_RW.c **** 	  return ErrorCode;
  43:../../LUFA-111009/LUFA/Drivers/USB/Core/AVR8/Template/Template_Endpoint_RW.c **** 
  44:../../LUFA-111009/LUFA/Drivers/USB/Core/AVR8/Template/Template_Endpoint_RW.c **** 	if (BytesProcessed != NULL)
 439               		.loc 3 44 2 is_stmt 1 view .LVU104
 440               		.loc 3 44 5 is_stmt 0 view .LVU105
 441 0022 0115      		cp r16,__zero_reg__
 442 0024 1105      		cpc r17,__zero_reg__
 443 0026 01F0      		breq .L27
  45:../../LUFA-111009/LUFA/Drivers/USB/Core/AVR8/Template/Template_Endpoint_RW.c **** 	{
  46:../../LUFA-111009/LUFA/Drivers/USB/Core/AVR8/Template/Template_Endpoint_RW.c **** 		Length -= *BytesProcessed;
 444               		.loc 3 46 3 is_stmt 1 view .LVU106
 445               		.loc 3 46 13 is_stmt 0 view .LVU107
 446 0028 F801      		movw r30,r16
 447 002a 8081      		ld r24,Z
 448 002c 9181      		ldd r25,Z+1
 449               		.loc 3 46 10 view .LVU108
 450 002e C81B      		sub r28,r24
 451 0030 D90B      		sbc r29,r25
 452               	.LVL33:
  47:../../LUFA-111009/LUFA/Drivers/USB/Core/AVR8/Template/Template_Endpoint_RW.c **** 		TEMPLATE_BUFFER_MOVE(DataStream, *BytesProcessed);
 453               		.loc 3 47 3 is_stmt 1 view .LVU109
 454 0032 C80E      		add r12,r24
 455 0034 D91E      		adc r13,r25
 456               	.LVL34:
 457               	.L27:
  36:../../LUFA-111009/LUFA/Drivers/USB/Core/AVR8/Template/Template_Endpoint_RW.c **** 	uint8_t* DataStream      = ((uint8_t*)Buffer + TEMPLATE_BUFFER_OFFSET(Length));
 458               		.loc 3 36 1 is_stmt 0 view .LVU110
 459 0036 B12C      		mov r11,__zero_reg__
 460 0038 A12C      		mov r10,__zero_reg__
 461               	.LVL35:
 462               	.L28:
  48:../../LUFA-111009/LUFA/Drivers/USB/Core/AVR8/Template/Template_Endpoint_RW.c **** 	}
  49:../../LUFA-111009/LUFA/Drivers/USB/Core/AVR8/Template/Template_Endpoint_RW.c **** 
  50:../../LUFA-111009/LUFA/Drivers/USB/Core/AVR8/Template/Template_Endpoint_RW.c **** 	while (Length)
 463               		.loc 3 50 8 is_stmt 1 view .LVU111
 464 003a 2097      		sbiw r28,0
 465 003c 01F0      		breq .L25
  51:../../LUFA-111009/LUFA/Drivers/USB/Core/AVR8/Template/Template_Endpoint_RW.c **** 	{
  52:../../LUFA-111009/LUFA/Drivers/USB/Core/AVR8/Template/Template_Endpoint_RW.c **** 		if (!(Endpoint_IsReadWriteAllowed()))
 466               		.loc 3 52 3 view .LVU112
 467               	.LBB268:
 468               	.LBI268:
 418:../../LUFA-111009/LUFA/Drivers/USB/Core/AVR8/../AVR8/../AVR8/Endpoint_AVR8.h **** 			{
 469               		.loc 2 418 23 view .LVU113
 470               	.LBB269:
 420:../../LUFA-111009/LUFA/Drivers/USB/Core/AVR8/../AVR8/../AVR8/Endpoint_AVR8.h **** 			}
 471               		.loc 2 420 5 view .LVU114
 420:../../LUFA-111009/LUFA/Drivers/USB/Core/AVR8/../AVR8/../AVR8/Endpoint_AVR8.h **** 			}
 472               		.loc 2 420 14 is_stmt 0 view .LVU115
 473 003e 8091 E800 		lds r24,232
 474               	.LBE269:
 475               	.LBE268:
 476               		.loc 3 52 6 view .LVU116
 477 0042 85FD      		sbrc r24,5
 478 0044 00C0      		rjmp .L29
  53:../../LUFA-111009/LUFA/Drivers/USB/Core/AVR8/Template/Template_Endpoint_RW.c **** 		{
  54:../../LUFA-111009/LUFA/Drivers/USB/Core/AVR8/Template/Template_Endpoint_RW.c **** 			TEMPLATE_CLEAR_ENDPOINT();
 479               		.loc 3 54 4 is_stmt 1 view .LVU117
 480               	.LBB270:
 481               	.LBI270:
 513:../../LUFA-111009/LUFA/Drivers/USB/Core/AVR8/../AVR8/../AVR8/Endpoint_AVR8.h **** 			{
 482               		.loc 2 513 23 view .LVU118
 483               	.LBB271:
 516:../../LUFA-111009/LUFA/Drivers/USB/Core/AVR8/../AVR8/../AVR8/Endpoint_AVR8.h **** 				#else
 484               		.loc 2 516 6 view .LVU119
 516:../../LUFA-111009/LUFA/Drivers/USB/Core/AVR8/../AVR8/../AVR8/Endpoint_AVR8.h **** 				#else
 485               		.loc 2 516 13 is_stmt 0 view .LVU120
 486 0046 8091 E800 		lds r24,232
 487 004a 8E77      		andi r24,lo8(126)
 488 004c 8093 E800 		sts 232,r24
 489               	.LBE271:
 490               	.LBE270:
  55:../../LUFA-111009/LUFA/Drivers/USB/Core/AVR8/Template/Template_Endpoint_RW.c **** 
  56:../../LUFA-111009/LUFA/Drivers/USB/Core/AVR8/Template/Template_Endpoint_RW.c **** 			#if !defined(INTERRUPT_CONTROL_ENDPOINT)
  57:../../LUFA-111009/LUFA/Drivers/USB/Core/AVR8/Template/Template_Endpoint_RW.c **** 			USB_USBTask();
 491               		.loc 3 57 4 is_stmt 1 view .LVU121
 492 0050 0E94 0000 		call USB_USBTask
 493               	.LVL36:
  58:../../LUFA-111009/LUFA/Drivers/USB/Core/AVR8/Template/Template_Endpoint_RW.c **** 			#endif
  59:../../LUFA-111009/LUFA/Drivers/USB/Core/AVR8/Template/Template_Endpoint_RW.c **** 
  60:../../LUFA-111009/LUFA/Drivers/USB/Core/AVR8/Template/Template_Endpoint_RW.c **** 			if (BytesProcessed != NULL)
 494               		.loc 3 60 4 view .LVU122
 495               		.loc 3 60 7 is_stmt 0 view .LVU123
 496 0054 0115      		cp r16,__zero_reg__
 497 0056 1105      		cpc r17,__zero_reg__
 498 0058 01F0      		breq .L30
  61:../../LUFA-111009/LUFA/Drivers/USB/Core/AVR8/Template/Template_Endpoint_RW.c **** 			{
  62:../../LUFA-111009/LUFA/Drivers/USB/Core/AVR8/Template/Template_Endpoint_RW.c **** 				*BytesProcessed += BytesInTransfer;
 499               		.loc 3 62 5 is_stmt 1 view .LVU124
 500               		.loc 3 62 21 is_stmt 0 view .LVU125
 501 005a F801      		movw r30,r16
 502 005c 8081      		ld r24,Z
 503 005e 9181      		ldd r25,Z+1
 504 0060 A80E      		add r10,r24
 505 0062 B91E      		adc r11,r25
 506               	.LVL37:
 507               		.loc 3 62 21 view .LVU126
 508 0064 B182      		std Z+1,r11
 509 0066 A082      		st Z,r10
  63:../../LUFA-111009/LUFA/Drivers/USB/Core/AVR8/Template/Template_Endpoint_RW.c **** 				return ENDPOINT_RWSTREAM_IncompleteTransfer;
 510               		.loc 3 63 5 is_stmt 1 view .LVU127
 511               		.loc 3 63 12 is_stmt 0 view .LVU128
 512 0068 85E0      		ldi r24,lo8(5)
 513 006a F82E      		mov r15,r24
 514               	.L25:
  64:../../LUFA-111009/LUFA/Drivers/USB/Core/AVR8/Template/Template_Endpoint_RW.c **** 			}
  65:../../LUFA-111009/LUFA/Drivers/USB/Core/AVR8/Template/Template_Endpoint_RW.c **** 
  66:../../LUFA-111009/LUFA/Drivers/USB/Core/AVR8/Template/Template_Endpoint_RW.c **** 			if ((ErrorCode = Endpoint_WaitUntilReady()))
  67:../../LUFA-111009/LUFA/Drivers/USB/Core/AVR8/Template/Template_Endpoint_RW.c **** 			  return ErrorCode;
  68:../../LUFA-111009/LUFA/Drivers/USB/Core/AVR8/Template/Template_Endpoint_RW.c **** 		}
  69:../../LUFA-111009/LUFA/Drivers/USB/Core/AVR8/Template/Template_Endpoint_RW.c **** 		else
  70:../../LUFA-111009/LUFA/Drivers/USB/Core/AVR8/Template/Template_Endpoint_RW.c **** 		{
  71:../../LUFA-111009/LUFA/Drivers/USB/Core/AVR8/Template/Template_Endpoint_RW.c **** 			TEMPLATE_TRANSFER_BYTE(DataStream);
  72:../../LUFA-111009/LUFA/Drivers/USB/Core/AVR8/Template/Template_Endpoint_RW.c **** 			TEMPLATE_BUFFER_MOVE(DataStream, 1);
  73:../../LUFA-111009/LUFA/Drivers/USB/Core/AVR8/Template/Template_Endpoint_RW.c **** 			Length--;
  74:../../LUFA-111009/LUFA/Drivers/USB/Core/AVR8/Template/Template_Endpoint_RW.c **** 			BytesInTransfer++;
  75:../../LUFA-111009/LUFA/Drivers/USB/Core/AVR8/Template/Template_Endpoint_RW.c **** 		}
  76:../../LUFA-111009/LUFA/Drivers/USB/Core/AVR8/Template/Template_Endpoint_RW.c **** 	}
  77:../../LUFA-111009/LUFA/Drivers/USB/Core/AVR8/Template/Template_Endpoint_RW.c **** 
  78:../../LUFA-111009/LUFA/Drivers/USB/Core/AVR8/Template/Template_Endpoint_RW.c **** 	return ENDPOINT_RWSTREAM_NoError;
  79:../../LUFA-111009/LUFA/Drivers/USB/Core/AVR8/Template/Template_Endpoint_RW.c **** }
 515               		.loc 3 79 1 view .LVU129
 516 006c 8F2D      		mov r24,r15
 517               	/* epilogue start */
 518 006e DF91      		pop r29
 519 0070 CF91      		pop r28
 520               	.LVL38:
 521               		.loc 3 79 1 view .LVU130
 522 0072 1F91      		pop r17
 523 0074 0F91      		pop r16
 524               	.LVL39:
 525               		.loc 3 79 1 view .LVU131
 526 0076 FF90      		pop r15
 527 0078 DF90      		pop r13
 528 007a CF90      		pop r12
 529               	.LVL40:
 530               		.loc 3 79 1 view .LVU132
 531 007c BF90      		pop r11
 532 007e AF90      		pop r10
 533 0080 0895      		ret
 534               	.LVL41:
 535               	.L30:
  66:../../LUFA-111009/LUFA/Drivers/USB/Core/AVR8/Template/Template_Endpoint_RW.c **** 			  return ErrorCode;
 536               		.loc 3 66 4 is_stmt 1 view .LVU133
  66:../../LUFA-111009/LUFA/Drivers/USB/Core/AVR8/Template/Template_Endpoint_RW.c **** 			  return ErrorCode;
 537               		.loc 3 66 21 is_stmt 0 view .LVU134
 538 0082 0E94 0000 		call Endpoint_WaitUntilReady
 539               	.LVL42:
  66:../../LUFA-111009/LUFA/Drivers/USB/Core/AVR8/Template/Template_Endpoint_RW.c **** 			  return ErrorCode;
 540               		.loc 3 66 7 view .LVU135
 541 0086 8823      		tst r24
 542 0088 01F0      		breq .L28
  66:../../LUFA-111009/LUFA/Drivers/USB/Core/AVR8/Template/Template_Endpoint_RW.c **** 			  return ErrorCode;
 543               		.loc 3 66 21 view .LVU136
 544 008a F82E      		mov r15,r24
 545 008c 00C0      		rjmp .L25
 546               	.LVL43:
 547               	.L29:
  71:../../LUFA-111009/LUFA/Drivers/USB/Core/AVR8/Template/Template_Endpoint_RW.c **** 			TEMPLATE_BUFFER_MOVE(DataStream, 1);
 548               		.loc 3 71 4 is_stmt 1 view .LVU137
 549 008e F601      		movw r30,r12
 550 0090 8191      		ld r24,Z+
 551 0092 6F01      		movw r12,r30
 552               	.LVL44:
 553               	.LBB272:
 554               	.LBI272:
 622:../../LUFA-111009/LUFA/Drivers/USB/Core/AVR8/../AVR8/../AVR8/Endpoint_AVR8.h **** 			{
 555               		.loc 2 622 23 view .LVU138
 556               	.LBB273:
 624:../../LUFA-111009/LUFA/Drivers/USB/Core/AVR8/../AVR8/../AVR8/Endpoint_AVR8.h **** 			}
 557               		.loc 2 624 5 view .LVU139
 624:../../LUFA-111009/LUFA/Drivers/USB/Core/AVR8/../AVR8/../AVR8/Endpoint_AVR8.h **** 			}
 558               		.loc 2 624 12 is_stmt 0 view .LVU140
 559 0094 8093 F100 		sts 241,r24
 560               	.LVL45:
 624:../../LUFA-111009/LUFA/Drivers/USB/Core/AVR8/../AVR8/../AVR8/Endpoint_AVR8.h **** 			}
 561               		.loc 2 624 12 view .LVU141
 562               	.LBE273:
 563               	.LBE272:
  72:../../LUFA-111009/LUFA/Drivers/USB/Core/AVR8/Template/Template_Endpoint_RW.c **** 			Length--;
 564               		.loc 3 72 4 is_stmt 1 view .LVU142
  73:../../LUFA-111009/LUFA/Drivers/USB/Core/AVR8/Template/Template_Endpoint_RW.c **** 			BytesInTransfer++;
 565               		.loc 3 73 4 view .LVU143
  73:../../LUFA-111009/LUFA/Drivers/USB/Core/AVR8/Template/Template_Endpoint_RW.c **** 			BytesInTransfer++;
 566               		.loc 3 73 10 is_stmt 0 view .LVU144
 567 0098 2197      		sbiw r28,1
 568               	.LVL46:
  74:../../LUFA-111009/LUFA/Drivers/USB/Core/AVR8/Template/Template_Endpoint_RW.c **** 		}
 569               		.loc 3 74 4 is_stmt 1 view .LVU145
  74:../../LUFA-111009/LUFA/Drivers/USB/Core/AVR8/Template/Template_Endpoint_RW.c **** 		}
 570               		.loc 3 74 19 is_stmt 0 view .LVU146
 571 009a FFEF      		ldi r31,-1
 572 009c AF1A      		sub r10,r31
 573 009e BF0A      		sbc r11,r31
 574               	.LVL47:
  74:../../LUFA-111009/LUFA/Drivers/USB/Core/AVR8/Template/Template_Endpoint_RW.c **** 		}
 575               		.loc 3 74 19 view .LVU147
 576 00a0 00C0      		rjmp .L28
 577               		.cfi_endproc
 578               	.LFE83:
 580               		.section	.text.Endpoint_Write_Stream_BE,"ax",@progbits
 581               	.global	Endpoint_Write_Stream_BE
 583               	Endpoint_Write_Stream_BE:
 584               	.LVL48:
 585               	.LFB84:
  36:../../LUFA-111009/LUFA/Drivers/USB/Core/AVR8/Template/Template_Endpoint_RW.c **** 	uint8_t* DataStream      = ((uint8_t*)Buffer + TEMPLATE_BUFFER_OFFSET(Length));
 586               		.loc 3 36 1 is_stmt 1 view -0
 587               		.cfi_startproc
  36:../../LUFA-111009/LUFA/Drivers/USB/Core/AVR8/Template/Template_Endpoint_RW.c **** 	uint8_t* DataStream      = ((uint8_t*)Buffer + TEMPLATE_BUFFER_OFFSET(Length));
 588               		.loc 3 36 1 is_stmt 0 view .LVU149
 589 0000 AF92      		push r10
 590               	.LCFI23:
 591               		.cfi_def_cfa_offset 3
 592               		.cfi_offset 10, -2
 593 0002 BF92      		push r11
 594               	.LCFI24:
 595               		.cfi_def_cfa_offset 4
 596               		.cfi_offset 11, -3
 597 0004 DF92      		push r13
 598               	.LCFI25:
 599               		.cfi_def_cfa_offset 5
 600               		.cfi_offset 13, -4
 601 0006 EF92      		push r14
 602               	.LCFI26:
 603               		.cfi_def_cfa_offset 6
 604               		.cfi_offset 14, -5
 605 0008 FF92      		push r15
 606               	.LCFI27:
 607               		.cfi_def_cfa_offset 7
 608               		.cfi_offset 15, -6
 609 000a 0F93      		push r16
 610               	.LCFI28:
 611               		.cfi_def_cfa_offset 8
 612               		.cfi_offset 16, -7
 613 000c 1F93      		push r17
 614               	.LCFI29:
 615               		.cfi_def_cfa_offset 9
 616               		.cfi_offset 17, -8
 617 000e CF93      		push r28
 618               	.LCFI30:
 619               		.cfi_def_cfa_offset 10
 620               		.cfi_offset 28, -9
 621 0010 DF93      		push r29
 622               	.LCFI31:
 623               		.cfi_def_cfa_offset 11
 624               		.cfi_offset 29, -10
 625               	/* prologue: function */
 626               	/* frame size = 0 */
 627               	/* stack size = 9 */
 628               	.L__stack_usage = 9
 629 0012 EC01      		movw r28,r24
 630 0014 8B01      		movw r16,r22
 631 0016 7A01      		movw r14,r20
  37:../../LUFA-111009/LUFA/Drivers/USB/Core/AVR8/Template/Template_Endpoint_RW.c **** 	uint16_t BytesInTransfer = 0;
 632               		.loc 3 37 2 is_stmt 1 view .LVU150
 633               	.LVL49:
  38:../../LUFA-111009/LUFA/Drivers/USB/Core/AVR8/Template/Template_Endpoint_RW.c **** 	uint8_t  ErrorCode;
 634               		.loc 3 38 2 view .LVU151
  39:../../LUFA-111009/LUFA/Drivers/USB/Core/AVR8/Template/Template_Endpoint_RW.c **** 
 635               		.loc 3 39 2 view .LVU152
  41:../../LUFA-111009/LUFA/Drivers/USB/Core/AVR8/Template/Template_Endpoint_RW.c **** 	  return ErrorCode;
 636               		.loc 3 41 2 view .LVU153
  41:../../LUFA-111009/LUFA/Drivers/USB/Core/AVR8/Template/Template_Endpoint_RW.c **** 	  return ErrorCode;
 637               		.loc 3 41 19 is_stmt 0 view .LVU154
 638 0018 0E94 0000 		call Endpoint_WaitUntilReady
 639               	.LVL50:
  41:../../LUFA-111009/LUFA/Drivers/USB/Core/AVR8/Template/Template_Endpoint_RW.c **** 	  return ErrorCode;
 640               		.loc 3 41 19 view .LVU155
 641 001c D82E      		mov r13,r24
 642               	.LVL51:
  41:../../LUFA-111009/LUFA/Drivers/USB/Core/AVR8/Template/Template_Endpoint_RW.c **** 	  return ErrorCode;
 643               		.loc 3 41 5 view .LVU156
 644 001e 8111      		cpse r24,__zero_reg__
 645 0020 00C0      		rjmp .L37
  37:../../LUFA-111009/LUFA/Drivers/USB/Core/AVR8/Template/Template_Endpoint_RW.c **** 	uint16_t BytesInTransfer = 0;
 646               		.loc 3 37 47 view .LVU157
 647 0022 C801      		movw r24,r16
 648 0024 0197      		sbiw r24,1
 649               	.LVL52:
  37:../../LUFA-111009/LUFA/Drivers/USB/Core/AVR8/Template/Template_Endpoint_RW.c **** 	uint16_t BytesInTransfer = 0;
 650               		.loc 3 37 11 view .LVU158
 651 0026 C80F      		add r28,r24
 652 0028 D91F      		adc r29,r25
 653               	.LVL53:
  44:../../LUFA-111009/LUFA/Drivers/USB/Core/AVR8/Template/Template_Endpoint_RW.c **** 	{
 654               		.loc 3 44 2 is_stmt 1 view .LVU159
  44:../../LUFA-111009/LUFA/Drivers/USB/Core/AVR8/Template/Template_Endpoint_RW.c **** 	{
 655               		.loc 3 44 5 is_stmt 0 view .LVU160
 656 002a E114      		cp r14,__zero_reg__
 657 002c F104      		cpc r15,__zero_reg__
 658 002e 01F0      		breq .L39
  46:../../LUFA-111009/LUFA/Drivers/USB/Core/AVR8/Template/Template_Endpoint_RW.c **** 		TEMPLATE_BUFFER_MOVE(DataStream, *BytesProcessed);
 659               		.loc 3 46 3 is_stmt 1 view .LVU161
  46:../../LUFA-111009/LUFA/Drivers/USB/Core/AVR8/Template/Template_Endpoint_RW.c **** 		TEMPLATE_BUFFER_MOVE(DataStream, *BytesProcessed);
 660               		.loc 3 46 13 is_stmt 0 view .LVU162
 661 0030 F701      		movw r30,r14
 662 0032 8081      		ld r24,Z
 663 0034 9181      		ldd r25,Z+1
 664               	.LVL54:
  46:../../LUFA-111009/LUFA/Drivers/USB/Core/AVR8/Template/Template_Endpoint_RW.c **** 		TEMPLATE_BUFFER_MOVE(DataStream, *BytesProcessed);
 665               		.loc 3 46 10 view .LVU163
 666 0036 081B      		sub r16,r24
 667 0038 190B      		sbc r17,r25
 668               	.LVL55:
  47:../../LUFA-111009/LUFA/Drivers/USB/Core/AVR8/Template/Template_Endpoint_RW.c **** 	}
 669               		.loc 3 47 3 is_stmt 1 view .LVU164
 670 003a C81B      		sub r28,r24
 671 003c D90B      		sbc r29,r25
 672               	.LVL56:
 673               	.L39:
  36:../../LUFA-111009/LUFA/Drivers/USB/Core/AVR8/Template/Template_Endpoint_RW.c **** 	uint8_t* DataStream      = ((uint8_t*)Buffer + TEMPLATE_BUFFER_OFFSET(Length));
 674               		.loc 3 36 1 is_stmt 0 view .LVU165
 675 003e B12C      		mov r11,__zero_reg__
 676 0040 A12C      		mov r10,__zero_reg__
 677               	.LVL57:
 678               	.L40:
  50:../../LUFA-111009/LUFA/Drivers/USB/Core/AVR8/Template/Template_Endpoint_RW.c **** 	{
 679               		.loc 3 50 8 is_stmt 1 view .LVU166
 680 0042 0115      		cp r16,__zero_reg__
 681 0044 1105      		cpc r17,__zero_reg__
 682 0046 01F0      		breq .L37
  52:../../LUFA-111009/LUFA/Drivers/USB/Core/AVR8/Template/Template_Endpoint_RW.c **** 		{
 683               		.loc 3 52 3 view .LVU167
 684               	.LBB274:
 685               	.LBI274:
 418:../../LUFA-111009/LUFA/Drivers/USB/Core/AVR8/../AVR8/../AVR8/Endpoint_AVR8.h **** 			{
 686               		.loc 2 418 23 view .LVU168
 687               	.LBB275:
 420:../../LUFA-111009/LUFA/Drivers/USB/Core/AVR8/../AVR8/../AVR8/Endpoint_AVR8.h **** 			}
 688               		.loc 2 420 5 view .LVU169
 420:../../LUFA-111009/LUFA/Drivers/USB/Core/AVR8/../AVR8/../AVR8/Endpoint_AVR8.h **** 			}
 689               		.loc 2 420 14 is_stmt 0 view .LVU170
 690 0048 8091 E800 		lds r24,232
 691               	.LBE275:
 692               	.LBE274:
  52:../../LUFA-111009/LUFA/Drivers/USB/Core/AVR8/Template/Template_Endpoint_RW.c **** 		{
 693               		.loc 3 52 6 view .LVU171
 694 004c 85FD      		sbrc r24,5
 695 004e 00C0      		rjmp .L41
  54:../../LUFA-111009/LUFA/Drivers/USB/Core/AVR8/Template/Template_Endpoint_RW.c **** 
 696               		.loc 3 54 4 is_stmt 1 view .LVU172
 697               	.LBB276:
 698               	.LBI276:
 513:../../LUFA-111009/LUFA/Drivers/USB/Core/AVR8/../AVR8/../AVR8/Endpoint_AVR8.h **** 			{
 699               		.loc 2 513 23 view .LVU173
 700               	.LBB277:
 516:../../LUFA-111009/LUFA/Drivers/USB/Core/AVR8/../AVR8/../AVR8/Endpoint_AVR8.h **** 				#else
 701               		.loc 2 516 6 view .LVU174
 516:../../LUFA-111009/LUFA/Drivers/USB/Core/AVR8/../AVR8/../AVR8/Endpoint_AVR8.h **** 				#else
 702               		.loc 2 516 13 is_stmt 0 view .LVU175
 703 0050 8091 E800 		lds r24,232
 704 0054 8E77      		andi r24,lo8(126)
 705 0056 8093 E800 		sts 232,r24
 706               	.LBE277:
 707               	.LBE276:
  57:../../LUFA-111009/LUFA/Drivers/USB/Core/AVR8/Template/Template_Endpoint_RW.c **** 			#endif
 708               		.loc 3 57 4 is_stmt 1 view .LVU176
 709 005a 0E94 0000 		call USB_USBTask
 710               	.LVL58:
  60:../../LUFA-111009/LUFA/Drivers/USB/Core/AVR8/Template/Template_Endpoint_RW.c **** 			{
 711               		.loc 3 60 4 view .LVU177
  60:../../LUFA-111009/LUFA/Drivers/USB/Core/AVR8/Template/Template_Endpoint_RW.c **** 			{
 712               		.loc 3 60 7 is_stmt 0 view .LVU178
 713 005e E114      		cp r14,__zero_reg__
 714 0060 F104      		cpc r15,__zero_reg__
 715 0062 01F0      		breq .L42
  62:../../LUFA-111009/LUFA/Drivers/USB/Core/AVR8/Template/Template_Endpoint_RW.c **** 				return ENDPOINT_RWSTREAM_IncompleteTransfer;
 716               		.loc 3 62 5 is_stmt 1 view .LVU179
  62:../../LUFA-111009/LUFA/Drivers/USB/Core/AVR8/Template/Template_Endpoint_RW.c **** 				return ENDPOINT_RWSTREAM_IncompleteTransfer;
 717               		.loc 3 62 21 is_stmt 0 view .LVU180
 718 0064 F701      		movw r30,r14
 719 0066 8081      		ld r24,Z
 720 0068 9181      		ldd r25,Z+1
 721 006a A80E      		add r10,r24
 722 006c B91E      		adc r11,r25
 723               	.LVL59:
  62:../../LUFA-111009/LUFA/Drivers/USB/Core/AVR8/Template/Template_Endpoint_RW.c **** 				return ENDPOINT_RWSTREAM_IncompleteTransfer;
 724               		.loc 3 62 21 view .LVU181
 725 006e B182      		std Z+1,r11
 726 0070 A082      		st Z,r10
  63:../../LUFA-111009/LUFA/Drivers/USB/Core/AVR8/Template/Template_Endpoint_RW.c **** 			}
 727               		.loc 3 63 5 is_stmt 1 view .LVU182
  63:../../LUFA-111009/LUFA/Drivers/USB/Core/AVR8/Template/Template_Endpoint_RW.c **** 			}
 728               		.loc 3 63 12 is_stmt 0 view .LVU183
 729 0072 85E0      		ldi r24,lo8(5)
 730 0074 D82E      		mov r13,r24
 731               	.LVL60:
 732               	.L37:
 733               		.loc 3 79 1 view .LVU184
 734 0076 8D2D      		mov r24,r13
 735               	/* epilogue start */
 736 0078 DF91      		pop r29
 737 007a CF91      		pop r28
 738 007c 1F91      		pop r17
 739 007e 0F91      		pop r16
 740               	.LVL61:
 741               		.loc 3 79 1 view .LVU185
 742 0080 FF90      		pop r15
 743 0082 EF90      		pop r14
 744               	.LVL62:
 745               		.loc 3 79 1 view .LVU186
 746 0084 DF90      		pop r13
 747 0086 BF90      		pop r11
 748 0088 AF90      		pop r10
 749 008a 0895      		ret
 750               	.LVL63:
 751               	.L42:
  66:../../LUFA-111009/LUFA/Drivers/USB/Core/AVR8/Template/Template_Endpoint_RW.c **** 			  return ErrorCode;
 752               		.loc 3 66 4 is_stmt 1 view .LVU187
  66:../../LUFA-111009/LUFA/Drivers/USB/Core/AVR8/Template/Template_Endpoint_RW.c **** 			  return ErrorCode;
 753               		.loc 3 66 21 is_stmt 0 view .LVU188
 754 008c 0E94 0000 		call Endpoint_WaitUntilReady
 755               	.LVL64:
  66:../../LUFA-111009/LUFA/Drivers/USB/Core/AVR8/Template/Template_Endpoint_RW.c **** 			  return ErrorCode;
 756               		.loc 3 66 7 view .LVU189
 757 0090 8823      		tst r24
 758 0092 01F0      		breq .L40
  66:../../LUFA-111009/LUFA/Drivers/USB/Core/AVR8/Template/Template_Endpoint_RW.c **** 			  return ErrorCode;
 759               		.loc 3 66 21 view .LVU190
 760 0094 D82E      		mov r13,r24
 761 0096 00C0      		rjmp .L37
 762               	.LVL65:
 763               	.L41:
  71:../../LUFA-111009/LUFA/Drivers/USB/Core/AVR8/Template/Template_Endpoint_RW.c **** 			TEMPLATE_BUFFER_MOVE(DataStream, 1);
 764               		.loc 3 71 4 is_stmt 1 view .LVU191
 765 0098 8881      		ld r24,Y
 766               	.LVL66:
 767               	.LBB278:
 768               	.LBI278:
 622:../../LUFA-111009/LUFA/Drivers/USB/Core/AVR8/../AVR8/../AVR8/Endpoint_AVR8.h **** 			{
 769               		.loc 2 622 23 view .LVU192
 770               	.LBB279:
 624:../../LUFA-111009/LUFA/Drivers/USB/Core/AVR8/../AVR8/../AVR8/Endpoint_AVR8.h **** 			}
 771               		.loc 2 624 5 view .LVU193
 624:../../LUFA-111009/LUFA/Drivers/USB/Core/AVR8/../AVR8/../AVR8/Endpoint_AVR8.h **** 			}
 772               		.loc 2 624 12 is_stmt 0 view .LVU194
 773 009a 8093 F100 		sts 241,r24
 774               	.LVL67:
 624:../../LUFA-111009/LUFA/Drivers/USB/Core/AVR8/../AVR8/../AVR8/Endpoint_AVR8.h **** 			}
 775               		.loc 2 624 12 view .LVU195
 776               	.LBE279:
 777               	.LBE278:
  72:../../LUFA-111009/LUFA/Drivers/USB/Core/AVR8/Template/Template_Endpoint_RW.c **** 			Length--;
 778               		.loc 3 72 4 is_stmt 1 view .LVU196
 779 009e 2197      		sbiw r28,1
 780               	.LVL68:
  73:../../LUFA-111009/LUFA/Drivers/USB/Core/AVR8/Template/Template_Endpoint_RW.c **** 			BytesInTransfer++;
 781               		.loc 3 73 4 view .LVU197
  73:../../LUFA-111009/LUFA/Drivers/USB/Core/AVR8/Template/Template_Endpoint_RW.c **** 			BytesInTransfer++;
 782               		.loc 3 73 10 is_stmt 0 view .LVU198
 783 00a0 0150      		subi r16,1
 784 00a2 1109      		sbc r17,__zero_reg__
 785               	.LVL69:
  74:../../LUFA-111009/LUFA/Drivers/USB/Core/AVR8/Template/Template_Endpoint_RW.c **** 		}
 786               		.loc 3 74 4 is_stmt 1 view .LVU199
  74:../../LUFA-111009/LUFA/Drivers/USB/Core/AVR8/Template/Template_Endpoint_RW.c **** 		}
 787               		.loc 3 74 19 is_stmt 0 view .LVU200
 788 00a4 FFEF      		ldi r31,-1
 789 00a6 AF1A      		sub r10,r31
 790 00a8 BF0A      		sbc r11,r31
 791               	.LVL70:
  74:../../LUFA-111009/LUFA/Drivers/USB/Core/AVR8/Template/Template_Endpoint_RW.c **** 		}
 792               		.loc 3 74 19 view .LVU201
 793 00aa 00C0      		rjmp .L40
 794               		.cfi_endproc
 795               	.LFE84:
 797               		.section	.text.Endpoint_Read_Stream_LE,"ax",@progbits
 798               	.global	Endpoint_Read_Stream_LE
 800               	Endpoint_Read_Stream_LE:
 801               	.LVL71:
 802               	.LFB85:
  36:../../LUFA-111009/LUFA/Drivers/USB/Core/AVR8/Template/Template_Endpoint_RW.c **** 	uint8_t* DataStream      = ((uint8_t*)Buffer + TEMPLATE_BUFFER_OFFSET(Length));
 803               		.loc 3 36 1 is_stmt 1 view -0
 804               		.cfi_startproc
  36:../../LUFA-111009/LUFA/Drivers/USB/Core/AVR8/Template/Template_Endpoint_RW.c **** 	uint8_t* DataStream      = ((uint8_t*)Buffer + TEMPLATE_BUFFER_OFFSET(Length));
 805               		.loc 3 36 1 is_stmt 0 view .LVU203
 806 0000 AF92      		push r10
 807               	.LCFI32:
 808               		.cfi_def_cfa_offset 3
 809               		.cfi_offset 10, -2
 810 0002 BF92      		push r11
 811               	.LCFI33:
 812               		.cfi_def_cfa_offset 4
 813               		.cfi_offset 11, -3
 814 0004 CF92      		push r12
 815               	.LCFI34:
 816               		.cfi_def_cfa_offset 5
 817               		.cfi_offset 12, -4
 818 0006 DF92      		push r13
 819               	.LCFI35:
 820               		.cfi_def_cfa_offset 6
 821               		.cfi_offset 13, -5
 822 0008 FF92      		push r15
 823               	.LCFI36:
 824               		.cfi_def_cfa_offset 7
 825               		.cfi_offset 15, -6
 826 000a 0F93      		push r16
 827               	.LCFI37:
 828               		.cfi_def_cfa_offset 8
 829               		.cfi_offset 16, -7
 830 000c 1F93      		push r17
 831               	.LCFI38:
 832               		.cfi_def_cfa_offset 9
 833               		.cfi_offset 17, -8
 834 000e CF93      		push r28
 835               	.LCFI39:
 836               		.cfi_def_cfa_offset 10
 837               		.cfi_offset 28, -9
 838 0010 DF93      		push r29
 839               	.LCFI40:
 840               		.cfi_def_cfa_offset 11
 841               		.cfi_offset 29, -10
 842               	/* prologue: function */
 843               	/* frame size = 0 */
 844               	/* stack size = 9 */
 845               	.L__stack_usage = 9
 846 0012 6C01      		movw r12,r24
 847 0014 EB01      		movw r28,r22
 848 0016 8A01      		movw r16,r20
  37:../../LUFA-111009/LUFA/Drivers/USB/Core/AVR8/Template/Template_Endpoint_RW.c **** 	uint16_t BytesInTransfer = 0;
 849               		.loc 3 37 2 is_stmt 1 view .LVU204
 850               	.LVL72:
  38:../../LUFA-111009/LUFA/Drivers/USB/Core/AVR8/Template/Template_Endpoint_RW.c **** 	uint8_t  ErrorCode;
 851               		.loc 3 38 2 view .LVU205
  39:../../LUFA-111009/LUFA/Drivers/USB/Core/AVR8/Template/Template_Endpoint_RW.c **** 
 852               		.loc 3 39 2 view .LVU206
  41:../../LUFA-111009/LUFA/Drivers/USB/Core/AVR8/Template/Template_Endpoint_RW.c **** 	  return ErrorCode;
 853               		.loc 3 41 2 view .LVU207
  41:../../LUFA-111009/LUFA/Drivers/USB/Core/AVR8/Template/Template_Endpoint_RW.c **** 	  return ErrorCode;
 854               		.loc 3 41 19 is_stmt 0 view .LVU208
 855 0018 0E94 0000 		call Endpoint_WaitUntilReady
 856               	.LVL73:
  41:../../LUFA-111009/LUFA/Drivers/USB/Core/AVR8/Template/Template_Endpoint_RW.c **** 	  return ErrorCode;
 857               		.loc 3 41 19 view .LVU209
 858 001c F82E      		mov r15,r24
 859               	.LVL74:
  41:../../LUFA-111009/LUFA/Drivers/USB/Core/AVR8/Template/Template_Endpoint_RW.c **** 	  return ErrorCode;
 860               		.loc 3 41 5 view .LVU210
 861 001e 8111      		cpse r24,__zero_reg__
 862 0020 00C0      		rjmp .L49
  44:../../LUFA-111009/LUFA/Drivers/USB/Core/AVR8/Template/Template_Endpoint_RW.c **** 	{
 863               		.loc 3 44 2 is_stmt 1 view .LVU211
  44:../../LUFA-111009/LUFA/Drivers/USB/Core/AVR8/Template/Template_Endpoint_RW.c **** 	{
 864               		.loc 3 44 5 is_stmt 0 view .LVU212
 865 0022 0115      		cp r16,__zero_reg__
 866 0024 1105      		cpc r17,__zero_reg__
 867 0026 01F0      		breq .L51
  46:../../LUFA-111009/LUFA/Drivers/USB/Core/AVR8/Template/Template_Endpoint_RW.c **** 		TEMPLATE_BUFFER_MOVE(DataStream, *BytesProcessed);
 868               		.loc 3 46 3 is_stmt 1 view .LVU213
  46:../../LUFA-111009/LUFA/Drivers/USB/Core/AVR8/Template/Template_Endpoint_RW.c **** 		TEMPLATE_BUFFER_MOVE(DataStream, *BytesProcessed);
 869               		.loc 3 46 13 is_stmt 0 view .LVU214
 870 0028 F801      		movw r30,r16
 871 002a 8081      		ld r24,Z
 872 002c 9181      		ldd r25,Z+1
  46:../../LUFA-111009/LUFA/Drivers/USB/Core/AVR8/Template/Template_Endpoint_RW.c **** 		TEMPLATE_BUFFER_MOVE(DataStream, *BytesProcessed);
 873               		.loc 3 46 10 view .LVU215
 874 002e C81B      		sub r28,r24
 875 0030 D90B      		sbc r29,r25
 876               	.LVL75:
  47:../../LUFA-111009/LUFA/Drivers/USB/Core/AVR8/Template/Template_Endpoint_RW.c **** 	}
 877               		.loc 3 47 3 is_stmt 1 view .LVU216
 878 0032 C80E      		add r12,r24
 879 0034 D91E      		adc r13,r25
 880               	.LVL76:
 881               	.L51:
  36:../../LUFA-111009/LUFA/Drivers/USB/Core/AVR8/Template/Template_Endpoint_RW.c **** 	uint8_t* DataStream      = ((uint8_t*)Buffer + TEMPLATE_BUFFER_OFFSET(Length));
 882               		.loc 3 36 1 is_stmt 0 view .LVU217
 883 0036 B12C      		mov r11,__zero_reg__
 884 0038 A12C      		mov r10,__zero_reg__
 885               	.LVL77:
 886               	.L52:
  50:../../LUFA-111009/LUFA/Drivers/USB/Core/AVR8/Template/Template_Endpoint_RW.c **** 	{
 887               		.loc 3 50 8 is_stmt 1 view .LVU218
 888 003a 2097      		sbiw r28,0
 889 003c 01F0      		breq .L49
  52:../../LUFA-111009/LUFA/Drivers/USB/Core/AVR8/Template/Template_Endpoint_RW.c **** 		{
 890               		.loc 3 52 3 view .LVU219
 891               	.LBB280:
 892               	.LBI280:
 418:../../LUFA-111009/LUFA/Drivers/USB/Core/AVR8/../AVR8/../AVR8/Endpoint_AVR8.h **** 			{
 893               		.loc 2 418 23 view .LVU220
 894               	.LBB281:
 420:../../LUFA-111009/LUFA/Drivers/USB/Core/AVR8/../AVR8/../AVR8/Endpoint_AVR8.h **** 			}
 895               		.loc 2 420 5 view .LVU221
 420:../../LUFA-111009/LUFA/Drivers/USB/Core/AVR8/../AVR8/../AVR8/Endpoint_AVR8.h **** 			}
 896               		.loc 2 420 14 is_stmt 0 view .LVU222
 897 003e 8091 E800 		lds r24,232
 898               	.LBE281:
 899               	.LBE280:
  52:../../LUFA-111009/LUFA/Drivers/USB/Core/AVR8/Template/Template_Endpoint_RW.c **** 		{
 900               		.loc 3 52 6 view .LVU223
 901 0042 85FD      		sbrc r24,5
 902 0044 00C0      		rjmp .L53
  54:../../LUFA-111009/LUFA/Drivers/USB/Core/AVR8/Template/Template_Endpoint_RW.c **** 
 903               		.loc 3 54 4 is_stmt 1 view .LVU224
 904               	.LBB282:
 905               	.LBI282:
 528:../../LUFA-111009/LUFA/Drivers/USB/Core/AVR8/../AVR8/../AVR8/Endpoint_AVR8.h **** 			{
 906               		.loc 2 528 23 view .LVU225
 907               	.LBB283:
 531:../../LUFA-111009/LUFA/Drivers/USB/Core/AVR8/../AVR8/../AVR8/Endpoint_AVR8.h **** 				#else
 908               		.loc 2 531 6 view .LVU226
 531:../../LUFA-111009/LUFA/Drivers/USB/Core/AVR8/../AVR8/../AVR8/Endpoint_AVR8.h **** 				#else
 909               		.loc 2 531 13 is_stmt 0 view .LVU227
 910 0046 8091 E800 		lds r24,232
 911 004a 8B77      		andi r24,lo8(123)
 912 004c 8093 E800 		sts 232,r24
 913               	.LBE283:
 914               	.LBE282:
  57:../../LUFA-111009/LUFA/Drivers/USB/Core/AVR8/Template/Template_Endpoint_RW.c **** 			#endif
 915               		.loc 3 57 4 is_stmt 1 view .LVU228
 916 0050 0E94 0000 		call USB_USBTask
 917               	.LVL78:
  60:../../LUFA-111009/LUFA/Drivers/USB/Core/AVR8/Template/Template_Endpoint_RW.c **** 			{
 918               		.loc 3 60 4 view .LVU229
  60:../../LUFA-111009/LUFA/Drivers/USB/Core/AVR8/Template/Template_Endpoint_RW.c **** 			{
 919               		.loc 3 60 7 is_stmt 0 view .LVU230
 920 0054 0115      		cp r16,__zero_reg__
 921 0056 1105      		cpc r17,__zero_reg__
 922 0058 01F0      		breq .L54
  62:../../LUFA-111009/LUFA/Drivers/USB/Core/AVR8/Template/Template_Endpoint_RW.c **** 				return ENDPOINT_RWSTREAM_IncompleteTransfer;
 923               		.loc 3 62 5 is_stmt 1 view .LVU231
  62:../../LUFA-111009/LUFA/Drivers/USB/Core/AVR8/Template/Template_Endpoint_RW.c **** 				return ENDPOINT_RWSTREAM_IncompleteTransfer;
 924               		.loc 3 62 21 is_stmt 0 view .LVU232
 925 005a F801      		movw r30,r16
 926 005c 8081      		ld r24,Z
 927 005e 9181      		ldd r25,Z+1
 928 0060 A80E      		add r10,r24
 929 0062 B91E      		adc r11,r25
 930               	.LVL79:
  62:../../LUFA-111009/LUFA/Drivers/USB/Core/AVR8/Template/Template_Endpoint_RW.c **** 				return ENDPOINT_RWSTREAM_IncompleteTransfer;
 931               		.loc 3 62 21 view .LVU233
 932 0064 B182      		std Z+1,r11
 933 0066 A082      		st Z,r10
  63:../../LUFA-111009/LUFA/Drivers/USB/Core/AVR8/Template/Template_Endpoint_RW.c **** 			}
 934               		.loc 3 63 5 is_stmt 1 view .LVU234
  63:../../LUFA-111009/LUFA/Drivers/USB/Core/AVR8/Template/Template_Endpoint_RW.c **** 			}
 935               		.loc 3 63 12 is_stmt 0 view .LVU235
 936 0068 85E0      		ldi r24,lo8(5)
 937 006a F82E      		mov r15,r24
 938               	.L49:
 939               		.loc 3 79 1 view .LVU236
 940 006c 8F2D      		mov r24,r15
 941               	/* epilogue start */
 942 006e DF91      		pop r29
 943 0070 CF91      		pop r28
 944               	.LVL80:
 945               		.loc 3 79 1 view .LVU237
 946 0072 1F91      		pop r17
 947 0074 0F91      		pop r16
 948               	.LVL81:
 949               		.loc 3 79 1 view .LVU238
 950 0076 FF90      		pop r15
 951 0078 DF90      		pop r13
 952 007a CF90      		pop r12
 953               	.LVL82:
 954               		.loc 3 79 1 view .LVU239
 955 007c BF90      		pop r11
 956 007e AF90      		pop r10
 957 0080 0895      		ret
 958               	.LVL83:
 959               	.L54:
  66:../../LUFA-111009/LUFA/Drivers/USB/Core/AVR8/Template/Template_Endpoint_RW.c **** 			  return ErrorCode;
 960               		.loc 3 66 4 is_stmt 1 view .LVU240
  66:../../LUFA-111009/LUFA/Drivers/USB/Core/AVR8/Template/Template_Endpoint_RW.c **** 			  return ErrorCode;
 961               		.loc 3 66 21 is_stmt 0 view .LVU241
 962 0082 0E94 0000 		call Endpoint_WaitUntilReady
 963               	.LVL84:
  66:../../LUFA-111009/LUFA/Drivers/USB/Core/AVR8/Template/Template_Endpoint_RW.c **** 			  return ErrorCode;
 964               		.loc 3 66 7 view .LVU242
 965 0086 8823      		tst r24
 966 0088 01F0      		breq .L52
  66:../../LUFA-111009/LUFA/Drivers/USB/Core/AVR8/Template/Template_Endpoint_RW.c **** 			  return ErrorCode;
 967               		.loc 3 66 21 view .LVU243
 968 008a F82E      		mov r15,r24
 969 008c 00C0      		rjmp .L49
 970               	.LVL85:
 971               	.L53:
  71:../../LUFA-111009/LUFA/Drivers/USB/Core/AVR8/Template/Template_Endpoint_RW.c **** 			TEMPLATE_BUFFER_MOVE(DataStream, 1);
 972               		.loc 3 71 4 is_stmt 1 view .LVU244
 973               	.LBB284:
 974               	.LBI284:
 610:../../LUFA-111009/LUFA/Drivers/USB/Core/AVR8/../AVR8/../AVR8/Endpoint_AVR8.h **** 			{
 975               		.loc 2 610 26 view .LVU245
 976               	.LBB285:
 612:../../LUFA-111009/LUFA/Drivers/USB/Core/AVR8/../AVR8/../AVR8/Endpoint_AVR8.h **** 			}
 977               		.loc 2 612 5 view .LVU246
 612:../../LUFA-111009/LUFA/Drivers/USB/Core/AVR8/../AVR8/../AVR8/Endpoint_AVR8.h **** 			}
 978               		.loc 2 612 12 is_stmt 0 view .LVU247
 979 008e 8091 F100 		lds r24,241
 980               	.LBE285:
 981               	.LBE284:
  71:../../LUFA-111009/LUFA/Drivers/USB/Core/AVR8/Template/Template_Endpoint_RW.c **** 			TEMPLATE_BUFFER_MOVE(DataStream, 1);
 982               		.loc 3 71 4 view .LVU248
 983 0092 F601      		movw r30,r12
 984 0094 8193      		st Z+,r24
 985 0096 6F01      		movw r12,r30
 986               	.LVL86:
  72:../../LUFA-111009/LUFA/Drivers/USB/Core/AVR8/Template/Template_Endpoint_RW.c **** 			Length--;
 987               		.loc 3 72 4 is_stmt 1 view .LVU249
  73:../../LUFA-111009/LUFA/Drivers/USB/Core/AVR8/Template/Template_Endpoint_RW.c **** 			BytesInTransfer++;
 988               		.loc 3 73 4 view .LVU250
  73:../../LUFA-111009/LUFA/Drivers/USB/Core/AVR8/Template/Template_Endpoint_RW.c **** 			BytesInTransfer++;
 989               		.loc 3 73 10 is_stmt 0 view .LVU251
 990 0098 2197      		sbiw r28,1
 991               	.LVL87:
  74:../../LUFA-111009/LUFA/Drivers/USB/Core/AVR8/Template/Template_Endpoint_RW.c **** 		}
 992               		.loc 3 74 4 is_stmt 1 view .LVU252
  74:../../LUFA-111009/LUFA/Drivers/USB/Core/AVR8/Template/Template_Endpoint_RW.c **** 		}
 993               		.loc 3 74 19 is_stmt 0 view .LVU253
 994 009a FFEF      		ldi r31,-1
 995 009c AF1A      		sub r10,r31
 996 009e BF0A      		sbc r11,r31
 997               	.LVL88:
  74:../../LUFA-111009/LUFA/Drivers/USB/Core/AVR8/Template/Template_Endpoint_RW.c **** 		}
 998               		.loc 3 74 19 view .LVU254
 999 00a0 00C0      		rjmp .L52
 1000               		.cfi_endproc
 1001               	.LFE85:
 1003               		.section	.text.Endpoint_Read_Stream_BE,"ax",@progbits
 1004               	.global	Endpoint_Read_Stream_BE
 1006               	Endpoint_Read_Stream_BE:
 1007               	.LVL89:
 1008               	.LFB86:
  36:../../LUFA-111009/LUFA/Drivers/USB/Core/AVR8/Template/Template_Endpoint_RW.c **** 	uint8_t* DataStream      = ((uint8_t*)Buffer + TEMPLATE_BUFFER_OFFSET(Length));
 1009               		.loc 3 36 1 is_stmt 1 view -0
 1010               		.cfi_startproc
  36:../../LUFA-111009/LUFA/Drivers/USB/Core/AVR8/Template/Template_Endpoint_RW.c **** 	uint8_t* DataStream      = ((uint8_t*)Buffer + TEMPLATE_BUFFER_OFFSET(Length));
 1011               		.loc 3 36 1 is_stmt 0 view .LVU256
 1012 0000 AF92      		push r10
 1013               	.LCFI41:
 1014               		.cfi_def_cfa_offset 3
 1015               		.cfi_offset 10, -2
 1016 0002 BF92      		push r11
 1017               	.LCFI42:
 1018               		.cfi_def_cfa_offset 4
 1019               		.cfi_offset 11, -3
 1020 0004 DF92      		push r13
 1021               	.LCFI43:
 1022               		.cfi_def_cfa_offset 5
 1023               		.cfi_offset 13, -4
 1024 0006 EF92      		push r14
 1025               	.LCFI44:
 1026               		.cfi_def_cfa_offset 6
 1027               		.cfi_offset 14, -5
 1028 0008 FF92      		push r15
 1029               	.LCFI45:
 1030               		.cfi_def_cfa_offset 7
 1031               		.cfi_offset 15, -6
 1032 000a 0F93      		push r16
 1033               	.LCFI46:
 1034               		.cfi_def_cfa_offset 8
 1035               		.cfi_offset 16, -7
 1036 000c 1F93      		push r17
 1037               	.LCFI47:
 1038               		.cfi_def_cfa_offset 9
 1039               		.cfi_offset 17, -8
 1040 000e CF93      		push r28
 1041               	.LCFI48:
 1042               		.cfi_def_cfa_offset 10
 1043               		.cfi_offset 28, -9
 1044 0010 DF93      		push r29
 1045               	.LCFI49:
 1046               		.cfi_def_cfa_offset 11
 1047               		.cfi_offset 29, -10
 1048               	/* prologue: function */
 1049               	/* frame size = 0 */
 1050               	/* stack size = 9 */
 1051               	.L__stack_usage = 9
 1052 0012 EC01      		movw r28,r24
 1053 0014 8B01      		movw r16,r22
 1054 0016 7A01      		movw r14,r20
  37:../../LUFA-111009/LUFA/Drivers/USB/Core/AVR8/Template/Template_Endpoint_RW.c **** 	uint16_t BytesInTransfer = 0;
 1055               		.loc 3 37 2 is_stmt 1 view .LVU257
 1056               	.LVL90:
  38:../../LUFA-111009/LUFA/Drivers/USB/Core/AVR8/Template/Template_Endpoint_RW.c **** 	uint8_t  ErrorCode;
 1057               		.loc 3 38 2 view .LVU258
  39:../../LUFA-111009/LUFA/Drivers/USB/Core/AVR8/Template/Template_Endpoint_RW.c **** 
 1058               		.loc 3 39 2 view .LVU259
  41:../../LUFA-111009/LUFA/Drivers/USB/Core/AVR8/Template/Template_Endpoint_RW.c **** 	  return ErrorCode;
 1059               		.loc 3 41 2 view .LVU260
  41:../../LUFA-111009/LUFA/Drivers/USB/Core/AVR8/Template/Template_Endpoint_RW.c **** 	  return ErrorCode;
 1060               		.loc 3 41 19 is_stmt 0 view .LVU261
 1061 0018 0E94 0000 		call Endpoint_WaitUntilReady
 1062               	.LVL91:
  41:../../LUFA-111009/LUFA/Drivers/USB/Core/AVR8/Template/Template_Endpoint_RW.c **** 	  return ErrorCode;
 1063               		.loc 3 41 19 view .LVU262
 1064 001c D82E      		mov r13,r24
 1065               	.LVL92:
  41:../../LUFA-111009/LUFA/Drivers/USB/Core/AVR8/Template/Template_Endpoint_RW.c **** 	  return ErrorCode;
 1066               		.loc 3 41 5 view .LVU263
 1067 001e 8111      		cpse r24,__zero_reg__
 1068 0020 00C0      		rjmp .L61
  37:../../LUFA-111009/LUFA/Drivers/USB/Core/AVR8/Template/Template_Endpoint_RW.c **** 	uint16_t BytesInTransfer = 0;
 1069               		.loc 3 37 47 view .LVU264
 1070 0022 C801      		movw r24,r16
 1071 0024 0197      		sbiw r24,1
 1072               	.LVL93:
  37:../../LUFA-111009/LUFA/Drivers/USB/Core/AVR8/Template/Template_Endpoint_RW.c **** 	uint16_t BytesInTransfer = 0;
 1073               		.loc 3 37 11 view .LVU265
 1074 0026 C80F      		add r28,r24
 1075 0028 D91F      		adc r29,r25
 1076               	.LVL94:
  44:../../LUFA-111009/LUFA/Drivers/USB/Core/AVR8/Template/Template_Endpoint_RW.c **** 	{
 1077               		.loc 3 44 2 is_stmt 1 view .LVU266
  44:../../LUFA-111009/LUFA/Drivers/USB/Core/AVR8/Template/Template_Endpoint_RW.c **** 	{
 1078               		.loc 3 44 5 is_stmt 0 view .LVU267
 1079 002a E114      		cp r14,__zero_reg__
 1080 002c F104      		cpc r15,__zero_reg__
 1081 002e 01F0      		breq .L63
  46:../../LUFA-111009/LUFA/Drivers/USB/Core/AVR8/Template/Template_Endpoint_RW.c **** 		TEMPLATE_BUFFER_MOVE(DataStream, *BytesProcessed);
 1082               		.loc 3 46 3 is_stmt 1 view .LVU268
  46:../../LUFA-111009/LUFA/Drivers/USB/Core/AVR8/Template/Template_Endpoint_RW.c **** 		TEMPLATE_BUFFER_MOVE(DataStream, *BytesProcessed);
 1083               		.loc 3 46 13 is_stmt 0 view .LVU269
 1084 0030 F701      		movw r30,r14
 1085 0032 8081      		ld r24,Z
 1086 0034 9181      		ldd r25,Z+1
 1087               	.LVL95:
  46:../../LUFA-111009/LUFA/Drivers/USB/Core/AVR8/Template/Template_Endpoint_RW.c **** 		TEMPLATE_BUFFER_MOVE(DataStream, *BytesProcessed);
 1088               		.loc 3 46 10 view .LVU270
 1089 0036 081B      		sub r16,r24
 1090 0038 190B      		sbc r17,r25
 1091               	.LVL96:
  47:../../LUFA-111009/LUFA/Drivers/USB/Core/AVR8/Template/Template_Endpoint_RW.c **** 	}
 1092               		.loc 3 47 3 is_stmt 1 view .LVU271
 1093 003a C81B      		sub r28,r24
 1094 003c D90B      		sbc r29,r25
 1095               	.LVL97:
 1096               	.L63:
  36:../../LUFA-111009/LUFA/Drivers/USB/Core/AVR8/Template/Template_Endpoint_RW.c **** 	uint8_t* DataStream      = ((uint8_t*)Buffer + TEMPLATE_BUFFER_OFFSET(Length));
 1097               		.loc 3 36 1 is_stmt 0 view .LVU272
 1098 003e B12C      		mov r11,__zero_reg__
 1099 0040 A12C      		mov r10,__zero_reg__
 1100               	.LVL98:
 1101               	.L64:
  50:../../LUFA-111009/LUFA/Drivers/USB/Core/AVR8/Template/Template_Endpoint_RW.c **** 	{
 1102               		.loc 3 50 8 is_stmt 1 view .LVU273
 1103 0042 0115      		cp r16,__zero_reg__
 1104 0044 1105      		cpc r17,__zero_reg__
 1105 0046 01F0      		breq .L61
  52:../../LUFA-111009/LUFA/Drivers/USB/Core/AVR8/Template/Template_Endpoint_RW.c **** 		{
 1106               		.loc 3 52 3 view .LVU274
 1107               	.LBB286:
 1108               	.LBI286:
 418:../../LUFA-111009/LUFA/Drivers/USB/Core/AVR8/../AVR8/../AVR8/Endpoint_AVR8.h **** 			{
 1109               		.loc 2 418 23 view .LVU275
 1110               	.LBB287:
 420:../../LUFA-111009/LUFA/Drivers/USB/Core/AVR8/../AVR8/../AVR8/Endpoint_AVR8.h **** 			}
 1111               		.loc 2 420 5 view .LVU276
 420:../../LUFA-111009/LUFA/Drivers/USB/Core/AVR8/../AVR8/../AVR8/Endpoint_AVR8.h **** 			}
 1112               		.loc 2 420 14 is_stmt 0 view .LVU277
 1113 0048 8091 E800 		lds r24,232
 1114               	.LBE287:
 1115               	.LBE286:
  52:../../LUFA-111009/LUFA/Drivers/USB/Core/AVR8/Template/Template_Endpoint_RW.c **** 		{
 1116               		.loc 3 52 6 view .LVU278
 1117 004c 85FD      		sbrc r24,5
 1118 004e 00C0      		rjmp .L65
  54:../../LUFA-111009/LUFA/Drivers/USB/Core/AVR8/Template/Template_Endpoint_RW.c **** 
 1119               		.loc 3 54 4 is_stmt 1 view .LVU279
 1120               	.LBB288:
 1121               	.LBI288:
 528:../../LUFA-111009/LUFA/Drivers/USB/Core/AVR8/../AVR8/../AVR8/Endpoint_AVR8.h **** 			{
 1122               		.loc 2 528 23 view .LVU280
 1123               	.LBB289:
 531:../../LUFA-111009/LUFA/Drivers/USB/Core/AVR8/../AVR8/../AVR8/Endpoint_AVR8.h **** 				#else
 1124               		.loc 2 531 6 view .LVU281
 531:../../LUFA-111009/LUFA/Drivers/USB/Core/AVR8/../AVR8/../AVR8/Endpoint_AVR8.h **** 				#else
 1125               		.loc 2 531 13 is_stmt 0 view .LVU282
 1126 0050 8091 E800 		lds r24,232
 1127 0054 8B77      		andi r24,lo8(123)
 1128 0056 8093 E800 		sts 232,r24
 1129               	.LBE289:
 1130               	.LBE288:
  57:../../LUFA-111009/LUFA/Drivers/USB/Core/AVR8/Template/Template_Endpoint_RW.c **** 			#endif
 1131               		.loc 3 57 4 is_stmt 1 view .LVU283
 1132 005a 0E94 0000 		call USB_USBTask
 1133               	.LVL99:
  60:../../LUFA-111009/LUFA/Drivers/USB/Core/AVR8/Template/Template_Endpoint_RW.c **** 			{
 1134               		.loc 3 60 4 view .LVU284
  60:../../LUFA-111009/LUFA/Drivers/USB/Core/AVR8/Template/Template_Endpoint_RW.c **** 			{
 1135               		.loc 3 60 7 is_stmt 0 view .LVU285
 1136 005e E114      		cp r14,__zero_reg__
 1137 0060 F104      		cpc r15,__zero_reg__
 1138 0062 01F0      		breq .L66
  62:../../LUFA-111009/LUFA/Drivers/USB/Core/AVR8/Template/Template_Endpoint_RW.c **** 				return ENDPOINT_RWSTREAM_IncompleteTransfer;
 1139               		.loc 3 62 5 is_stmt 1 view .LVU286
  62:../../LUFA-111009/LUFA/Drivers/USB/Core/AVR8/Template/Template_Endpoint_RW.c **** 				return ENDPOINT_RWSTREAM_IncompleteTransfer;
 1140               		.loc 3 62 21 is_stmt 0 view .LVU287
 1141 0064 F701      		movw r30,r14
 1142 0066 8081      		ld r24,Z
 1143 0068 9181      		ldd r25,Z+1
 1144 006a A80E      		add r10,r24
 1145 006c B91E      		adc r11,r25
 1146               	.LVL100:
  62:../../LUFA-111009/LUFA/Drivers/USB/Core/AVR8/Template/Template_Endpoint_RW.c **** 				return ENDPOINT_RWSTREAM_IncompleteTransfer;
 1147               		.loc 3 62 21 view .LVU288
 1148 006e B182      		std Z+1,r11
 1149 0070 A082      		st Z,r10
  63:../../LUFA-111009/LUFA/Drivers/USB/Core/AVR8/Template/Template_Endpoint_RW.c **** 			}
 1150               		.loc 3 63 5 is_stmt 1 view .LVU289
  63:../../LUFA-111009/LUFA/Drivers/USB/Core/AVR8/Template/Template_Endpoint_RW.c **** 			}
 1151               		.loc 3 63 12 is_stmt 0 view .LVU290
 1152 0072 85E0      		ldi r24,lo8(5)
 1153 0074 D82E      		mov r13,r24
 1154               	.LVL101:
 1155               	.L61:
 1156               		.loc 3 79 1 view .LVU291
 1157 0076 8D2D      		mov r24,r13
 1158               	/* epilogue start */
 1159 0078 DF91      		pop r29
 1160 007a CF91      		pop r28
 1161 007c 1F91      		pop r17
 1162 007e 0F91      		pop r16
 1163               	.LVL102:
 1164               		.loc 3 79 1 view .LVU292
 1165 0080 FF90      		pop r15
 1166 0082 EF90      		pop r14
 1167               	.LVL103:
 1168               		.loc 3 79 1 view .LVU293
 1169 0084 DF90      		pop r13
 1170 0086 BF90      		pop r11
 1171 0088 AF90      		pop r10
 1172 008a 0895      		ret
 1173               	.LVL104:
 1174               	.L66:
  66:../../LUFA-111009/LUFA/Drivers/USB/Core/AVR8/Template/Template_Endpoint_RW.c **** 			  return ErrorCode;
 1175               		.loc 3 66 4 is_stmt 1 view .LVU294
  66:../../LUFA-111009/LUFA/Drivers/USB/Core/AVR8/Template/Template_Endpoint_RW.c **** 			  return ErrorCode;
 1176               		.loc 3 66 21 is_stmt 0 view .LVU295
 1177 008c 0E94 0000 		call Endpoint_WaitUntilReady
 1178               	.LVL105:
  66:../../LUFA-111009/LUFA/Drivers/USB/Core/AVR8/Template/Template_Endpoint_RW.c **** 			  return ErrorCode;
 1179               		.loc 3 66 7 view .LVU296
 1180 0090 8823      		tst r24
 1181 0092 01F0      		breq .L64
  66:../../LUFA-111009/LUFA/Drivers/USB/Core/AVR8/Template/Template_Endpoint_RW.c **** 			  return ErrorCode;
 1182               		.loc 3 66 21 view .LVU297
 1183 0094 D82E      		mov r13,r24
 1184 0096 00C0      		rjmp .L61
 1185               	.LVL106:
 1186               	.L65:
  71:../../LUFA-111009/LUFA/Drivers/USB/Core/AVR8/Template/Template_Endpoint_RW.c **** 			TEMPLATE_BUFFER_MOVE(DataStream, 1);
 1187               		.loc 3 71 4 is_stmt 1 view .LVU298
 1188               	.LBB290:
 1189               	.LBI290:
 610:../../LUFA-111009/LUFA/Drivers/USB/Core/AVR8/../AVR8/../AVR8/Endpoint_AVR8.h **** 			{
 1190               		.loc 2 610 26 view .LVU299
 1191               	.LBB291:
 612:../../LUFA-111009/LUFA/Drivers/USB/Core/AVR8/../AVR8/../AVR8/Endpoint_AVR8.h **** 			}
 1192               		.loc 2 612 5 view .LVU300
 612:../../LUFA-111009/LUFA/Drivers/USB/Core/AVR8/../AVR8/../AVR8/Endpoint_AVR8.h **** 			}
 1193               		.loc 2 612 12 is_stmt 0 view .LVU301
 1194 0098 8091 F100 		lds r24,241
 1195               	.LBE291:
 1196               	.LBE290:
  71:../../LUFA-111009/LUFA/Drivers/USB/Core/AVR8/Template/Template_Endpoint_RW.c **** 			TEMPLATE_BUFFER_MOVE(DataStream, 1);
 1197               		.loc 3 71 4 view .LVU302
 1198 009c 8883      		st Y,r24
  72:../../LUFA-111009/LUFA/Drivers/USB/Core/AVR8/Template/Template_Endpoint_RW.c **** 			Length--;
 1199               		.loc 3 72 4 is_stmt 1 view .LVU303
 1200 009e 2197      		sbiw r28,1
 1201               	.LVL107:
  73:../../LUFA-111009/LUFA/Drivers/USB/Core/AVR8/Template/Template_Endpoint_RW.c **** 			BytesInTransfer++;
 1202               		.loc 3 73 4 view .LVU304
  73:../../LUFA-111009/LUFA/Drivers/USB/Core/AVR8/Template/Template_Endpoint_RW.c **** 			BytesInTransfer++;
 1203               		.loc 3 73 10 is_stmt 0 view .LVU305
 1204 00a0 0150      		subi r16,1
 1205 00a2 1109      		sbc r17,__zero_reg__
 1206               	.LVL108:
  74:../../LUFA-111009/LUFA/Drivers/USB/Core/AVR8/Template/Template_Endpoint_RW.c **** 		}
 1207               		.loc 3 74 4 is_stmt 1 view .LVU306
  74:../../LUFA-111009/LUFA/Drivers/USB/Core/AVR8/Template/Template_Endpoint_RW.c **** 		}
 1208               		.loc 3 74 19 is_stmt 0 view .LVU307
 1209 00a4 FFEF      		ldi r31,-1
 1210 00a6 AF1A      		sub r10,r31
 1211 00a8 BF0A      		sbc r11,r31
 1212               	.LVL109:
  74:../../LUFA-111009/LUFA/Drivers/USB/Core/AVR8/Template/Template_Endpoint_RW.c **** 		}
 1213               		.loc 3 74 19 view .LVU308
 1214 00aa 00C0      		rjmp .L64
 1215               		.cfi_endproc
 1216               	.LFE86:
 1218               		.section	.text.Endpoint_Write_PStream_LE,"ax",@progbits
 1219               	.global	Endpoint_Write_PStream_LE
 1221               	Endpoint_Write_PStream_LE:
 1222               	.LVL110:
 1223               	.LFB87:
  36:../../LUFA-111009/LUFA/Drivers/USB/Core/AVR8/Template/Template_Endpoint_RW.c **** 	uint8_t* DataStream      = ((uint8_t*)Buffer + TEMPLATE_BUFFER_OFFSET(Length));
 1224               		.loc 3 36 1 is_stmt 1 view -0
 1225               		.cfi_startproc
  36:../../LUFA-111009/LUFA/Drivers/USB/Core/AVR8/Template/Template_Endpoint_RW.c **** 	uint8_t* DataStream      = ((uint8_t*)Buffer + TEMPLATE_BUFFER_OFFSET(Length));
 1226               		.loc 3 36 1 is_stmt 0 view .LVU310
 1227 0000 AF92      		push r10
 1228               	.LCFI50:
 1229               		.cfi_def_cfa_offset 3
 1230               		.cfi_offset 10, -2
 1231 0002 BF92      		push r11
 1232               	.LCFI51:
 1233               		.cfi_def_cfa_offset 4
 1234               		.cfi_offset 11, -3
 1235 0004 DF92      		push r13
 1236               	.LCFI52:
 1237               		.cfi_def_cfa_offset 5
 1238               		.cfi_offset 13, -4
 1239 0006 EF92      		push r14
 1240               	.LCFI53:
 1241               		.cfi_def_cfa_offset 6
 1242               		.cfi_offset 14, -5
 1243 0008 FF92      		push r15
 1244               	.LCFI54:
 1245               		.cfi_def_cfa_offset 7
 1246               		.cfi_offset 15, -6
 1247 000a 0F93      		push r16
 1248               	.LCFI55:
 1249               		.cfi_def_cfa_offset 8
 1250               		.cfi_offset 16, -7
 1251 000c 1F93      		push r17
 1252               	.LCFI56:
 1253               		.cfi_def_cfa_offset 9
 1254               		.cfi_offset 17, -8
 1255 000e CF93      		push r28
 1256               	.LCFI57:
 1257               		.cfi_def_cfa_offset 10
 1258               		.cfi_offset 28, -9
 1259 0010 DF93      		push r29
 1260               	.LCFI58:
 1261               		.cfi_def_cfa_offset 11
 1262               		.cfi_offset 29, -10
 1263               	/* prologue: function */
 1264               	/* frame size = 0 */
 1265               	/* stack size = 9 */
 1266               	.L__stack_usage = 9
 1267 0012 8C01      		movw r16,r24
 1268 0014 EB01      		movw r28,r22
 1269 0016 7A01      		movw r14,r20
  37:../../LUFA-111009/LUFA/Drivers/USB/Core/AVR8/Template/Template_Endpoint_RW.c **** 	uint16_t BytesInTransfer = 0;
 1270               		.loc 3 37 2 is_stmt 1 view .LVU311
 1271               	.LVL111:
  38:../../LUFA-111009/LUFA/Drivers/USB/Core/AVR8/Template/Template_Endpoint_RW.c **** 	uint8_t  ErrorCode;
 1272               		.loc 3 38 2 view .LVU312
  39:../../LUFA-111009/LUFA/Drivers/USB/Core/AVR8/Template/Template_Endpoint_RW.c **** 
 1273               		.loc 3 39 2 view .LVU313
  41:../../LUFA-111009/LUFA/Drivers/USB/Core/AVR8/Template/Template_Endpoint_RW.c **** 	  return ErrorCode;
 1274               		.loc 3 41 2 view .LVU314
  41:../../LUFA-111009/LUFA/Drivers/USB/Core/AVR8/Template/Template_Endpoint_RW.c **** 	  return ErrorCode;
 1275               		.loc 3 41 19 is_stmt 0 view .LVU315
 1276 0018 0E94 0000 		call Endpoint_WaitUntilReady
 1277               	.LVL112:
  41:../../LUFA-111009/LUFA/Drivers/USB/Core/AVR8/Template/Template_Endpoint_RW.c **** 	  return ErrorCode;
 1278               		.loc 3 41 19 view .LVU316
 1279 001c D82E      		mov r13,r24
 1280               	.LVL113:
  41:../../LUFA-111009/LUFA/Drivers/USB/Core/AVR8/Template/Template_Endpoint_RW.c **** 	  return ErrorCode;
 1281               		.loc 3 41 5 view .LVU317
 1282 001e 8111      		cpse r24,__zero_reg__
 1283 0020 00C0      		rjmp .L73
  44:../../LUFA-111009/LUFA/Drivers/USB/Core/AVR8/Template/Template_Endpoint_RW.c **** 	{
 1284               		.loc 3 44 2 is_stmt 1 view .LVU318
  44:../../LUFA-111009/LUFA/Drivers/USB/Core/AVR8/Template/Template_Endpoint_RW.c **** 	{
 1285               		.loc 3 44 5 is_stmt 0 view .LVU319
 1286 0022 E114      		cp r14,__zero_reg__
 1287 0024 F104      		cpc r15,__zero_reg__
 1288 0026 01F0      		breq .L75
  46:../../LUFA-111009/LUFA/Drivers/USB/Core/AVR8/Template/Template_Endpoint_RW.c **** 		TEMPLATE_BUFFER_MOVE(DataStream, *BytesProcessed);
 1289               		.loc 3 46 3 is_stmt 1 view .LVU320
  46:../../LUFA-111009/LUFA/Drivers/USB/Core/AVR8/Template/Template_Endpoint_RW.c **** 		TEMPLATE_BUFFER_MOVE(DataStream, *BytesProcessed);
 1290               		.loc 3 46 13 is_stmt 0 view .LVU321
 1291 0028 F701      		movw r30,r14
 1292 002a 8081      		ld r24,Z
 1293 002c 9181      		ldd r25,Z+1
  46:../../LUFA-111009/LUFA/Drivers/USB/Core/AVR8/Template/Template_Endpoint_RW.c **** 		TEMPLATE_BUFFER_MOVE(DataStream, *BytesProcessed);
 1294               		.loc 3 46 10 view .LVU322
 1295 002e C81B      		sub r28,r24
 1296 0030 D90B      		sbc r29,r25
 1297               	.LVL114:
  47:../../LUFA-111009/LUFA/Drivers/USB/Core/AVR8/Template/Template_Endpoint_RW.c **** 	}
 1298               		.loc 3 47 3 is_stmt 1 view .LVU323
 1299 0032 080F      		add r16,r24
 1300 0034 191F      		adc r17,r25
 1301               	.LVL115:
 1302               	.L75:
  36:../../LUFA-111009/LUFA/Drivers/USB/Core/AVR8/Template/Template_Endpoint_RW.c **** 	uint8_t* DataStream      = ((uint8_t*)Buffer + TEMPLATE_BUFFER_OFFSET(Length));
 1303               		.loc 3 36 1 is_stmt 0 view .LVU324
 1304 0036 B12C      		mov r11,__zero_reg__
 1305 0038 A12C      		mov r10,__zero_reg__
 1306               	.LVL116:
 1307               	.L76:
  50:../../LUFA-111009/LUFA/Drivers/USB/Core/AVR8/Template/Template_Endpoint_RW.c **** 	{
 1308               		.loc 3 50 8 is_stmt 1 view .LVU325
 1309 003a 2097      		sbiw r28,0
 1310 003c 01F0      		breq .L73
  52:../../LUFA-111009/LUFA/Drivers/USB/Core/AVR8/Template/Template_Endpoint_RW.c **** 		{
 1311               		.loc 3 52 3 view .LVU326
 1312               	.LBB292:
 1313               	.LBI292:
 418:../../LUFA-111009/LUFA/Drivers/USB/Core/AVR8/../AVR8/../AVR8/Endpoint_AVR8.h **** 			{
 1314               		.loc 2 418 23 view .LVU327
 1315               	.LBB293:
 420:../../LUFA-111009/LUFA/Drivers/USB/Core/AVR8/../AVR8/../AVR8/Endpoint_AVR8.h **** 			}
 1316               		.loc 2 420 5 view .LVU328
 420:../../LUFA-111009/LUFA/Drivers/USB/Core/AVR8/../AVR8/../AVR8/Endpoint_AVR8.h **** 			}
 1317               		.loc 2 420 14 is_stmt 0 view .LVU329
 1318 003e 8091 E800 		lds r24,232
 1319               	.LBE293:
 1320               	.LBE292:
  52:../../LUFA-111009/LUFA/Drivers/USB/Core/AVR8/Template/Template_Endpoint_RW.c **** 		{
 1321               		.loc 3 52 6 view .LVU330
 1322 0042 85FD      		sbrc r24,5
 1323 0044 00C0      		rjmp .L77
  54:../../LUFA-111009/LUFA/Drivers/USB/Core/AVR8/Template/Template_Endpoint_RW.c **** 
 1324               		.loc 3 54 4 is_stmt 1 view .LVU331
 1325               	.LBB294:
 1326               	.LBI294:
 513:../../LUFA-111009/LUFA/Drivers/USB/Core/AVR8/../AVR8/../AVR8/Endpoint_AVR8.h **** 			{
 1327               		.loc 2 513 23 view .LVU332
 1328               	.LBB295:
 516:../../LUFA-111009/LUFA/Drivers/USB/Core/AVR8/../AVR8/../AVR8/Endpoint_AVR8.h **** 				#else
 1329               		.loc 2 516 6 view .LVU333
 516:../../LUFA-111009/LUFA/Drivers/USB/Core/AVR8/../AVR8/../AVR8/Endpoint_AVR8.h **** 				#else
 1330               		.loc 2 516 13 is_stmt 0 view .LVU334
 1331 0046 8091 E800 		lds r24,232
 1332 004a 8E77      		andi r24,lo8(126)
 1333 004c 8093 E800 		sts 232,r24
 1334               	.LBE295:
 1335               	.LBE294:
  57:../../LUFA-111009/LUFA/Drivers/USB/Core/AVR8/Template/Template_Endpoint_RW.c **** 			#endif
 1336               		.loc 3 57 4 is_stmt 1 view .LVU335
 1337 0050 0E94 0000 		call USB_USBTask
 1338               	.LVL117:
  60:../../LUFA-111009/LUFA/Drivers/USB/Core/AVR8/Template/Template_Endpoint_RW.c **** 			{
 1339               		.loc 3 60 4 view .LVU336
  60:../../LUFA-111009/LUFA/Drivers/USB/Core/AVR8/Template/Template_Endpoint_RW.c **** 			{
 1340               		.loc 3 60 7 is_stmt 0 view .LVU337
 1341 0054 E114      		cp r14,__zero_reg__
 1342 0056 F104      		cpc r15,__zero_reg__
 1343 0058 01F0      		breq .L78
  62:../../LUFA-111009/LUFA/Drivers/USB/Core/AVR8/Template/Template_Endpoint_RW.c **** 				return ENDPOINT_RWSTREAM_IncompleteTransfer;
 1344               		.loc 3 62 5 is_stmt 1 view .LVU338
  62:../../LUFA-111009/LUFA/Drivers/USB/Core/AVR8/Template/Template_Endpoint_RW.c **** 				return ENDPOINT_RWSTREAM_IncompleteTransfer;
 1345               		.loc 3 62 21 is_stmt 0 view .LVU339
 1346 005a F701      		movw r30,r14
 1347 005c 8081      		ld r24,Z
 1348 005e 9181      		ldd r25,Z+1
 1349 0060 A80E      		add r10,r24
 1350 0062 B91E      		adc r11,r25
 1351               	.LVL118:
  62:../../LUFA-111009/LUFA/Drivers/USB/Core/AVR8/Template/Template_Endpoint_RW.c **** 				return ENDPOINT_RWSTREAM_IncompleteTransfer;
 1352               		.loc 3 62 21 view .LVU340
 1353 0064 B182      		std Z+1,r11
 1354 0066 A082      		st Z,r10
  63:../../LUFA-111009/LUFA/Drivers/USB/Core/AVR8/Template/Template_Endpoint_RW.c **** 			}
 1355               		.loc 3 63 5 is_stmt 1 view .LVU341
  63:../../LUFA-111009/LUFA/Drivers/USB/Core/AVR8/Template/Template_Endpoint_RW.c **** 			}
 1356               		.loc 3 63 12 is_stmt 0 view .LVU342
 1357 0068 85E0      		ldi r24,lo8(5)
 1358 006a D82E      		mov r13,r24
 1359               	.L73:
 1360               		.loc 3 79 1 view .LVU343
 1361 006c 8D2D      		mov r24,r13
 1362               	/* epilogue start */
 1363 006e DF91      		pop r29
 1364 0070 CF91      		pop r28
 1365               	.LVL119:
 1366               		.loc 3 79 1 view .LVU344
 1367 0072 1F91      		pop r17
 1368 0074 0F91      		pop r16
 1369               	.LVL120:
 1370               		.loc 3 79 1 view .LVU345
 1371 0076 FF90      		pop r15
 1372 0078 EF90      		pop r14
 1373               	.LVL121:
 1374               		.loc 3 79 1 view .LVU346
 1375 007a DF90      		pop r13
 1376 007c BF90      		pop r11
 1377 007e AF90      		pop r10
 1378 0080 0895      		ret
 1379               	.LVL122:
 1380               	.L78:
  66:../../LUFA-111009/LUFA/Drivers/USB/Core/AVR8/Template/Template_Endpoint_RW.c **** 			  return ErrorCode;
 1381               		.loc 3 66 4 is_stmt 1 view .LVU347
  66:../../LUFA-111009/LUFA/Drivers/USB/Core/AVR8/Template/Template_Endpoint_RW.c **** 			  return ErrorCode;
 1382               		.loc 3 66 21 is_stmt 0 view .LVU348
 1383 0082 0E94 0000 		call Endpoint_WaitUntilReady
 1384               	.LVL123:
  66:../../LUFA-111009/LUFA/Drivers/USB/Core/AVR8/Template/Template_Endpoint_RW.c **** 			  return ErrorCode;
 1385               		.loc 3 66 7 view .LVU349
 1386 0086 8823      		tst r24
 1387 0088 01F0      		breq .L76
  66:../../LUFA-111009/LUFA/Drivers/USB/Core/AVR8/Template/Template_Endpoint_RW.c **** 			  return ErrorCode;
 1388               		.loc 3 66 21 view .LVU350
 1389 008a D82E      		mov r13,r24
 1390 008c 00C0      		rjmp .L73
 1391               	.LVL124:
 1392               	.L77:
  71:../../LUFA-111009/LUFA/Drivers/USB/Core/AVR8/Template/Template_Endpoint_RW.c **** 			TEMPLATE_BUFFER_MOVE(DataStream, 1);
 1393               		.loc 3 71 4 is_stmt 1 view .LVU351
 1394               	.LBB296:
  71:../../LUFA-111009/LUFA/Drivers/USB/Core/AVR8/Template/Template_Endpoint_RW.c **** 			TEMPLATE_BUFFER_MOVE(DataStream, 1);
 1395               		.loc 3 71 4 view .LVU352
  71:../../LUFA-111009/LUFA/Drivers/USB/Core/AVR8/Template/Template_Endpoint_RW.c **** 			TEMPLATE_BUFFER_MOVE(DataStream, 1);
 1396               		.loc 3 71 4 view .LVU353
  71:../../LUFA-111009/LUFA/Drivers/USB/Core/AVR8/Template/Template_Endpoint_RW.c **** 			TEMPLATE_BUFFER_MOVE(DataStream, 1);
 1397               		.loc 3 71 4 view .LVU354
 1398 008e F801      		movw r30,r16
 1399               	/* #APP */
 1400               	 ;  71 "../../LUFA-111009/LUFA/Drivers/USB/Core/AVR8/Template/Template_Endpoint_RW.c" 1
 1401 0090 8491      		lpm r24, Z
 1402               		
 1403               	 ;  0 "" 2
 1404               	.LVL125:
  71:../../LUFA-111009/LUFA/Drivers/USB/Core/AVR8/Template/Template_Endpoint_RW.c **** 			TEMPLATE_BUFFER_MOVE(DataStream, 1);
 1405               		.loc 3 71 4 view .LVU355
  71:../../LUFA-111009/LUFA/Drivers/USB/Core/AVR8/Template/Template_Endpoint_RW.c **** 			TEMPLATE_BUFFER_MOVE(DataStream, 1);
 1406               		.loc 3 71 4 is_stmt 0 view .LVU356
 1407               	/* #NOAPP */
 1408               	.LBE296:
 1409               	.LBB297:
 1410               	.LBI297:
 622:../../LUFA-111009/LUFA/Drivers/USB/Core/AVR8/../AVR8/../AVR8/Endpoint_AVR8.h **** 			{
 1411               		.loc 2 622 23 is_stmt 1 view .LVU357
 1412               	.LBB298:
 624:../../LUFA-111009/LUFA/Drivers/USB/Core/AVR8/../AVR8/../AVR8/Endpoint_AVR8.h **** 			}
 1413               		.loc 2 624 5 view .LVU358
 624:../../LUFA-111009/LUFA/Drivers/USB/Core/AVR8/../AVR8/../AVR8/Endpoint_AVR8.h **** 			}
 1414               		.loc 2 624 12 is_stmt 0 view .LVU359
 1415 0092 8093 F100 		sts 241,r24
 1416               	.LVL126:
 624:../../LUFA-111009/LUFA/Drivers/USB/Core/AVR8/../AVR8/../AVR8/Endpoint_AVR8.h **** 			}
 1417               		.loc 2 624 12 view .LVU360
 1418               	.LBE298:
 1419               	.LBE297:
  72:../../LUFA-111009/LUFA/Drivers/USB/Core/AVR8/Template/Template_Endpoint_RW.c **** 			Length--;
 1420               		.loc 3 72 4 is_stmt 1 view .LVU361
 1421 0096 0F5F      		subi r16,-1
 1422 0098 1F4F      		sbci r17,-1
 1423               	.LVL127:
  73:../../LUFA-111009/LUFA/Drivers/USB/Core/AVR8/Template/Template_Endpoint_RW.c **** 			BytesInTransfer++;
 1424               		.loc 3 73 4 view .LVU362
  73:../../LUFA-111009/LUFA/Drivers/USB/Core/AVR8/Template/Template_Endpoint_RW.c **** 			BytesInTransfer++;
 1425               		.loc 3 73 10 is_stmt 0 view .LVU363
 1426 009a 2197      		sbiw r28,1
 1427               	.LVL128:
  74:../../LUFA-111009/LUFA/Drivers/USB/Core/AVR8/Template/Template_Endpoint_RW.c **** 		}
 1428               		.loc 3 74 4 is_stmt 1 view .LVU364
  74:../../LUFA-111009/LUFA/Drivers/USB/Core/AVR8/Template/Template_Endpoint_RW.c **** 		}
 1429               		.loc 3 74 19 is_stmt 0 view .LVU365
 1430 009c FFEF      		ldi r31,-1
 1431 009e AF1A      		sub r10,r31
 1432 00a0 BF0A      		sbc r11,r31
 1433               	.LVL129:
  74:../../LUFA-111009/LUFA/Drivers/USB/Core/AVR8/Template/Template_Endpoint_RW.c **** 		}
 1434               		.loc 3 74 19 view .LVU366
 1435 00a2 00C0      		rjmp .L76
 1436               		.cfi_endproc
 1437               	.LFE87:
 1439               		.section	.text.Endpoint_Write_PStream_BE,"ax",@progbits
 1440               	.global	Endpoint_Write_PStream_BE
 1442               	Endpoint_Write_PStream_BE:
 1443               	.LVL130:
 1444               	.LFB88:
  36:../../LUFA-111009/LUFA/Drivers/USB/Core/AVR8/Template/Template_Endpoint_RW.c **** 	uint8_t* DataStream      = ((uint8_t*)Buffer + TEMPLATE_BUFFER_OFFSET(Length));
 1445               		.loc 3 36 1 is_stmt 1 view -0
 1446               		.cfi_startproc
  36:../../LUFA-111009/LUFA/Drivers/USB/Core/AVR8/Template/Template_Endpoint_RW.c **** 	uint8_t* DataStream      = ((uint8_t*)Buffer + TEMPLATE_BUFFER_OFFSET(Length));
 1447               		.loc 3 36 1 is_stmt 0 view .LVU368
 1448 0000 AF92      		push r10
 1449               	.LCFI59:
 1450               		.cfi_def_cfa_offset 3
 1451               		.cfi_offset 10, -2
 1452 0002 BF92      		push r11
 1453               	.LCFI60:
 1454               		.cfi_def_cfa_offset 4
 1455               		.cfi_offset 11, -3
 1456 0004 DF92      		push r13
 1457               	.LCFI61:
 1458               		.cfi_def_cfa_offset 5
 1459               		.cfi_offset 13, -4
 1460 0006 EF92      		push r14
 1461               	.LCFI62:
 1462               		.cfi_def_cfa_offset 6
 1463               		.cfi_offset 14, -5
 1464 0008 FF92      		push r15
 1465               	.LCFI63:
 1466               		.cfi_def_cfa_offset 7
 1467               		.cfi_offset 15, -6
 1468 000a 0F93      		push r16
 1469               	.LCFI64:
 1470               		.cfi_def_cfa_offset 8
 1471               		.cfi_offset 16, -7
 1472 000c 1F93      		push r17
 1473               	.LCFI65:
 1474               		.cfi_def_cfa_offset 9
 1475               		.cfi_offset 17, -8
 1476 000e CF93      		push r28
 1477               	.LCFI66:
 1478               		.cfi_def_cfa_offset 10
 1479               		.cfi_offset 28, -9
 1480 0010 DF93      		push r29
 1481               	.LCFI67:
 1482               		.cfi_def_cfa_offset 11
 1483               		.cfi_offset 29, -10
 1484               	/* prologue: function */
 1485               	/* frame size = 0 */
 1486               	/* stack size = 9 */
 1487               	.L__stack_usage = 9
 1488 0012 EC01      		movw r28,r24
 1489 0014 8B01      		movw r16,r22
 1490 0016 7A01      		movw r14,r20
  37:../../LUFA-111009/LUFA/Drivers/USB/Core/AVR8/Template/Template_Endpoint_RW.c **** 	uint16_t BytesInTransfer = 0;
 1491               		.loc 3 37 2 is_stmt 1 view .LVU369
 1492               	.LVL131:
  38:../../LUFA-111009/LUFA/Drivers/USB/Core/AVR8/Template/Template_Endpoint_RW.c **** 	uint8_t  ErrorCode;
 1493               		.loc 3 38 2 view .LVU370
  39:../../LUFA-111009/LUFA/Drivers/USB/Core/AVR8/Template/Template_Endpoint_RW.c **** 
 1494               		.loc 3 39 2 view .LVU371
  41:../../LUFA-111009/LUFA/Drivers/USB/Core/AVR8/Template/Template_Endpoint_RW.c **** 	  return ErrorCode;
 1495               		.loc 3 41 2 view .LVU372
  41:../../LUFA-111009/LUFA/Drivers/USB/Core/AVR8/Template/Template_Endpoint_RW.c **** 	  return ErrorCode;
 1496               		.loc 3 41 19 is_stmt 0 view .LVU373
 1497 0018 0E94 0000 		call Endpoint_WaitUntilReady
 1498               	.LVL132:
  41:../../LUFA-111009/LUFA/Drivers/USB/Core/AVR8/Template/Template_Endpoint_RW.c **** 	  return ErrorCode;
 1499               		.loc 3 41 19 view .LVU374
 1500 001c D82E      		mov r13,r24
 1501               	.LVL133:
  41:../../LUFA-111009/LUFA/Drivers/USB/Core/AVR8/Template/Template_Endpoint_RW.c **** 	  return ErrorCode;
 1502               		.loc 3 41 5 view .LVU375
 1503 001e 8111      		cpse r24,__zero_reg__
 1504 0020 00C0      		rjmp .L85
  37:../../LUFA-111009/LUFA/Drivers/USB/Core/AVR8/Template/Template_Endpoint_RW.c **** 	uint16_t BytesInTransfer = 0;
 1505               		.loc 3 37 47 view .LVU376
 1506 0022 C801      		movw r24,r16
 1507 0024 0197      		sbiw r24,1
 1508               	.LVL134:
  37:../../LUFA-111009/LUFA/Drivers/USB/Core/AVR8/Template/Template_Endpoint_RW.c **** 	uint16_t BytesInTransfer = 0;
 1509               		.loc 3 37 11 view .LVU377
 1510 0026 C80F      		add r28,r24
 1511 0028 D91F      		adc r29,r25
 1512               	.LVL135:
  44:../../LUFA-111009/LUFA/Drivers/USB/Core/AVR8/Template/Template_Endpoint_RW.c **** 	{
 1513               		.loc 3 44 2 is_stmt 1 view .LVU378
  44:../../LUFA-111009/LUFA/Drivers/USB/Core/AVR8/Template/Template_Endpoint_RW.c **** 	{
 1514               		.loc 3 44 5 is_stmt 0 view .LVU379
 1515 002a E114      		cp r14,__zero_reg__
 1516 002c F104      		cpc r15,__zero_reg__
 1517 002e 01F0      		breq .L87
  46:../../LUFA-111009/LUFA/Drivers/USB/Core/AVR8/Template/Template_Endpoint_RW.c **** 		TEMPLATE_BUFFER_MOVE(DataStream, *BytesProcessed);
 1518               		.loc 3 46 3 is_stmt 1 view .LVU380
  46:../../LUFA-111009/LUFA/Drivers/USB/Core/AVR8/Template/Template_Endpoint_RW.c **** 		TEMPLATE_BUFFER_MOVE(DataStream, *BytesProcessed);
 1519               		.loc 3 46 13 is_stmt 0 view .LVU381
 1520 0030 F701      		movw r30,r14
 1521 0032 8081      		ld r24,Z
 1522 0034 9181      		ldd r25,Z+1
 1523               	.LVL136:
  46:../../LUFA-111009/LUFA/Drivers/USB/Core/AVR8/Template/Template_Endpoint_RW.c **** 		TEMPLATE_BUFFER_MOVE(DataStream, *BytesProcessed);
 1524               		.loc 3 46 10 view .LVU382
 1525 0036 081B      		sub r16,r24
 1526 0038 190B      		sbc r17,r25
 1527               	.LVL137:
  47:../../LUFA-111009/LUFA/Drivers/USB/Core/AVR8/Template/Template_Endpoint_RW.c **** 	}
 1528               		.loc 3 47 3 is_stmt 1 view .LVU383
 1529 003a C81B      		sub r28,r24
 1530 003c D90B      		sbc r29,r25
 1531               	.LVL138:
 1532               	.L87:
  36:../../LUFA-111009/LUFA/Drivers/USB/Core/AVR8/Template/Template_Endpoint_RW.c **** 	uint8_t* DataStream      = ((uint8_t*)Buffer + TEMPLATE_BUFFER_OFFSET(Length));
 1533               		.loc 3 36 1 is_stmt 0 view .LVU384
 1534 003e B12C      		mov r11,__zero_reg__
 1535 0040 A12C      		mov r10,__zero_reg__
 1536               	.LVL139:
 1537               	.L88:
  50:../../LUFA-111009/LUFA/Drivers/USB/Core/AVR8/Template/Template_Endpoint_RW.c **** 	{
 1538               		.loc 3 50 8 is_stmt 1 view .LVU385
 1539 0042 0115      		cp r16,__zero_reg__
 1540 0044 1105      		cpc r17,__zero_reg__
 1541 0046 01F0      		breq .L85
  52:../../LUFA-111009/LUFA/Drivers/USB/Core/AVR8/Template/Template_Endpoint_RW.c **** 		{
 1542               		.loc 3 52 3 view .LVU386
 1543               	.LBB299:
 1544               	.LBI299:
 418:../../LUFA-111009/LUFA/Drivers/USB/Core/AVR8/../AVR8/../AVR8/Endpoint_AVR8.h **** 			{
 1545               		.loc 2 418 23 view .LVU387
 1546               	.LBB300:
 420:../../LUFA-111009/LUFA/Drivers/USB/Core/AVR8/../AVR8/../AVR8/Endpoint_AVR8.h **** 			}
 1547               		.loc 2 420 5 view .LVU388
 420:../../LUFA-111009/LUFA/Drivers/USB/Core/AVR8/../AVR8/../AVR8/Endpoint_AVR8.h **** 			}
 1548               		.loc 2 420 14 is_stmt 0 view .LVU389
 1549 0048 8091 E800 		lds r24,232
 1550               	.LBE300:
 1551               	.LBE299:
  52:../../LUFA-111009/LUFA/Drivers/USB/Core/AVR8/Template/Template_Endpoint_RW.c **** 		{
 1552               		.loc 3 52 6 view .LVU390
 1553 004c 85FD      		sbrc r24,5
 1554 004e 00C0      		rjmp .L89
  54:../../LUFA-111009/LUFA/Drivers/USB/Core/AVR8/Template/Template_Endpoint_RW.c **** 
 1555               		.loc 3 54 4 is_stmt 1 view .LVU391
 1556               	.LBB301:
 1557               	.LBI301:
 513:../../LUFA-111009/LUFA/Drivers/USB/Core/AVR8/../AVR8/../AVR8/Endpoint_AVR8.h **** 			{
 1558               		.loc 2 513 23 view .LVU392
 1559               	.LBB302:
 516:../../LUFA-111009/LUFA/Drivers/USB/Core/AVR8/../AVR8/../AVR8/Endpoint_AVR8.h **** 				#else
 1560               		.loc 2 516 6 view .LVU393
 516:../../LUFA-111009/LUFA/Drivers/USB/Core/AVR8/../AVR8/../AVR8/Endpoint_AVR8.h **** 				#else
 1561               		.loc 2 516 13 is_stmt 0 view .LVU394
 1562 0050 8091 E800 		lds r24,232
 1563 0054 8E77      		andi r24,lo8(126)
 1564 0056 8093 E800 		sts 232,r24
 1565               	.LBE302:
 1566               	.LBE301:
  57:../../LUFA-111009/LUFA/Drivers/USB/Core/AVR8/Template/Template_Endpoint_RW.c **** 			#endif
 1567               		.loc 3 57 4 is_stmt 1 view .LVU395
 1568 005a 0E94 0000 		call USB_USBTask
 1569               	.LVL140:
  60:../../LUFA-111009/LUFA/Drivers/USB/Core/AVR8/Template/Template_Endpoint_RW.c **** 			{
 1570               		.loc 3 60 4 view .LVU396
  60:../../LUFA-111009/LUFA/Drivers/USB/Core/AVR8/Template/Template_Endpoint_RW.c **** 			{
 1571               		.loc 3 60 7 is_stmt 0 view .LVU397
 1572 005e E114      		cp r14,__zero_reg__
 1573 0060 F104      		cpc r15,__zero_reg__
 1574 0062 01F0      		breq .L90
  62:../../LUFA-111009/LUFA/Drivers/USB/Core/AVR8/Template/Template_Endpoint_RW.c **** 				return ENDPOINT_RWSTREAM_IncompleteTransfer;
 1575               		.loc 3 62 5 is_stmt 1 view .LVU398
  62:../../LUFA-111009/LUFA/Drivers/USB/Core/AVR8/Template/Template_Endpoint_RW.c **** 				return ENDPOINT_RWSTREAM_IncompleteTransfer;
 1576               		.loc 3 62 21 is_stmt 0 view .LVU399
 1577 0064 F701      		movw r30,r14
 1578 0066 8081      		ld r24,Z
 1579 0068 9181      		ldd r25,Z+1
 1580 006a A80E      		add r10,r24
 1581 006c B91E      		adc r11,r25
 1582               	.LVL141:
  62:../../LUFA-111009/LUFA/Drivers/USB/Core/AVR8/Template/Template_Endpoint_RW.c **** 				return ENDPOINT_RWSTREAM_IncompleteTransfer;
 1583               		.loc 3 62 21 view .LVU400
 1584 006e B182      		std Z+1,r11
 1585 0070 A082      		st Z,r10
  63:../../LUFA-111009/LUFA/Drivers/USB/Core/AVR8/Template/Template_Endpoint_RW.c **** 			}
 1586               		.loc 3 63 5 is_stmt 1 view .LVU401
  63:../../LUFA-111009/LUFA/Drivers/USB/Core/AVR8/Template/Template_Endpoint_RW.c **** 			}
 1587               		.loc 3 63 12 is_stmt 0 view .LVU402
 1588 0072 85E0      		ldi r24,lo8(5)
 1589 0074 D82E      		mov r13,r24
 1590               	.LVL142:
 1591               	.L85:
 1592               		.loc 3 79 1 view .LVU403
 1593 0076 8D2D      		mov r24,r13
 1594               	/* epilogue start */
 1595 0078 DF91      		pop r29
 1596 007a CF91      		pop r28
 1597 007c 1F91      		pop r17
 1598 007e 0F91      		pop r16
 1599               	.LVL143:
 1600               		.loc 3 79 1 view .LVU404
 1601 0080 FF90      		pop r15
 1602 0082 EF90      		pop r14
 1603               	.LVL144:
 1604               		.loc 3 79 1 view .LVU405
 1605 0084 DF90      		pop r13
 1606 0086 BF90      		pop r11
 1607 0088 AF90      		pop r10
 1608 008a 0895      		ret
 1609               	.LVL145:
 1610               	.L90:
  66:../../LUFA-111009/LUFA/Drivers/USB/Core/AVR8/Template/Template_Endpoint_RW.c **** 			  return ErrorCode;
 1611               		.loc 3 66 4 is_stmt 1 view .LVU406
  66:../../LUFA-111009/LUFA/Drivers/USB/Core/AVR8/Template/Template_Endpoint_RW.c **** 			  return ErrorCode;
 1612               		.loc 3 66 21 is_stmt 0 view .LVU407
 1613 008c 0E94 0000 		call Endpoint_WaitUntilReady
 1614               	.LVL146:
  66:../../LUFA-111009/LUFA/Drivers/USB/Core/AVR8/Template/Template_Endpoint_RW.c **** 			  return ErrorCode;
 1615               		.loc 3 66 7 view .LVU408
 1616 0090 8823      		tst r24
 1617 0092 01F0      		breq .L88
  66:../../LUFA-111009/LUFA/Drivers/USB/Core/AVR8/Template/Template_Endpoint_RW.c **** 			  return ErrorCode;
 1618               		.loc 3 66 21 view .LVU409
 1619 0094 D82E      		mov r13,r24
 1620 0096 00C0      		rjmp .L85
 1621               	.LVL147:
 1622               	.L89:
  71:../../LUFA-111009/LUFA/Drivers/USB/Core/AVR8/Template/Template_Endpoint_RW.c **** 			TEMPLATE_BUFFER_MOVE(DataStream, 1);
 1623               		.loc 3 71 4 is_stmt 1 view .LVU410
 1624               	.LBB303:
  71:../../LUFA-111009/LUFA/Drivers/USB/Core/AVR8/Template/Template_Endpoint_RW.c **** 			TEMPLATE_BUFFER_MOVE(DataStream, 1);
 1625               		.loc 3 71 4 view .LVU411
  71:../../LUFA-111009/LUFA/Drivers/USB/Core/AVR8/Template/Template_Endpoint_RW.c **** 			TEMPLATE_BUFFER_MOVE(DataStream, 1);
 1626               		.loc 3 71 4 view .LVU412
  71:../../LUFA-111009/LUFA/Drivers/USB/Core/AVR8/Template/Template_Endpoint_RW.c **** 			TEMPLATE_BUFFER_MOVE(DataStream, 1);
 1627               		.loc 3 71 4 view .LVU413
 1628 0098 FE01      		movw r30,r28
 1629               	/* #APP */
 1630               	 ;  71 "../../LUFA-111009/LUFA/Drivers/USB/Core/AVR8/Template/Template_Endpoint_RW.c" 1
 1631 009a 8491      		lpm r24, Z
 1632               		
 1633               	 ;  0 "" 2
 1634               	.LVL148:
  71:../../LUFA-111009/LUFA/Drivers/USB/Core/AVR8/Template/Template_Endpoint_RW.c **** 			TEMPLATE_BUFFER_MOVE(DataStream, 1);
 1635               		.loc 3 71 4 view .LVU414
  71:../../LUFA-111009/LUFA/Drivers/USB/Core/AVR8/Template/Template_Endpoint_RW.c **** 			TEMPLATE_BUFFER_MOVE(DataStream, 1);
 1636               		.loc 3 71 4 is_stmt 0 view .LVU415
 1637               	/* #NOAPP */
 1638               	.LBE303:
 1639               	.LBB304:
 1640               	.LBI304:
 622:../../LUFA-111009/LUFA/Drivers/USB/Core/AVR8/../AVR8/../AVR8/Endpoint_AVR8.h **** 			{
 1641               		.loc 2 622 23 is_stmt 1 view .LVU416
 1642               	.LBB305:
 624:../../LUFA-111009/LUFA/Drivers/USB/Core/AVR8/../AVR8/../AVR8/Endpoint_AVR8.h **** 			}
 1643               		.loc 2 624 5 view .LVU417
 624:../../LUFA-111009/LUFA/Drivers/USB/Core/AVR8/../AVR8/../AVR8/Endpoint_AVR8.h **** 			}
 1644               		.loc 2 624 12 is_stmt 0 view .LVU418
 1645 009c 8093 F100 		sts 241,r24
 1646               	.LVL149:
 624:../../LUFA-111009/LUFA/Drivers/USB/Core/AVR8/../AVR8/../AVR8/Endpoint_AVR8.h **** 			}
 1647               		.loc 2 624 12 view .LVU419
 1648               	.LBE305:
 1649               	.LBE304:
  72:../../LUFA-111009/LUFA/Drivers/USB/Core/AVR8/Template/Template_Endpoint_RW.c **** 			Length--;
 1650               		.loc 3 72 4 is_stmt 1 view .LVU420
 1651 00a0 2197      		sbiw r28,1
 1652               	.LVL150:
  73:../../LUFA-111009/LUFA/Drivers/USB/Core/AVR8/Template/Template_Endpoint_RW.c **** 			BytesInTransfer++;
 1653               		.loc 3 73 4 view .LVU421
  73:../../LUFA-111009/LUFA/Drivers/USB/Core/AVR8/Template/Template_Endpoint_RW.c **** 			BytesInTransfer++;
 1654               		.loc 3 73 10 is_stmt 0 view .LVU422
 1655 00a2 0150      		subi r16,1
 1656 00a4 1109      		sbc r17,__zero_reg__
 1657               	.LVL151:
  74:../../LUFA-111009/LUFA/Drivers/USB/Core/AVR8/Template/Template_Endpoint_RW.c **** 		}
 1658               		.loc 3 74 4 is_stmt 1 view .LVU423
  74:../../LUFA-111009/LUFA/Drivers/USB/Core/AVR8/Template/Template_Endpoint_RW.c **** 		}
 1659               		.loc 3 74 19 is_stmt 0 view .LVU424
 1660 00a6 FFEF      		ldi r31,-1
 1661 00a8 AF1A      		sub r10,r31
 1662 00aa BF0A      		sbc r11,r31
 1663               	.LVL152:
  74:../../LUFA-111009/LUFA/Drivers/USB/Core/AVR8/Template/Template_Endpoint_RW.c **** 		}
 1664               		.loc 3 74 19 view .LVU425
 1665 00ac 00C0      		rjmp .L88
 1666               		.cfi_endproc
 1667               	.LFE88:
 1669               		.section	.text.Endpoint_Write_EStream_LE,"ax",@progbits
 1670               	.global	Endpoint_Write_EStream_LE
 1672               	Endpoint_Write_EStream_LE:
 1673               	.LVL153:
 1674               	.LFB89:
  36:../../LUFA-111009/LUFA/Drivers/USB/Core/AVR8/Template/Template_Endpoint_RW.c **** 	uint8_t* DataStream      = ((uint8_t*)Buffer + TEMPLATE_BUFFER_OFFSET(Length));
 1675               		.loc 3 36 1 is_stmt 1 view -0
 1676               		.cfi_startproc
  36:../../LUFA-111009/LUFA/Drivers/USB/Core/AVR8/Template/Template_Endpoint_RW.c **** 	uint8_t* DataStream      = ((uint8_t*)Buffer + TEMPLATE_BUFFER_OFFSET(Length));
 1677               		.loc 3 36 1 is_stmt 0 view .LVU427
 1678 0000 AF92      		push r10
 1679               	.LCFI68:
 1680               		.cfi_def_cfa_offset 3
 1681               		.cfi_offset 10, -2
 1682 0002 BF92      		push r11
 1683               	.LCFI69:
 1684               		.cfi_def_cfa_offset 4
 1685               		.cfi_offset 11, -3
 1686 0004 DF92      		push r13
 1687               	.LCFI70:
 1688               		.cfi_def_cfa_offset 5
 1689               		.cfi_offset 13, -4
 1690 0006 EF92      		push r14
 1691               	.LCFI71:
 1692               		.cfi_def_cfa_offset 6
 1693               		.cfi_offset 14, -5
 1694 0008 FF92      		push r15
 1695               	.LCFI72:
 1696               		.cfi_def_cfa_offset 7
 1697               		.cfi_offset 15, -6
 1698 000a 0F93      		push r16
 1699               	.LCFI73:
 1700               		.cfi_def_cfa_offset 8
 1701               		.cfi_offset 16, -7
 1702 000c 1F93      		push r17
 1703               	.LCFI74:
 1704               		.cfi_def_cfa_offset 9
 1705               		.cfi_offset 17, -8
 1706 000e CF93      		push r28
 1707               	.LCFI75:
 1708               		.cfi_def_cfa_offset 10
 1709               		.cfi_offset 28, -9
 1710 0010 DF93      		push r29
 1711               	.LCFI76:
 1712               		.cfi_def_cfa_offset 11
 1713               		.cfi_offset 29, -10
 1714               	/* prologue: function */
 1715               	/* frame size = 0 */
 1716               	/* stack size = 9 */
 1717               	.L__stack_usage = 9
 1718 0012 8C01      		movw r16,r24
 1719 0014 EB01      		movw r28,r22
 1720 0016 7A01      		movw r14,r20
  37:../../LUFA-111009/LUFA/Drivers/USB/Core/AVR8/Template/Template_Endpoint_RW.c **** 	uint16_t BytesInTransfer = 0;
 1721               		.loc 3 37 2 is_stmt 1 view .LVU428
 1722               	.LVL154:
  38:../../LUFA-111009/LUFA/Drivers/USB/Core/AVR8/Template/Template_Endpoint_RW.c **** 	uint8_t  ErrorCode;
 1723               		.loc 3 38 2 view .LVU429
  39:../../LUFA-111009/LUFA/Drivers/USB/Core/AVR8/Template/Template_Endpoint_RW.c **** 
 1724               		.loc 3 39 2 view .LVU430
  41:../../LUFA-111009/LUFA/Drivers/USB/Core/AVR8/Template/Template_Endpoint_RW.c **** 	  return ErrorCode;
 1725               		.loc 3 41 2 view .LVU431
  41:../../LUFA-111009/LUFA/Drivers/USB/Core/AVR8/Template/Template_Endpoint_RW.c **** 	  return ErrorCode;
 1726               		.loc 3 41 19 is_stmt 0 view .LVU432
 1727 0018 0E94 0000 		call Endpoint_WaitUntilReady
 1728               	.LVL155:
  41:../../LUFA-111009/LUFA/Drivers/USB/Core/AVR8/Template/Template_Endpoint_RW.c **** 	  return ErrorCode;
 1729               		.loc 3 41 19 view .LVU433
 1730 001c D82E      		mov r13,r24
 1731               	.LVL156:
  41:../../LUFA-111009/LUFA/Drivers/USB/Core/AVR8/Template/Template_Endpoint_RW.c **** 	  return ErrorCode;
 1732               		.loc 3 41 5 view .LVU434
 1733 001e 8111      		cpse r24,__zero_reg__
 1734 0020 00C0      		rjmp .L97
  44:../../LUFA-111009/LUFA/Drivers/USB/Core/AVR8/Template/Template_Endpoint_RW.c **** 	{
 1735               		.loc 3 44 2 is_stmt 1 view .LVU435
  44:../../LUFA-111009/LUFA/Drivers/USB/Core/AVR8/Template/Template_Endpoint_RW.c **** 	{
 1736               		.loc 3 44 5 is_stmt 0 view .LVU436
 1737 0022 E114      		cp r14,__zero_reg__
 1738 0024 F104      		cpc r15,__zero_reg__
 1739 0026 01F0      		breq .L99
  46:../../LUFA-111009/LUFA/Drivers/USB/Core/AVR8/Template/Template_Endpoint_RW.c **** 		TEMPLATE_BUFFER_MOVE(DataStream, *BytesProcessed);
 1740               		.loc 3 46 3 is_stmt 1 view .LVU437
  46:../../LUFA-111009/LUFA/Drivers/USB/Core/AVR8/Template/Template_Endpoint_RW.c **** 		TEMPLATE_BUFFER_MOVE(DataStream, *BytesProcessed);
 1741               		.loc 3 46 13 is_stmt 0 view .LVU438
 1742 0028 F701      		movw r30,r14
 1743 002a 8081      		ld r24,Z
 1744 002c 9181      		ldd r25,Z+1
  46:../../LUFA-111009/LUFA/Drivers/USB/Core/AVR8/Template/Template_Endpoint_RW.c **** 		TEMPLATE_BUFFER_MOVE(DataStream, *BytesProcessed);
 1745               		.loc 3 46 10 view .LVU439
 1746 002e C81B      		sub r28,r24
 1747 0030 D90B      		sbc r29,r25
 1748               	.LVL157:
  47:../../LUFA-111009/LUFA/Drivers/USB/Core/AVR8/Template/Template_Endpoint_RW.c **** 	}
 1749               		.loc 3 47 3 is_stmt 1 view .LVU440
 1750 0032 080F      		add r16,r24
 1751 0034 191F      		adc r17,r25
 1752               	.LVL158:
 1753               	.L99:
  36:../../LUFA-111009/LUFA/Drivers/USB/Core/AVR8/Template/Template_Endpoint_RW.c **** 	uint8_t* DataStream      = ((uint8_t*)Buffer + TEMPLATE_BUFFER_OFFSET(Length));
 1754               		.loc 3 36 1 is_stmt 0 view .LVU441
 1755 0036 B12C      		mov r11,__zero_reg__
 1756 0038 A12C      		mov r10,__zero_reg__
 1757               	.LVL159:
 1758               	.L100:
  50:../../LUFA-111009/LUFA/Drivers/USB/Core/AVR8/Template/Template_Endpoint_RW.c **** 	{
 1759               		.loc 3 50 8 is_stmt 1 view .LVU442
 1760 003a 2097      		sbiw r28,0
 1761 003c 01F0      		breq .L97
  52:../../LUFA-111009/LUFA/Drivers/USB/Core/AVR8/Template/Template_Endpoint_RW.c **** 		{
 1762               		.loc 3 52 3 view .LVU443
 1763               	.LBB306:
 1764               	.LBI306:
 418:../../LUFA-111009/LUFA/Drivers/USB/Core/AVR8/../AVR8/../AVR8/Endpoint_AVR8.h **** 			{
 1765               		.loc 2 418 23 view .LVU444
 1766               	.LBB307:
 420:../../LUFA-111009/LUFA/Drivers/USB/Core/AVR8/../AVR8/../AVR8/Endpoint_AVR8.h **** 			}
 1767               		.loc 2 420 5 view .LVU445
 420:../../LUFA-111009/LUFA/Drivers/USB/Core/AVR8/../AVR8/../AVR8/Endpoint_AVR8.h **** 			}
 1768               		.loc 2 420 14 is_stmt 0 view .LVU446
 1769 003e 8091 E800 		lds r24,232
 1770               	.LBE307:
 1771               	.LBE306:
  52:../../LUFA-111009/LUFA/Drivers/USB/Core/AVR8/Template/Template_Endpoint_RW.c **** 		{
 1772               		.loc 3 52 6 view .LVU447
 1773 0042 85FD      		sbrc r24,5
 1774 0044 00C0      		rjmp .L101
  54:../../LUFA-111009/LUFA/Drivers/USB/Core/AVR8/Template/Template_Endpoint_RW.c **** 
 1775               		.loc 3 54 4 is_stmt 1 view .LVU448
 1776               	.LBB308:
 1777               	.LBI308:
 513:../../LUFA-111009/LUFA/Drivers/USB/Core/AVR8/../AVR8/../AVR8/Endpoint_AVR8.h **** 			{
 1778               		.loc 2 513 23 view .LVU449
 1779               	.LBB309:
 516:../../LUFA-111009/LUFA/Drivers/USB/Core/AVR8/../AVR8/../AVR8/Endpoint_AVR8.h **** 				#else
 1780               		.loc 2 516 6 view .LVU450
 516:../../LUFA-111009/LUFA/Drivers/USB/Core/AVR8/../AVR8/../AVR8/Endpoint_AVR8.h **** 				#else
 1781               		.loc 2 516 13 is_stmt 0 view .LVU451
 1782 0046 8091 E800 		lds r24,232
 1783 004a 8E77      		andi r24,lo8(126)
 1784 004c 8093 E800 		sts 232,r24
 1785               	.LBE309:
 1786               	.LBE308:
  57:../../LUFA-111009/LUFA/Drivers/USB/Core/AVR8/Template/Template_Endpoint_RW.c **** 			#endif
 1787               		.loc 3 57 4 is_stmt 1 view .LVU452
 1788 0050 0E94 0000 		call USB_USBTask
 1789               	.LVL160:
  60:../../LUFA-111009/LUFA/Drivers/USB/Core/AVR8/Template/Template_Endpoint_RW.c **** 			{
 1790               		.loc 3 60 4 view .LVU453
  60:../../LUFA-111009/LUFA/Drivers/USB/Core/AVR8/Template/Template_Endpoint_RW.c **** 			{
 1791               		.loc 3 60 7 is_stmt 0 view .LVU454
 1792 0054 E114      		cp r14,__zero_reg__
 1793 0056 F104      		cpc r15,__zero_reg__
 1794 0058 01F0      		breq .L102
  62:../../LUFA-111009/LUFA/Drivers/USB/Core/AVR8/Template/Template_Endpoint_RW.c **** 				return ENDPOINT_RWSTREAM_IncompleteTransfer;
 1795               		.loc 3 62 5 is_stmt 1 view .LVU455
  62:../../LUFA-111009/LUFA/Drivers/USB/Core/AVR8/Template/Template_Endpoint_RW.c **** 				return ENDPOINT_RWSTREAM_IncompleteTransfer;
 1796               		.loc 3 62 21 is_stmt 0 view .LVU456
 1797 005a F701      		movw r30,r14
 1798 005c 8081      		ld r24,Z
 1799 005e 9181      		ldd r25,Z+1
 1800 0060 A80E      		add r10,r24
 1801 0062 B91E      		adc r11,r25
 1802               	.LVL161:
  62:../../LUFA-111009/LUFA/Drivers/USB/Core/AVR8/Template/Template_Endpoint_RW.c **** 				return ENDPOINT_RWSTREAM_IncompleteTransfer;
 1803               		.loc 3 62 21 view .LVU457
 1804 0064 B182      		std Z+1,r11
 1805 0066 A082      		st Z,r10
  63:../../LUFA-111009/LUFA/Drivers/USB/Core/AVR8/Template/Template_Endpoint_RW.c **** 			}
 1806               		.loc 3 63 5 is_stmt 1 view .LVU458
  63:../../LUFA-111009/LUFA/Drivers/USB/Core/AVR8/Template/Template_Endpoint_RW.c **** 			}
 1807               		.loc 3 63 12 is_stmt 0 view .LVU459
 1808 0068 85E0      		ldi r24,lo8(5)
 1809 006a D82E      		mov r13,r24
 1810               	.L97:
 1811               		.loc 3 79 1 view .LVU460
 1812 006c 8D2D      		mov r24,r13
 1813               	/* epilogue start */
 1814 006e DF91      		pop r29
 1815 0070 CF91      		pop r28
 1816               	.LVL162:
 1817               		.loc 3 79 1 view .LVU461
 1818 0072 1F91      		pop r17
 1819 0074 0F91      		pop r16
 1820               	.LVL163:
 1821               		.loc 3 79 1 view .LVU462
 1822 0076 FF90      		pop r15
 1823 0078 EF90      		pop r14
 1824               	.LVL164:
 1825               		.loc 3 79 1 view .LVU463
 1826 007a DF90      		pop r13
 1827 007c BF90      		pop r11
 1828 007e AF90      		pop r10
 1829 0080 0895      		ret
 1830               	.LVL165:
 1831               	.L102:
  66:../../LUFA-111009/LUFA/Drivers/USB/Core/AVR8/Template/Template_Endpoint_RW.c **** 			  return ErrorCode;
 1832               		.loc 3 66 4 is_stmt 1 view .LVU464
  66:../../LUFA-111009/LUFA/Drivers/USB/Core/AVR8/Template/Template_Endpoint_RW.c **** 			  return ErrorCode;
 1833               		.loc 3 66 21 is_stmt 0 view .LVU465
 1834 0082 0E94 0000 		call Endpoint_WaitUntilReady
 1835               	.LVL166:
  66:../../LUFA-111009/LUFA/Drivers/USB/Core/AVR8/Template/Template_Endpoint_RW.c **** 			  return ErrorCode;
 1836               		.loc 3 66 7 view .LVU466
 1837 0086 8823      		tst r24
 1838 0088 01F0      		breq .L100
  66:../../LUFA-111009/LUFA/Drivers/USB/Core/AVR8/Template/Template_Endpoint_RW.c **** 			  return ErrorCode;
 1839               		.loc 3 66 21 view .LVU467
 1840 008a D82E      		mov r13,r24
 1841 008c 00C0      		rjmp .L97
 1842               	.LVL167:
 1843               	.L101:
  71:../../LUFA-111009/LUFA/Drivers/USB/Core/AVR8/Template/Template_Endpoint_RW.c **** 			TEMPLATE_BUFFER_MOVE(DataStream, 1);
 1844               		.loc 3 71 4 is_stmt 1 view .LVU468
 1845 008e C801      		movw r24,r16
 1846 0090 0E94 0000 		call eeprom_read_byte
 1847               	.LVL168:
 1848               	.LBB310:
 1849               	.LBI310:
 622:../../LUFA-111009/LUFA/Drivers/USB/Core/AVR8/../AVR8/../AVR8/Endpoint_AVR8.h **** 			{
 1850               		.loc 2 622 23 view .LVU469
 1851               	.LBB311:
 624:../../LUFA-111009/LUFA/Drivers/USB/Core/AVR8/../AVR8/../AVR8/Endpoint_AVR8.h **** 			}
 1852               		.loc 2 624 5 view .LVU470
 624:../../LUFA-111009/LUFA/Drivers/USB/Core/AVR8/../AVR8/../AVR8/Endpoint_AVR8.h **** 			}
 1853               		.loc 2 624 12 is_stmt 0 view .LVU471
 1854 0094 8093 F100 		sts 241,r24
 1855               	.LVL169:
 624:../../LUFA-111009/LUFA/Drivers/USB/Core/AVR8/../AVR8/../AVR8/Endpoint_AVR8.h **** 			}
 1856               		.loc 2 624 12 view .LVU472
 1857               	.LBE311:
 1858               	.LBE310:
  72:../../LUFA-111009/LUFA/Drivers/USB/Core/AVR8/Template/Template_Endpoint_RW.c **** 			Length--;
 1859               		.loc 3 72 4 is_stmt 1 view .LVU473
 1860 0098 0F5F      		subi r16,-1
 1861 009a 1F4F      		sbci r17,-1
 1862               	.LVL170:
  73:../../LUFA-111009/LUFA/Drivers/USB/Core/AVR8/Template/Template_Endpoint_RW.c **** 			BytesInTransfer++;
 1863               		.loc 3 73 4 view .LVU474
  73:../../LUFA-111009/LUFA/Drivers/USB/Core/AVR8/Template/Template_Endpoint_RW.c **** 			BytesInTransfer++;
 1864               		.loc 3 73 10 is_stmt 0 view .LVU475
 1865 009c 2197      		sbiw r28,1
 1866               	.LVL171:
  74:../../LUFA-111009/LUFA/Drivers/USB/Core/AVR8/Template/Template_Endpoint_RW.c **** 		}
 1867               		.loc 3 74 4 is_stmt 1 view .LVU476
  74:../../LUFA-111009/LUFA/Drivers/USB/Core/AVR8/Template/Template_Endpoint_RW.c **** 		}
 1868               		.loc 3 74 19 is_stmt 0 view .LVU477
 1869 009e FFEF      		ldi r31,-1
 1870 00a0 AF1A      		sub r10,r31
 1871 00a2 BF0A      		sbc r11,r31
 1872               	.LVL172:
  74:../../LUFA-111009/LUFA/Drivers/USB/Core/AVR8/Template/Template_Endpoint_RW.c **** 		}
 1873               		.loc 3 74 19 view .LVU478
 1874 00a4 00C0      		rjmp .L100
 1875               		.cfi_endproc
 1876               	.LFE89:
 1878               		.section	.text.Endpoint_Write_EStream_BE,"ax",@progbits
 1879               	.global	Endpoint_Write_EStream_BE
 1881               	Endpoint_Write_EStream_BE:
 1882               	.LVL173:
 1883               	.LFB90:
  36:../../LUFA-111009/LUFA/Drivers/USB/Core/AVR8/Template/Template_Endpoint_RW.c **** 	uint8_t* DataStream      = ((uint8_t*)Buffer + TEMPLATE_BUFFER_OFFSET(Length));
 1884               		.loc 3 36 1 is_stmt 1 view -0
 1885               		.cfi_startproc
  36:../../LUFA-111009/LUFA/Drivers/USB/Core/AVR8/Template/Template_Endpoint_RW.c **** 	uint8_t* DataStream      = ((uint8_t*)Buffer + TEMPLATE_BUFFER_OFFSET(Length));
 1886               		.loc 3 36 1 is_stmt 0 view .LVU480
 1887 0000 AF92      		push r10
 1888               	.LCFI77:
 1889               		.cfi_def_cfa_offset 3
 1890               		.cfi_offset 10, -2
 1891 0002 BF92      		push r11
 1892               	.LCFI78:
 1893               		.cfi_def_cfa_offset 4
 1894               		.cfi_offset 11, -3
 1895 0004 DF92      		push r13
 1896               	.LCFI79:
 1897               		.cfi_def_cfa_offset 5
 1898               		.cfi_offset 13, -4
 1899 0006 EF92      		push r14
 1900               	.LCFI80:
 1901               		.cfi_def_cfa_offset 6
 1902               		.cfi_offset 14, -5
 1903 0008 FF92      		push r15
 1904               	.LCFI81:
 1905               		.cfi_def_cfa_offset 7
 1906               		.cfi_offset 15, -6
 1907 000a 0F93      		push r16
 1908               	.LCFI82:
 1909               		.cfi_def_cfa_offset 8
 1910               		.cfi_offset 16, -7
 1911 000c 1F93      		push r17
 1912               	.LCFI83:
 1913               		.cfi_def_cfa_offset 9
 1914               		.cfi_offset 17, -8
 1915 000e CF93      		push r28
 1916               	.LCFI84:
 1917               		.cfi_def_cfa_offset 10
 1918               		.cfi_offset 28, -9
 1919 0010 DF93      		push r29
 1920               	.LCFI85:
 1921               		.cfi_def_cfa_offset 11
 1922               		.cfi_offset 29, -10
 1923               	/* prologue: function */
 1924               	/* frame size = 0 */
 1925               	/* stack size = 9 */
 1926               	.L__stack_usage = 9
 1927 0012 EC01      		movw r28,r24
 1928 0014 8B01      		movw r16,r22
 1929 0016 7A01      		movw r14,r20
  37:../../LUFA-111009/LUFA/Drivers/USB/Core/AVR8/Template/Template_Endpoint_RW.c **** 	uint16_t BytesInTransfer = 0;
 1930               		.loc 3 37 2 is_stmt 1 view .LVU481
 1931               	.LVL174:
  38:../../LUFA-111009/LUFA/Drivers/USB/Core/AVR8/Template/Template_Endpoint_RW.c **** 	uint8_t  ErrorCode;
 1932               		.loc 3 38 2 view .LVU482
  39:../../LUFA-111009/LUFA/Drivers/USB/Core/AVR8/Template/Template_Endpoint_RW.c **** 
 1933               		.loc 3 39 2 view .LVU483
  41:../../LUFA-111009/LUFA/Drivers/USB/Core/AVR8/Template/Template_Endpoint_RW.c **** 	  return ErrorCode;
 1934               		.loc 3 41 2 view .LVU484
  41:../../LUFA-111009/LUFA/Drivers/USB/Core/AVR8/Template/Template_Endpoint_RW.c **** 	  return ErrorCode;
 1935               		.loc 3 41 19 is_stmt 0 view .LVU485
 1936 0018 0E94 0000 		call Endpoint_WaitUntilReady
 1937               	.LVL175:
  41:../../LUFA-111009/LUFA/Drivers/USB/Core/AVR8/Template/Template_Endpoint_RW.c **** 	  return ErrorCode;
 1938               		.loc 3 41 19 view .LVU486
 1939 001c D82E      		mov r13,r24
 1940               	.LVL176:
  41:../../LUFA-111009/LUFA/Drivers/USB/Core/AVR8/Template/Template_Endpoint_RW.c **** 	  return ErrorCode;
 1941               		.loc 3 41 5 view .LVU487
 1942 001e 8111      		cpse r24,__zero_reg__
 1943 0020 00C0      		rjmp .L109
  37:../../LUFA-111009/LUFA/Drivers/USB/Core/AVR8/Template/Template_Endpoint_RW.c **** 	uint16_t BytesInTransfer = 0;
 1944               		.loc 3 37 47 view .LVU488
 1945 0022 C801      		movw r24,r16
 1946 0024 0197      		sbiw r24,1
 1947               	.LVL177:
  37:../../LUFA-111009/LUFA/Drivers/USB/Core/AVR8/Template/Template_Endpoint_RW.c **** 	uint16_t BytesInTransfer = 0;
 1948               		.loc 3 37 11 view .LVU489
 1949 0026 C80F      		add r28,r24
 1950 0028 D91F      		adc r29,r25
 1951               	.LVL178:
  44:../../LUFA-111009/LUFA/Drivers/USB/Core/AVR8/Template/Template_Endpoint_RW.c **** 	{
 1952               		.loc 3 44 2 is_stmt 1 view .LVU490
  44:../../LUFA-111009/LUFA/Drivers/USB/Core/AVR8/Template/Template_Endpoint_RW.c **** 	{
 1953               		.loc 3 44 5 is_stmt 0 view .LVU491
 1954 002a E114      		cp r14,__zero_reg__
 1955 002c F104      		cpc r15,__zero_reg__
 1956 002e 01F0      		breq .L111
  46:../../LUFA-111009/LUFA/Drivers/USB/Core/AVR8/Template/Template_Endpoint_RW.c **** 		TEMPLATE_BUFFER_MOVE(DataStream, *BytesProcessed);
 1957               		.loc 3 46 3 is_stmt 1 view .LVU492
  46:../../LUFA-111009/LUFA/Drivers/USB/Core/AVR8/Template/Template_Endpoint_RW.c **** 		TEMPLATE_BUFFER_MOVE(DataStream, *BytesProcessed);
 1958               		.loc 3 46 13 is_stmt 0 view .LVU493
 1959 0030 F701      		movw r30,r14
 1960 0032 8081      		ld r24,Z
 1961 0034 9181      		ldd r25,Z+1
 1962               	.LVL179:
  46:../../LUFA-111009/LUFA/Drivers/USB/Core/AVR8/Template/Template_Endpoint_RW.c **** 		TEMPLATE_BUFFER_MOVE(DataStream, *BytesProcessed);
 1963               		.loc 3 46 10 view .LVU494
 1964 0036 081B      		sub r16,r24
 1965 0038 190B      		sbc r17,r25
 1966               	.LVL180:
  47:../../LUFA-111009/LUFA/Drivers/USB/Core/AVR8/Template/Template_Endpoint_RW.c **** 	}
 1967               		.loc 3 47 3 is_stmt 1 view .LVU495
 1968 003a C81B      		sub r28,r24
 1969 003c D90B      		sbc r29,r25
 1970               	.LVL181:
 1971               	.L111:
  36:../../LUFA-111009/LUFA/Drivers/USB/Core/AVR8/Template/Template_Endpoint_RW.c **** 	uint8_t* DataStream      = ((uint8_t*)Buffer + TEMPLATE_BUFFER_OFFSET(Length));
 1972               		.loc 3 36 1 is_stmt 0 view .LVU496
 1973 003e B12C      		mov r11,__zero_reg__
 1974 0040 A12C      		mov r10,__zero_reg__
 1975               	.LVL182:
 1976               	.L112:
  50:../../LUFA-111009/LUFA/Drivers/USB/Core/AVR8/Template/Template_Endpoint_RW.c **** 	{
 1977               		.loc 3 50 8 is_stmt 1 view .LVU497
 1978 0042 0115      		cp r16,__zero_reg__
 1979 0044 1105      		cpc r17,__zero_reg__
 1980 0046 01F0      		breq .L109
  52:../../LUFA-111009/LUFA/Drivers/USB/Core/AVR8/Template/Template_Endpoint_RW.c **** 		{
 1981               		.loc 3 52 3 view .LVU498
 1982               	.LBB312:
 1983               	.LBI312:
 418:../../LUFA-111009/LUFA/Drivers/USB/Core/AVR8/../AVR8/../AVR8/Endpoint_AVR8.h **** 			{
 1984               		.loc 2 418 23 view .LVU499
 1985               	.LBB313:
 420:../../LUFA-111009/LUFA/Drivers/USB/Core/AVR8/../AVR8/../AVR8/Endpoint_AVR8.h **** 			}
 1986               		.loc 2 420 5 view .LVU500
 420:../../LUFA-111009/LUFA/Drivers/USB/Core/AVR8/../AVR8/../AVR8/Endpoint_AVR8.h **** 			}
 1987               		.loc 2 420 14 is_stmt 0 view .LVU501
 1988 0048 8091 E800 		lds r24,232
 1989               	.LBE313:
 1990               	.LBE312:
  52:../../LUFA-111009/LUFA/Drivers/USB/Core/AVR8/Template/Template_Endpoint_RW.c **** 		{
 1991               		.loc 3 52 6 view .LVU502
 1992 004c 85FD      		sbrc r24,5
 1993 004e 00C0      		rjmp .L113
  54:../../LUFA-111009/LUFA/Drivers/USB/Core/AVR8/Template/Template_Endpoint_RW.c **** 
 1994               		.loc 3 54 4 is_stmt 1 view .LVU503
 1995               	.LBB314:
 1996               	.LBI314:
 513:../../LUFA-111009/LUFA/Drivers/USB/Core/AVR8/../AVR8/../AVR8/Endpoint_AVR8.h **** 			{
 1997               		.loc 2 513 23 view .LVU504
 1998               	.LBB315:
 516:../../LUFA-111009/LUFA/Drivers/USB/Core/AVR8/../AVR8/../AVR8/Endpoint_AVR8.h **** 				#else
 1999               		.loc 2 516 6 view .LVU505
 516:../../LUFA-111009/LUFA/Drivers/USB/Core/AVR8/../AVR8/../AVR8/Endpoint_AVR8.h **** 				#else
 2000               		.loc 2 516 13 is_stmt 0 view .LVU506
 2001 0050 8091 E800 		lds r24,232
 2002 0054 8E77      		andi r24,lo8(126)
 2003 0056 8093 E800 		sts 232,r24
 2004               	.LBE315:
 2005               	.LBE314:
  57:../../LUFA-111009/LUFA/Drivers/USB/Core/AVR8/Template/Template_Endpoint_RW.c **** 			#endif
 2006               		.loc 3 57 4 is_stmt 1 view .LVU507
 2007 005a 0E94 0000 		call USB_USBTask
 2008               	.LVL183:
  60:../../LUFA-111009/LUFA/Drivers/USB/Core/AVR8/Template/Template_Endpoint_RW.c **** 			{
 2009               		.loc 3 60 4 view .LVU508
  60:../../LUFA-111009/LUFA/Drivers/USB/Core/AVR8/Template/Template_Endpoint_RW.c **** 			{
 2010               		.loc 3 60 7 is_stmt 0 view .LVU509
 2011 005e E114      		cp r14,__zero_reg__
 2012 0060 F104      		cpc r15,__zero_reg__
 2013 0062 01F0      		breq .L114
  62:../../LUFA-111009/LUFA/Drivers/USB/Core/AVR8/Template/Template_Endpoint_RW.c **** 				return ENDPOINT_RWSTREAM_IncompleteTransfer;
 2014               		.loc 3 62 5 is_stmt 1 view .LVU510
  62:../../LUFA-111009/LUFA/Drivers/USB/Core/AVR8/Template/Template_Endpoint_RW.c **** 				return ENDPOINT_RWSTREAM_IncompleteTransfer;
 2015               		.loc 3 62 21 is_stmt 0 view .LVU511
 2016 0064 F701      		movw r30,r14
 2017 0066 8081      		ld r24,Z
 2018 0068 9181      		ldd r25,Z+1
 2019 006a A80E      		add r10,r24
 2020 006c B91E      		adc r11,r25
 2021               	.LVL184:
  62:../../LUFA-111009/LUFA/Drivers/USB/Core/AVR8/Template/Template_Endpoint_RW.c **** 				return ENDPOINT_RWSTREAM_IncompleteTransfer;
 2022               		.loc 3 62 21 view .LVU512
 2023 006e B182      		std Z+1,r11
 2024 0070 A082      		st Z,r10
  63:../../LUFA-111009/LUFA/Drivers/USB/Core/AVR8/Template/Template_Endpoint_RW.c **** 			}
 2025               		.loc 3 63 5 is_stmt 1 view .LVU513
  63:../../LUFA-111009/LUFA/Drivers/USB/Core/AVR8/Template/Template_Endpoint_RW.c **** 			}
 2026               		.loc 3 63 12 is_stmt 0 view .LVU514
 2027 0072 85E0      		ldi r24,lo8(5)
 2028 0074 D82E      		mov r13,r24
 2029               	.LVL185:
 2030               	.L109:
 2031               		.loc 3 79 1 view .LVU515
 2032 0076 8D2D      		mov r24,r13
 2033               	/* epilogue start */
 2034 0078 DF91      		pop r29
 2035 007a CF91      		pop r28
 2036 007c 1F91      		pop r17
 2037 007e 0F91      		pop r16
 2038               	.LVL186:
 2039               		.loc 3 79 1 view .LVU516
 2040 0080 FF90      		pop r15
 2041 0082 EF90      		pop r14
 2042               	.LVL187:
 2043               		.loc 3 79 1 view .LVU517
 2044 0084 DF90      		pop r13
 2045 0086 BF90      		pop r11
 2046 0088 AF90      		pop r10
 2047 008a 0895      		ret
 2048               	.LVL188:
 2049               	.L114:
  66:../../LUFA-111009/LUFA/Drivers/USB/Core/AVR8/Template/Template_Endpoint_RW.c **** 			  return ErrorCode;
 2050               		.loc 3 66 4 is_stmt 1 view .LVU518
  66:../../LUFA-111009/LUFA/Drivers/USB/Core/AVR8/Template/Template_Endpoint_RW.c **** 			  return ErrorCode;
 2051               		.loc 3 66 21 is_stmt 0 view .LVU519
 2052 008c 0E94 0000 		call Endpoint_WaitUntilReady
 2053               	.LVL189:
  66:../../LUFA-111009/LUFA/Drivers/USB/Core/AVR8/Template/Template_Endpoint_RW.c **** 			  return ErrorCode;
 2054               		.loc 3 66 7 view .LVU520
 2055 0090 8823      		tst r24
 2056 0092 01F0      		breq .L112
  66:../../LUFA-111009/LUFA/Drivers/USB/Core/AVR8/Template/Template_Endpoint_RW.c **** 			  return ErrorCode;
 2057               		.loc 3 66 21 view .LVU521
 2058 0094 D82E      		mov r13,r24
 2059 0096 00C0      		rjmp .L109
 2060               	.LVL190:
 2061               	.L113:
  71:../../LUFA-111009/LUFA/Drivers/USB/Core/AVR8/Template/Template_Endpoint_RW.c **** 			TEMPLATE_BUFFER_MOVE(DataStream, 1);
 2062               		.loc 3 71 4 is_stmt 1 view .LVU522
 2063 0098 CE01      		movw r24,r28
 2064 009a 0E94 0000 		call eeprom_read_byte
 2065               	.LVL191:
 2066               	.LBB316:
 2067               	.LBI316:
 622:../../LUFA-111009/LUFA/Drivers/USB/Core/AVR8/../AVR8/../AVR8/Endpoint_AVR8.h **** 			{
 2068               		.loc 2 622 23 view .LVU523
 2069               	.LBB317:
 624:../../LUFA-111009/LUFA/Drivers/USB/Core/AVR8/../AVR8/../AVR8/Endpoint_AVR8.h **** 			}
 2070               		.loc 2 624 5 view .LVU524
 624:../../LUFA-111009/LUFA/Drivers/USB/Core/AVR8/../AVR8/../AVR8/Endpoint_AVR8.h **** 			}
 2071               		.loc 2 624 12 is_stmt 0 view .LVU525
 2072 009e 8093 F100 		sts 241,r24
 2073               	.LVL192:
 624:../../LUFA-111009/LUFA/Drivers/USB/Core/AVR8/../AVR8/../AVR8/Endpoint_AVR8.h **** 			}
 2074               		.loc 2 624 12 view .LVU526
 2075               	.LBE317:
 2076               	.LBE316:
  72:../../LUFA-111009/LUFA/Drivers/USB/Core/AVR8/Template/Template_Endpoint_RW.c **** 			Length--;
 2077               		.loc 3 72 4 is_stmt 1 view .LVU527
 2078 00a2 2197      		sbiw r28,1
 2079               	.LVL193:
  73:../../LUFA-111009/LUFA/Drivers/USB/Core/AVR8/Template/Template_Endpoint_RW.c **** 			BytesInTransfer++;
 2080               		.loc 3 73 4 view .LVU528
  73:../../LUFA-111009/LUFA/Drivers/USB/Core/AVR8/Template/Template_Endpoint_RW.c **** 			BytesInTransfer++;
 2081               		.loc 3 73 10 is_stmt 0 view .LVU529
 2082 00a4 0150      		subi r16,1
 2083 00a6 1109      		sbc r17,__zero_reg__
 2084               	.LVL194:
  74:../../LUFA-111009/LUFA/Drivers/USB/Core/AVR8/Template/Template_Endpoint_RW.c **** 		}
 2085               		.loc 3 74 4 is_stmt 1 view .LVU530
  74:../../LUFA-111009/LUFA/Drivers/USB/Core/AVR8/Template/Template_Endpoint_RW.c **** 		}
 2086               		.loc 3 74 19 is_stmt 0 view .LVU531
 2087 00a8 FFEF      		ldi r31,-1
 2088 00aa AF1A      		sub r10,r31
 2089 00ac BF0A      		sbc r11,r31
 2090               	.LVL195:
  74:../../LUFA-111009/LUFA/Drivers/USB/Core/AVR8/Template/Template_Endpoint_RW.c **** 		}
 2091               		.loc 3 74 19 view .LVU532
 2092 00ae 00C0      		rjmp .L112
 2093               		.cfi_endproc
 2094               	.LFE90:
 2096               		.section	.text.Endpoint_Read_EStream_LE,"ax",@progbits
 2097               	.global	Endpoint_Read_EStream_LE
 2099               	Endpoint_Read_EStream_LE:
 2100               	.LVL196:
 2101               	.LFB91:
  36:../../LUFA-111009/LUFA/Drivers/USB/Core/AVR8/Template/Template_Endpoint_RW.c **** 	uint8_t* DataStream      = ((uint8_t*)Buffer + TEMPLATE_BUFFER_OFFSET(Length));
 2102               		.loc 3 36 1 is_stmt 1 view -0
 2103               		.cfi_startproc
  36:../../LUFA-111009/LUFA/Drivers/USB/Core/AVR8/Template/Template_Endpoint_RW.c **** 	uint8_t* DataStream      = ((uint8_t*)Buffer + TEMPLATE_BUFFER_OFFSET(Length));
 2104               		.loc 3 36 1 is_stmt 0 view .LVU534
 2105 0000 AF92      		push r10
 2106               	.LCFI86:
 2107               		.cfi_def_cfa_offset 3
 2108               		.cfi_offset 10, -2
 2109 0002 BF92      		push r11
 2110               	.LCFI87:
 2111               		.cfi_def_cfa_offset 4
 2112               		.cfi_offset 11, -3
 2113 0004 DF92      		push r13
 2114               	.LCFI88:
 2115               		.cfi_def_cfa_offset 5
 2116               		.cfi_offset 13, -4
 2117 0006 EF92      		push r14
 2118               	.LCFI89:
 2119               		.cfi_def_cfa_offset 6
 2120               		.cfi_offset 14, -5
 2121 0008 FF92      		push r15
 2122               	.LCFI90:
 2123               		.cfi_def_cfa_offset 7
 2124               		.cfi_offset 15, -6
 2125 000a 0F93      		push r16
 2126               	.LCFI91:
 2127               		.cfi_def_cfa_offset 8
 2128               		.cfi_offset 16, -7
 2129 000c 1F93      		push r17
 2130               	.LCFI92:
 2131               		.cfi_def_cfa_offset 9
 2132               		.cfi_offset 17, -8
 2133 000e CF93      		push r28
 2134               	.LCFI93:
 2135               		.cfi_def_cfa_offset 10
 2136               		.cfi_offset 28, -9
 2137 0010 DF93      		push r29
 2138               	.LCFI94:
 2139               		.cfi_def_cfa_offset 11
 2140               		.cfi_offset 29, -10
 2141               	/* prologue: function */
 2142               	/* frame size = 0 */
 2143               	/* stack size = 9 */
 2144               	.L__stack_usage = 9
 2145 0012 8C01      		movw r16,r24
 2146 0014 EB01      		movw r28,r22
 2147 0016 7A01      		movw r14,r20
  37:../../LUFA-111009/LUFA/Drivers/USB/Core/AVR8/Template/Template_Endpoint_RW.c **** 	uint16_t BytesInTransfer = 0;
 2148               		.loc 3 37 2 is_stmt 1 view .LVU535
 2149               	.LVL197:
  38:../../LUFA-111009/LUFA/Drivers/USB/Core/AVR8/Template/Template_Endpoint_RW.c **** 	uint8_t  ErrorCode;
 2150               		.loc 3 38 2 view .LVU536
  39:../../LUFA-111009/LUFA/Drivers/USB/Core/AVR8/Template/Template_Endpoint_RW.c **** 
 2151               		.loc 3 39 2 view .LVU537
  41:../../LUFA-111009/LUFA/Drivers/USB/Core/AVR8/Template/Template_Endpoint_RW.c **** 	  return ErrorCode;
 2152               		.loc 3 41 2 view .LVU538
  41:../../LUFA-111009/LUFA/Drivers/USB/Core/AVR8/Template/Template_Endpoint_RW.c **** 	  return ErrorCode;
 2153               		.loc 3 41 19 is_stmt 0 view .LVU539
 2154 0018 0E94 0000 		call Endpoint_WaitUntilReady
 2155               	.LVL198:
  41:../../LUFA-111009/LUFA/Drivers/USB/Core/AVR8/Template/Template_Endpoint_RW.c **** 	  return ErrorCode;
 2156               		.loc 3 41 19 view .LVU540
 2157 001c D82E      		mov r13,r24
 2158               	.LVL199:
  41:../../LUFA-111009/LUFA/Drivers/USB/Core/AVR8/Template/Template_Endpoint_RW.c **** 	  return ErrorCode;
 2159               		.loc 3 41 5 view .LVU541
 2160 001e 8111      		cpse r24,__zero_reg__
 2161 0020 00C0      		rjmp .L121
  44:../../LUFA-111009/LUFA/Drivers/USB/Core/AVR8/Template/Template_Endpoint_RW.c **** 	{
 2162               		.loc 3 44 2 is_stmt 1 view .LVU542
  44:../../LUFA-111009/LUFA/Drivers/USB/Core/AVR8/Template/Template_Endpoint_RW.c **** 	{
 2163               		.loc 3 44 5 is_stmt 0 view .LVU543
 2164 0022 E114      		cp r14,__zero_reg__
 2165 0024 F104      		cpc r15,__zero_reg__
 2166 0026 01F0      		breq .L123
  46:../../LUFA-111009/LUFA/Drivers/USB/Core/AVR8/Template/Template_Endpoint_RW.c **** 		TEMPLATE_BUFFER_MOVE(DataStream, *BytesProcessed);
 2167               		.loc 3 46 3 is_stmt 1 view .LVU544
  46:../../LUFA-111009/LUFA/Drivers/USB/Core/AVR8/Template/Template_Endpoint_RW.c **** 		TEMPLATE_BUFFER_MOVE(DataStream, *BytesProcessed);
 2168               		.loc 3 46 13 is_stmt 0 view .LVU545
 2169 0028 F701      		movw r30,r14
 2170 002a 8081      		ld r24,Z
 2171 002c 9181      		ldd r25,Z+1
  46:../../LUFA-111009/LUFA/Drivers/USB/Core/AVR8/Template/Template_Endpoint_RW.c **** 		TEMPLATE_BUFFER_MOVE(DataStream, *BytesProcessed);
 2172               		.loc 3 46 10 view .LVU546
 2173 002e C81B      		sub r28,r24
 2174 0030 D90B      		sbc r29,r25
 2175               	.LVL200:
  47:../../LUFA-111009/LUFA/Drivers/USB/Core/AVR8/Template/Template_Endpoint_RW.c **** 	}
 2176               		.loc 3 47 3 is_stmt 1 view .LVU547
 2177 0032 080F      		add r16,r24
 2178 0034 191F      		adc r17,r25
 2179               	.LVL201:
 2180               	.L123:
  36:../../LUFA-111009/LUFA/Drivers/USB/Core/AVR8/Template/Template_Endpoint_RW.c **** 	uint8_t* DataStream      = ((uint8_t*)Buffer + TEMPLATE_BUFFER_OFFSET(Length));
 2181               		.loc 3 36 1 is_stmt 0 view .LVU548
 2182 0036 B12C      		mov r11,__zero_reg__
 2183 0038 A12C      		mov r10,__zero_reg__
 2184               	.LVL202:
 2185               	.L124:
  50:../../LUFA-111009/LUFA/Drivers/USB/Core/AVR8/Template/Template_Endpoint_RW.c **** 	{
 2186               		.loc 3 50 8 is_stmt 1 view .LVU549
 2187 003a 2097      		sbiw r28,0
 2188 003c 01F0      		breq .L121
  52:../../LUFA-111009/LUFA/Drivers/USB/Core/AVR8/Template/Template_Endpoint_RW.c **** 		{
 2189               		.loc 3 52 3 view .LVU550
 2190               	.LBB318:
 2191               	.LBI318:
 418:../../LUFA-111009/LUFA/Drivers/USB/Core/AVR8/../AVR8/../AVR8/Endpoint_AVR8.h **** 			{
 2192               		.loc 2 418 23 view .LVU551
 2193               	.LBB319:
 420:../../LUFA-111009/LUFA/Drivers/USB/Core/AVR8/../AVR8/../AVR8/Endpoint_AVR8.h **** 			}
 2194               		.loc 2 420 5 view .LVU552
 420:../../LUFA-111009/LUFA/Drivers/USB/Core/AVR8/../AVR8/../AVR8/Endpoint_AVR8.h **** 			}
 2195               		.loc 2 420 14 is_stmt 0 view .LVU553
 2196 003e 8091 E800 		lds r24,232
 2197               	.LBE319:
 2198               	.LBE318:
  52:../../LUFA-111009/LUFA/Drivers/USB/Core/AVR8/Template/Template_Endpoint_RW.c **** 		{
 2199               		.loc 3 52 6 view .LVU554
 2200 0042 85FD      		sbrc r24,5
 2201 0044 00C0      		rjmp .L125
  54:../../LUFA-111009/LUFA/Drivers/USB/Core/AVR8/Template/Template_Endpoint_RW.c **** 
 2202               		.loc 3 54 4 is_stmt 1 view .LVU555
 2203               	.LBB320:
 2204               	.LBI320:
 528:../../LUFA-111009/LUFA/Drivers/USB/Core/AVR8/../AVR8/../AVR8/Endpoint_AVR8.h **** 			{
 2205               		.loc 2 528 23 view .LVU556
 2206               	.LBB321:
 531:../../LUFA-111009/LUFA/Drivers/USB/Core/AVR8/../AVR8/../AVR8/Endpoint_AVR8.h **** 				#else
 2207               		.loc 2 531 6 view .LVU557
 531:../../LUFA-111009/LUFA/Drivers/USB/Core/AVR8/../AVR8/../AVR8/Endpoint_AVR8.h **** 				#else
 2208               		.loc 2 531 13 is_stmt 0 view .LVU558
 2209 0046 8091 E800 		lds r24,232
 2210 004a 8B77      		andi r24,lo8(123)
 2211 004c 8093 E800 		sts 232,r24
 2212               	.LBE321:
 2213               	.LBE320:
  57:../../LUFA-111009/LUFA/Drivers/USB/Core/AVR8/Template/Template_Endpoint_RW.c **** 			#endif
 2214               		.loc 3 57 4 is_stmt 1 view .LVU559
 2215 0050 0E94 0000 		call USB_USBTask
 2216               	.LVL203:
  60:../../LUFA-111009/LUFA/Drivers/USB/Core/AVR8/Template/Template_Endpoint_RW.c **** 			{
 2217               		.loc 3 60 4 view .LVU560
  60:../../LUFA-111009/LUFA/Drivers/USB/Core/AVR8/Template/Template_Endpoint_RW.c **** 			{
 2218               		.loc 3 60 7 is_stmt 0 view .LVU561
 2219 0054 E114      		cp r14,__zero_reg__
 2220 0056 F104      		cpc r15,__zero_reg__
 2221 0058 01F0      		breq .L126
  62:../../LUFA-111009/LUFA/Drivers/USB/Core/AVR8/Template/Template_Endpoint_RW.c **** 				return ENDPOINT_RWSTREAM_IncompleteTransfer;
 2222               		.loc 3 62 5 is_stmt 1 view .LVU562
  62:../../LUFA-111009/LUFA/Drivers/USB/Core/AVR8/Template/Template_Endpoint_RW.c **** 				return ENDPOINT_RWSTREAM_IncompleteTransfer;
 2223               		.loc 3 62 21 is_stmt 0 view .LVU563
 2224 005a F701      		movw r30,r14
 2225 005c 8081      		ld r24,Z
 2226 005e 9181      		ldd r25,Z+1
 2227 0060 A80E      		add r10,r24
 2228 0062 B91E      		adc r11,r25
 2229               	.LVL204:
  62:../../LUFA-111009/LUFA/Drivers/USB/Core/AVR8/Template/Template_Endpoint_RW.c **** 				return ENDPOINT_RWSTREAM_IncompleteTransfer;
 2230               		.loc 3 62 21 view .LVU564
 2231 0064 B182      		std Z+1,r11
 2232 0066 A082      		st Z,r10
  63:../../LUFA-111009/LUFA/Drivers/USB/Core/AVR8/Template/Template_Endpoint_RW.c **** 			}
 2233               		.loc 3 63 5 is_stmt 1 view .LVU565
  63:../../LUFA-111009/LUFA/Drivers/USB/Core/AVR8/Template/Template_Endpoint_RW.c **** 			}
 2234               		.loc 3 63 12 is_stmt 0 view .LVU566
 2235 0068 85E0      		ldi r24,lo8(5)
 2236 006a D82E      		mov r13,r24
 2237               	.L121:
 2238               		.loc 3 79 1 view .LVU567
 2239 006c 8D2D      		mov r24,r13
 2240               	/* epilogue start */
 2241 006e DF91      		pop r29
 2242 0070 CF91      		pop r28
 2243               	.LVL205:
 2244               		.loc 3 79 1 view .LVU568
 2245 0072 1F91      		pop r17
 2246 0074 0F91      		pop r16
 2247               	.LVL206:
 2248               		.loc 3 79 1 view .LVU569
 2249 0076 FF90      		pop r15
 2250 0078 EF90      		pop r14
 2251               	.LVL207:
 2252               		.loc 3 79 1 view .LVU570
 2253 007a DF90      		pop r13
 2254 007c BF90      		pop r11
 2255 007e AF90      		pop r10
 2256 0080 0895      		ret
 2257               	.LVL208:
 2258               	.L126:
  66:../../LUFA-111009/LUFA/Drivers/USB/Core/AVR8/Template/Template_Endpoint_RW.c **** 			  return ErrorCode;
 2259               		.loc 3 66 4 is_stmt 1 view .LVU571
  66:../../LUFA-111009/LUFA/Drivers/USB/Core/AVR8/Template/Template_Endpoint_RW.c **** 			  return ErrorCode;
 2260               		.loc 3 66 21 is_stmt 0 view .LVU572
 2261 0082 0E94 0000 		call Endpoint_WaitUntilReady
 2262               	.LVL209:
  66:../../LUFA-111009/LUFA/Drivers/USB/Core/AVR8/Template/Template_Endpoint_RW.c **** 			  return ErrorCode;
 2263               		.loc 3 66 7 view .LVU573
 2264 0086 8823      		tst r24
 2265 0088 01F0      		breq .L124
  66:../../LUFA-111009/LUFA/Drivers/USB/Core/AVR8/Template/Template_Endpoint_RW.c **** 			  return ErrorCode;
 2266               		.loc 3 66 21 view .LVU574
 2267 008a D82E      		mov r13,r24
 2268 008c 00C0      		rjmp .L121
 2269               	.LVL210:
 2270               	.L125:
  71:../../LUFA-111009/LUFA/Drivers/USB/Core/AVR8/Template/Template_Endpoint_RW.c **** 			TEMPLATE_BUFFER_MOVE(DataStream, 1);
 2271               		.loc 3 71 4 is_stmt 1 view .LVU575
 2272               	.LBB322:
 2273               	.LBI322:
 610:../../LUFA-111009/LUFA/Drivers/USB/Core/AVR8/../AVR8/../AVR8/Endpoint_AVR8.h **** 			{
 2274               		.loc 2 610 26 view .LVU576
 2275               	.LBB323:
 612:../../LUFA-111009/LUFA/Drivers/USB/Core/AVR8/../AVR8/../AVR8/Endpoint_AVR8.h **** 			}
 2276               		.loc 2 612 5 view .LVU577
 612:../../LUFA-111009/LUFA/Drivers/USB/Core/AVR8/../AVR8/../AVR8/Endpoint_AVR8.h **** 			}
 2277               		.loc 2 612 12 is_stmt 0 view .LVU578
 2278 008e 6091 F100 		lds r22,241
 2279               	.LBE323:
 2280               	.LBE322:
  71:../../LUFA-111009/LUFA/Drivers/USB/Core/AVR8/Template/Template_Endpoint_RW.c **** 			TEMPLATE_BUFFER_MOVE(DataStream, 1);
 2281               		.loc 3 71 4 view .LVU579
 2282 0092 C801      		movw r24,r16
 2283 0094 0E94 0000 		call eeprom_update_byte
 2284               	.LVL211:
  72:../../LUFA-111009/LUFA/Drivers/USB/Core/AVR8/Template/Template_Endpoint_RW.c **** 			Length--;
 2285               		.loc 3 72 4 is_stmt 1 view .LVU580
 2286 0098 0F5F      		subi r16,-1
 2287 009a 1F4F      		sbci r17,-1
 2288               	.LVL212:
  73:../../LUFA-111009/LUFA/Drivers/USB/Core/AVR8/Template/Template_Endpoint_RW.c **** 			BytesInTransfer++;
 2289               		.loc 3 73 4 view .LVU581
  73:../../LUFA-111009/LUFA/Drivers/USB/Core/AVR8/Template/Template_Endpoint_RW.c **** 			BytesInTransfer++;
 2290               		.loc 3 73 10 is_stmt 0 view .LVU582
 2291 009c 2197      		sbiw r28,1
 2292               	.LVL213:
  74:../../LUFA-111009/LUFA/Drivers/USB/Core/AVR8/Template/Template_Endpoint_RW.c **** 		}
 2293               		.loc 3 74 4 is_stmt 1 view .LVU583
  74:../../LUFA-111009/LUFA/Drivers/USB/Core/AVR8/Template/Template_Endpoint_RW.c **** 		}
 2294               		.loc 3 74 19 is_stmt 0 view .LVU584
 2295 009e FFEF      		ldi r31,-1
 2296 00a0 AF1A      		sub r10,r31
 2297 00a2 BF0A      		sbc r11,r31
 2298               	.LVL214:
  74:../../LUFA-111009/LUFA/Drivers/USB/Core/AVR8/Template/Template_Endpoint_RW.c **** 		}
 2299               		.loc 3 74 19 view .LVU585
 2300 00a4 00C0      		rjmp .L124
 2301               		.cfi_endproc
 2302               	.LFE91:
 2304               		.section	.text.Endpoint_Read_EStream_BE,"ax",@progbits
 2305               	.global	Endpoint_Read_EStream_BE
 2307               	Endpoint_Read_EStream_BE:
 2308               	.LVL215:
 2309               	.LFB92:
  36:../../LUFA-111009/LUFA/Drivers/USB/Core/AVR8/Template/Template_Endpoint_RW.c **** 	uint8_t* DataStream      = ((uint8_t*)Buffer + TEMPLATE_BUFFER_OFFSET(Length));
 2310               		.loc 3 36 1 is_stmt 1 view -0
 2311               		.cfi_startproc
  36:../../LUFA-111009/LUFA/Drivers/USB/Core/AVR8/Template/Template_Endpoint_RW.c **** 	uint8_t* DataStream      = ((uint8_t*)Buffer + TEMPLATE_BUFFER_OFFSET(Length));
 2312               		.loc 3 36 1 is_stmt 0 view .LVU587
 2313 0000 AF92      		push r10
 2314               	.LCFI95:
 2315               		.cfi_def_cfa_offset 3
 2316               		.cfi_offset 10, -2
 2317 0002 BF92      		push r11
 2318               	.LCFI96:
 2319               		.cfi_def_cfa_offset 4
 2320               		.cfi_offset 11, -3
 2321 0004 DF92      		push r13
 2322               	.LCFI97:
 2323               		.cfi_def_cfa_offset 5
 2324               		.cfi_offset 13, -4
 2325 0006 EF92      		push r14
 2326               	.LCFI98:
 2327               		.cfi_def_cfa_offset 6
 2328               		.cfi_offset 14, -5
 2329 0008 FF92      		push r15
 2330               	.LCFI99:
 2331               		.cfi_def_cfa_offset 7
 2332               		.cfi_offset 15, -6
 2333 000a 0F93      		push r16
 2334               	.LCFI100:
 2335               		.cfi_def_cfa_offset 8
 2336               		.cfi_offset 16, -7
 2337 000c 1F93      		push r17
 2338               	.LCFI101:
 2339               		.cfi_def_cfa_offset 9
 2340               		.cfi_offset 17, -8
 2341 000e CF93      		push r28
 2342               	.LCFI102:
 2343               		.cfi_def_cfa_offset 10
 2344               		.cfi_offset 28, -9
 2345 0010 DF93      		push r29
 2346               	.LCFI103:
 2347               		.cfi_def_cfa_offset 11
 2348               		.cfi_offset 29, -10
 2349               	/* prologue: function */
 2350               	/* frame size = 0 */
 2351               	/* stack size = 9 */
 2352               	.L__stack_usage = 9
 2353 0012 EC01      		movw r28,r24
 2354 0014 8B01      		movw r16,r22
 2355 0016 7A01      		movw r14,r20
  37:../../LUFA-111009/LUFA/Drivers/USB/Core/AVR8/Template/Template_Endpoint_RW.c **** 	uint16_t BytesInTransfer = 0;
 2356               		.loc 3 37 2 is_stmt 1 view .LVU588
 2357               	.LVL216:
  38:../../LUFA-111009/LUFA/Drivers/USB/Core/AVR8/Template/Template_Endpoint_RW.c **** 	uint8_t  ErrorCode;
 2358               		.loc 3 38 2 view .LVU589
  39:../../LUFA-111009/LUFA/Drivers/USB/Core/AVR8/Template/Template_Endpoint_RW.c **** 
 2359               		.loc 3 39 2 view .LVU590
  41:../../LUFA-111009/LUFA/Drivers/USB/Core/AVR8/Template/Template_Endpoint_RW.c **** 	  return ErrorCode;
 2360               		.loc 3 41 2 view .LVU591
  41:../../LUFA-111009/LUFA/Drivers/USB/Core/AVR8/Template/Template_Endpoint_RW.c **** 	  return ErrorCode;
 2361               		.loc 3 41 19 is_stmt 0 view .LVU592
 2362 0018 0E94 0000 		call Endpoint_WaitUntilReady
 2363               	.LVL217:
  41:../../LUFA-111009/LUFA/Drivers/USB/Core/AVR8/Template/Template_Endpoint_RW.c **** 	  return ErrorCode;
 2364               		.loc 3 41 19 view .LVU593
 2365 001c D82E      		mov r13,r24
 2366               	.LVL218:
  41:../../LUFA-111009/LUFA/Drivers/USB/Core/AVR8/Template/Template_Endpoint_RW.c **** 	  return ErrorCode;
 2367               		.loc 3 41 5 view .LVU594
 2368 001e 8111      		cpse r24,__zero_reg__
 2369 0020 00C0      		rjmp .L133
  37:../../LUFA-111009/LUFA/Drivers/USB/Core/AVR8/Template/Template_Endpoint_RW.c **** 	uint16_t BytesInTransfer = 0;
 2370               		.loc 3 37 47 view .LVU595
 2371 0022 C801      		movw r24,r16
 2372 0024 0197      		sbiw r24,1
 2373               	.LVL219:
  37:../../LUFA-111009/LUFA/Drivers/USB/Core/AVR8/Template/Template_Endpoint_RW.c **** 	uint16_t BytesInTransfer = 0;
 2374               		.loc 3 37 11 view .LVU596
 2375 0026 C80F      		add r28,r24
 2376 0028 D91F      		adc r29,r25
 2377               	.LVL220:
  44:../../LUFA-111009/LUFA/Drivers/USB/Core/AVR8/Template/Template_Endpoint_RW.c **** 	{
 2378               		.loc 3 44 2 is_stmt 1 view .LVU597
  44:../../LUFA-111009/LUFA/Drivers/USB/Core/AVR8/Template/Template_Endpoint_RW.c **** 	{
 2379               		.loc 3 44 5 is_stmt 0 view .LVU598
 2380 002a E114      		cp r14,__zero_reg__
 2381 002c F104      		cpc r15,__zero_reg__
 2382 002e 01F0      		breq .L135
  46:../../LUFA-111009/LUFA/Drivers/USB/Core/AVR8/Template/Template_Endpoint_RW.c **** 		TEMPLATE_BUFFER_MOVE(DataStream, *BytesProcessed);
 2383               		.loc 3 46 3 is_stmt 1 view .LVU599
  46:../../LUFA-111009/LUFA/Drivers/USB/Core/AVR8/Template/Template_Endpoint_RW.c **** 		TEMPLATE_BUFFER_MOVE(DataStream, *BytesProcessed);
 2384               		.loc 3 46 13 is_stmt 0 view .LVU600
 2385 0030 F701      		movw r30,r14
 2386 0032 8081      		ld r24,Z
 2387 0034 9181      		ldd r25,Z+1
 2388               	.LVL221:
  46:../../LUFA-111009/LUFA/Drivers/USB/Core/AVR8/Template/Template_Endpoint_RW.c **** 		TEMPLATE_BUFFER_MOVE(DataStream, *BytesProcessed);
 2389               		.loc 3 46 10 view .LVU601
 2390 0036 081B      		sub r16,r24
 2391 0038 190B      		sbc r17,r25
 2392               	.LVL222:
  47:../../LUFA-111009/LUFA/Drivers/USB/Core/AVR8/Template/Template_Endpoint_RW.c **** 	}
 2393               		.loc 3 47 3 is_stmt 1 view .LVU602
 2394 003a C81B      		sub r28,r24
 2395 003c D90B      		sbc r29,r25
 2396               	.LVL223:
 2397               	.L135:
  36:../../LUFA-111009/LUFA/Drivers/USB/Core/AVR8/Template/Template_Endpoint_RW.c **** 	uint8_t* DataStream      = ((uint8_t*)Buffer + TEMPLATE_BUFFER_OFFSET(Length));
 2398               		.loc 3 36 1 is_stmt 0 view .LVU603
 2399 003e B12C      		mov r11,__zero_reg__
 2400 0040 A12C      		mov r10,__zero_reg__
 2401               	.LVL224:
 2402               	.L136:
  50:../../LUFA-111009/LUFA/Drivers/USB/Core/AVR8/Template/Template_Endpoint_RW.c **** 	{
 2403               		.loc 3 50 8 is_stmt 1 view .LVU604
 2404 0042 0115      		cp r16,__zero_reg__
 2405 0044 1105      		cpc r17,__zero_reg__
 2406 0046 01F0      		breq .L133
  52:../../LUFA-111009/LUFA/Drivers/USB/Core/AVR8/Template/Template_Endpoint_RW.c **** 		{
 2407               		.loc 3 52 3 view .LVU605
 2408               	.LBB324:
 2409               	.LBI324:
 418:../../LUFA-111009/LUFA/Drivers/USB/Core/AVR8/../AVR8/../AVR8/Endpoint_AVR8.h **** 			{
 2410               		.loc 2 418 23 view .LVU606
 2411               	.LBB325:
 420:../../LUFA-111009/LUFA/Drivers/USB/Core/AVR8/../AVR8/../AVR8/Endpoint_AVR8.h **** 			}
 2412               		.loc 2 420 5 view .LVU607
 420:../../LUFA-111009/LUFA/Drivers/USB/Core/AVR8/../AVR8/../AVR8/Endpoint_AVR8.h **** 			}
 2413               		.loc 2 420 14 is_stmt 0 view .LVU608
 2414 0048 8091 E800 		lds r24,232
 2415               	.LBE325:
 2416               	.LBE324:
  52:../../LUFA-111009/LUFA/Drivers/USB/Core/AVR8/Template/Template_Endpoint_RW.c **** 		{
 2417               		.loc 3 52 6 view .LVU609
 2418 004c 85FD      		sbrc r24,5
 2419 004e 00C0      		rjmp .L137
  54:../../LUFA-111009/LUFA/Drivers/USB/Core/AVR8/Template/Template_Endpoint_RW.c **** 
 2420               		.loc 3 54 4 is_stmt 1 view .LVU610
 2421               	.LBB326:
 2422               	.LBI326:
 528:../../LUFA-111009/LUFA/Drivers/USB/Core/AVR8/../AVR8/../AVR8/Endpoint_AVR8.h **** 			{
 2423               		.loc 2 528 23 view .LVU611
 2424               	.LBB327:
 531:../../LUFA-111009/LUFA/Drivers/USB/Core/AVR8/../AVR8/../AVR8/Endpoint_AVR8.h **** 				#else
 2425               		.loc 2 531 6 view .LVU612
 531:../../LUFA-111009/LUFA/Drivers/USB/Core/AVR8/../AVR8/../AVR8/Endpoint_AVR8.h **** 				#else
 2426               		.loc 2 531 13 is_stmt 0 view .LVU613
 2427 0050 8091 E800 		lds r24,232
 2428 0054 8B77      		andi r24,lo8(123)
 2429 0056 8093 E800 		sts 232,r24
 2430               	.LBE327:
 2431               	.LBE326:
  57:../../LUFA-111009/LUFA/Drivers/USB/Core/AVR8/Template/Template_Endpoint_RW.c **** 			#endif
 2432               		.loc 3 57 4 is_stmt 1 view .LVU614
 2433 005a 0E94 0000 		call USB_USBTask
 2434               	.LVL225:
  60:../../LUFA-111009/LUFA/Drivers/USB/Core/AVR8/Template/Template_Endpoint_RW.c **** 			{
 2435               		.loc 3 60 4 view .LVU615
  60:../../LUFA-111009/LUFA/Drivers/USB/Core/AVR8/Template/Template_Endpoint_RW.c **** 			{
 2436               		.loc 3 60 7 is_stmt 0 view .LVU616
 2437 005e E114      		cp r14,__zero_reg__
 2438 0060 F104      		cpc r15,__zero_reg__
 2439 0062 01F0      		breq .L138
  62:../../LUFA-111009/LUFA/Drivers/USB/Core/AVR8/Template/Template_Endpoint_RW.c **** 				return ENDPOINT_RWSTREAM_IncompleteTransfer;
 2440               		.loc 3 62 5 is_stmt 1 view .LVU617
  62:../../LUFA-111009/LUFA/Drivers/USB/Core/AVR8/Template/Template_Endpoint_RW.c **** 				return ENDPOINT_RWSTREAM_IncompleteTransfer;
 2441               		.loc 3 62 21 is_stmt 0 view .LVU618
 2442 0064 F701      		movw r30,r14
 2443 0066 8081      		ld r24,Z
 2444 0068 9181      		ldd r25,Z+1
 2445 006a A80E      		add r10,r24
 2446 006c B91E      		adc r11,r25
 2447               	.LVL226:
  62:../../LUFA-111009/LUFA/Drivers/USB/Core/AVR8/Template/Template_Endpoint_RW.c **** 				return ENDPOINT_RWSTREAM_IncompleteTransfer;
 2448               		.loc 3 62 21 view .LVU619
 2449 006e B182      		std Z+1,r11
 2450 0070 A082      		st Z,r10
  63:../../LUFA-111009/LUFA/Drivers/USB/Core/AVR8/Template/Template_Endpoint_RW.c **** 			}
 2451               		.loc 3 63 5 is_stmt 1 view .LVU620
  63:../../LUFA-111009/LUFA/Drivers/USB/Core/AVR8/Template/Template_Endpoint_RW.c **** 			}
 2452               		.loc 3 63 12 is_stmt 0 view .LVU621
 2453 0072 85E0      		ldi r24,lo8(5)
 2454 0074 D82E      		mov r13,r24
 2455               	.LVL227:
 2456               	.L133:
 2457               		.loc 3 79 1 view .LVU622
 2458 0076 8D2D      		mov r24,r13
 2459               	/* epilogue start */
 2460 0078 DF91      		pop r29
 2461 007a CF91      		pop r28
 2462 007c 1F91      		pop r17
 2463 007e 0F91      		pop r16
 2464               	.LVL228:
 2465               		.loc 3 79 1 view .LVU623
 2466 0080 FF90      		pop r15
 2467 0082 EF90      		pop r14
 2468               	.LVL229:
 2469               		.loc 3 79 1 view .LVU624
 2470 0084 DF90      		pop r13
 2471 0086 BF90      		pop r11
 2472 0088 AF90      		pop r10
 2473 008a 0895      		ret
 2474               	.LVL230:
 2475               	.L138:
  66:../../LUFA-111009/LUFA/Drivers/USB/Core/AVR8/Template/Template_Endpoint_RW.c **** 			  return ErrorCode;
 2476               		.loc 3 66 4 is_stmt 1 view .LVU625
  66:../../LUFA-111009/LUFA/Drivers/USB/Core/AVR8/Template/Template_Endpoint_RW.c **** 			  return ErrorCode;
 2477               		.loc 3 66 21 is_stmt 0 view .LVU626
 2478 008c 0E94 0000 		call Endpoint_WaitUntilReady
 2479               	.LVL231:
  66:../../LUFA-111009/LUFA/Drivers/USB/Core/AVR8/Template/Template_Endpoint_RW.c **** 			  return ErrorCode;
 2480               		.loc 3 66 7 view .LVU627
 2481 0090 8823      		tst r24
 2482 0092 01F0      		breq .L136
  66:../../LUFA-111009/LUFA/Drivers/USB/Core/AVR8/Template/Template_Endpoint_RW.c **** 			  return ErrorCode;
 2483               		.loc 3 66 21 view .LVU628
 2484 0094 D82E      		mov r13,r24
 2485 0096 00C0      		rjmp .L133
 2486               	.LVL232:
 2487               	.L137:
  71:../../LUFA-111009/LUFA/Drivers/USB/Core/AVR8/Template/Template_Endpoint_RW.c **** 			TEMPLATE_BUFFER_MOVE(DataStream, 1);
 2488               		.loc 3 71 4 is_stmt 1 view .LVU629
 2489               	.LBB328:
 2490               	.LBI328:
 610:../../LUFA-111009/LUFA/Drivers/USB/Core/AVR8/../AVR8/../AVR8/Endpoint_AVR8.h **** 			{
 2491               		.loc 2 610 26 view .LVU630
 2492               	.LBB329:
 612:../../LUFA-111009/LUFA/Drivers/USB/Core/AVR8/../AVR8/../AVR8/Endpoint_AVR8.h **** 			}
 2493               		.loc 2 612 5 view .LVU631
 612:../../LUFA-111009/LUFA/Drivers/USB/Core/AVR8/../AVR8/../AVR8/Endpoint_AVR8.h **** 			}
 2494               		.loc 2 612 12 is_stmt 0 view .LVU632
 2495 0098 6091 F100 		lds r22,241
 2496               	.LBE329:
 2497               	.LBE328:
  71:../../LUFA-111009/LUFA/Drivers/USB/Core/AVR8/Template/Template_Endpoint_RW.c **** 			TEMPLATE_BUFFER_MOVE(DataStream, 1);
 2498               		.loc 3 71 4 view .LVU633
 2499 009c CE01      		movw r24,r28
 2500 009e 0E94 0000 		call eeprom_update_byte
 2501               	.LVL233:
  72:../../LUFA-111009/LUFA/Drivers/USB/Core/AVR8/Template/Template_Endpoint_RW.c **** 			Length--;
 2502               		.loc 3 72 4 is_stmt 1 view .LVU634
 2503 00a2 2197      		sbiw r28,1
 2504               	.LVL234:
  73:../../LUFA-111009/LUFA/Drivers/USB/Core/AVR8/Template/Template_Endpoint_RW.c **** 			BytesInTransfer++;
 2505               		.loc 3 73 4 view .LVU635
  73:../../LUFA-111009/LUFA/Drivers/USB/Core/AVR8/Template/Template_Endpoint_RW.c **** 			BytesInTransfer++;
 2506               		.loc 3 73 10 is_stmt 0 view .LVU636
 2507 00a4 0150      		subi r16,1
 2508 00a6 1109      		sbc r17,__zero_reg__
 2509               	.LVL235:
  74:../../LUFA-111009/LUFA/Drivers/USB/Core/AVR8/Template/Template_Endpoint_RW.c **** 		}
 2510               		.loc 3 74 4 is_stmt 1 view .LVU637
  74:../../LUFA-111009/LUFA/Drivers/USB/Core/AVR8/Template/Template_Endpoint_RW.c **** 		}
 2511               		.loc 3 74 19 is_stmt 0 view .LVU638
 2512 00a8 FFEF      		ldi r31,-1
 2513 00aa AF1A      		sub r10,r31
 2514 00ac BF0A      		sbc r11,r31
 2515               	.LVL236:
  74:../../LUFA-111009/LUFA/Drivers/USB/Core/AVR8/Template/Template_Endpoint_RW.c **** 		}
 2516               		.loc 3 74 19 view .LVU639
 2517 00ae 00C0      		rjmp .L136
 2518               		.cfi_endproc
 2519               	.LFE92:
 2521               		.section	.text.Endpoint_Write_Control_Stream_LE,"ax",@progbits
 2522               	.global	Endpoint_Write_Control_Stream_LE
 2524               	Endpoint_Write_Control_Stream_LE:
 2525               	.LVL237:
 2526               	.LFB93:
 2527               		.file 4 "../../LUFA-111009/LUFA/Drivers/USB/Core/AVR8/Template/Template_Endpoint_Control_W.c"
   1:../../LUFA-111009/LUFA/Drivers/USB/Core/AVR8/Template/Template_Endpoint_Control_W.c **** /*
   2:../../LUFA-111009/LUFA/Drivers/USB/Core/AVR8/Template/Template_Endpoint_Control_W.c ****              LUFA Library
   3:../../LUFA-111009/LUFA/Drivers/USB/Core/AVR8/Template/Template_Endpoint_Control_W.c ****      Copyright (C) Dean Camera, 2011.
   4:../../LUFA-111009/LUFA/Drivers/USB/Core/AVR8/Template/Template_Endpoint_Control_W.c **** 
   5:../../LUFA-111009/LUFA/Drivers/USB/Core/AVR8/Template/Template_Endpoint_Control_W.c ****   dean [at] fourwalledcubicle [dot] com
   6:../../LUFA-111009/LUFA/Drivers/USB/Core/AVR8/Template/Template_Endpoint_Control_W.c ****            www.lufa-lib.org
   7:../../LUFA-111009/LUFA/Drivers/USB/Core/AVR8/Template/Template_Endpoint_Control_W.c **** */
   8:../../LUFA-111009/LUFA/Drivers/USB/Core/AVR8/Template/Template_Endpoint_Control_W.c **** 
   9:../../LUFA-111009/LUFA/Drivers/USB/Core/AVR8/Template/Template_Endpoint_Control_W.c **** /*
  10:../../LUFA-111009/LUFA/Drivers/USB/Core/AVR8/Template/Template_Endpoint_Control_W.c ****   Copyright 2011  Dean Camera (dean [at] fourwalledcubicle [dot] com)
  11:../../LUFA-111009/LUFA/Drivers/USB/Core/AVR8/Template/Template_Endpoint_Control_W.c **** 
  12:../../LUFA-111009/LUFA/Drivers/USB/Core/AVR8/Template/Template_Endpoint_Control_W.c ****   Permission to use, copy, modify, distribute, and sell this
  13:../../LUFA-111009/LUFA/Drivers/USB/Core/AVR8/Template/Template_Endpoint_Control_W.c ****   software and its documentation for any purpose is hereby granted
  14:../../LUFA-111009/LUFA/Drivers/USB/Core/AVR8/Template/Template_Endpoint_Control_W.c ****   without fee, provided that the above copyright notice appear in
  15:../../LUFA-111009/LUFA/Drivers/USB/Core/AVR8/Template/Template_Endpoint_Control_W.c ****   all copies and that both that the copyright notice and this
  16:../../LUFA-111009/LUFA/Drivers/USB/Core/AVR8/Template/Template_Endpoint_Control_W.c ****   permission notice and warranty disclaimer appear in supporting
  17:../../LUFA-111009/LUFA/Drivers/USB/Core/AVR8/Template/Template_Endpoint_Control_W.c ****   documentation, and that the name of the author not be used in
  18:../../LUFA-111009/LUFA/Drivers/USB/Core/AVR8/Template/Template_Endpoint_Control_W.c ****   advertising or publicity pertaining to distribution of the
  19:../../LUFA-111009/LUFA/Drivers/USB/Core/AVR8/Template/Template_Endpoint_Control_W.c ****   software without specific, written prior permission.
  20:../../LUFA-111009/LUFA/Drivers/USB/Core/AVR8/Template/Template_Endpoint_Control_W.c **** 
  21:../../LUFA-111009/LUFA/Drivers/USB/Core/AVR8/Template/Template_Endpoint_Control_W.c ****   The author disclaim all warranties with regard to this
  22:../../LUFA-111009/LUFA/Drivers/USB/Core/AVR8/Template/Template_Endpoint_Control_W.c ****   software, including all implied warranties of merchantability
  23:../../LUFA-111009/LUFA/Drivers/USB/Core/AVR8/Template/Template_Endpoint_Control_W.c ****   and fitness.  In no event shall the author be liable for any
  24:../../LUFA-111009/LUFA/Drivers/USB/Core/AVR8/Template/Template_Endpoint_Control_W.c ****   special, indirect or consequential damages or any damages
  25:../../LUFA-111009/LUFA/Drivers/USB/Core/AVR8/Template/Template_Endpoint_Control_W.c ****   whatsoever resulting from loss of use, data or profits, whether
  26:../../LUFA-111009/LUFA/Drivers/USB/Core/AVR8/Template/Template_Endpoint_Control_W.c ****   in an action of contract, negligence or other tortious action,
  27:../../LUFA-111009/LUFA/Drivers/USB/Core/AVR8/Template/Template_Endpoint_Control_W.c ****   arising out of or in connection with the use or performance of
  28:../../LUFA-111009/LUFA/Drivers/USB/Core/AVR8/Template/Template_Endpoint_Control_W.c ****   this software.
  29:../../LUFA-111009/LUFA/Drivers/USB/Core/AVR8/Template/Template_Endpoint_Control_W.c **** */
  30:../../LUFA-111009/LUFA/Drivers/USB/Core/AVR8/Template/Template_Endpoint_Control_W.c **** 
  31:../../LUFA-111009/LUFA/Drivers/USB/Core/AVR8/Template/Template_Endpoint_Control_W.c **** #if defined(TEMPLATE_FUNC_NAME)
  32:../../LUFA-111009/LUFA/Drivers/USB/Core/AVR8/Template/Template_Endpoint_Control_W.c **** 
  33:../../LUFA-111009/LUFA/Drivers/USB/Core/AVR8/Template/Template_Endpoint_Control_W.c **** uint8_t TEMPLATE_FUNC_NAME (const void* const Buffer,
  34:../../LUFA-111009/LUFA/Drivers/USB/Core/AVR8/Template/Template_Endpoint_Control_W.c ****                             uint16_t Length)
  35:../../LUFA-111009/LUFA/Drivers/USB/Core/AVR8/Template/Template_Endpoint_Control_W.c **** {
 2528               		.loc 4 35 1 is_stmt 1 view -0
 2529               		.cfi_startproc
 2530               	/* prologue: function */
 2531               	/* frame size = 0 */
 2532               	/* stack size = 0 */
 2533               	.L__stack_usage = 0
 2534               		.loc 4 35 1 is_stmt 0 view .LVU641
 2535 0000 FC01      		movw r30,r24
 2536 0002 CB01      		movw r24,r22
 2537               	.LVL238:
  36:../../LUFA-111009/LUFA/Drivers/USB/Core/AVR8/Template/Template_Endpoint_Control_W.c **** 	uint8_t* DataStream     = ((uint8_t*)Buffer + TEMPLATE_BUFFER_OFFSET(Length));
 2538               		.loc 4 36 2 is_stmt 1 view .LVU642
  37:../../LUFA-111009/LUFA/Drivers/USB/Core/AVR8/Template/Template_Endpoint_Control_W.c **** 	bool     LastPacketFull = false;
 2539               		.loc 4 37 2 view .LVU643
  38:../../LUFA-111009/LUFA/Drivers/USB/Core/AVR8/Template/Template_Endpoint_Control_W.c **** 
  39:../../LUFA-111009/LUFA/Drivers/USB/Core/AVR8/Template/Template_Endpoint_Control_W.c **** 	if (Length > USB_ControlRequest.wLength)
 2540               		.loc 4 39 2 view .LVU644
 2541               		.loc 4 39 33 is_stmt 0 view .LVU645
 2542 0004 2091 0000 		lds r18,USB_ControlRequest+6
 2543 0008 3091 0000 		lds r19,USB_ControlRequest+6+1
 2544               		.loc 4 39 5 view .LVU646
 2545 000c 2617      		cp r18,r22
 2546 000e 3707      		cpc r19,r23
 2547 0010 00F0      		brlo .L157
  40:../../LUFA-111009/LUFA/Drivers/USB/Core/AVR8/Template/Template_Endpoint_Control_W.c **** 	  Length = USB_ControlRequest.wLength;
  41:../../LUFA-111009/LUFA/Drivers/USB/Core/AVR8/Template/Template_Endpoint_Control_W.c **** 	else if (!(Length))
 2548               		.loc 4 41 7 is_stmt 1 view .LVU647
 2549               		.loc 4 41 10 is_stmt 0 view .LVU648
 2550 0012 0097      		sbiw r24,0
 2551 0014 01F4      		brne .L146
  42:../../LUFA-111009/LUFA/Drivers/USB/Core/AVR8/Template/Template_Endpoint_Control_W.c **** 	  Endpoint_ClearIN();
 2552               		.loc 4 42 4 is_stmt 1 view .LVU649
 2553               	.LBB330:
 2554               	.LBI330:
 513:../../LUFA-111009/LUFA/Drivers/USB/Core/AVR8/../AVR8/../AVR8/Endpoint_AVR8.h **** 			{
 2555               		.loc 2 513 23 view .LVU650
 2556               	.LBB331:
 516:../../LUFA-111009/LUFA/Drivers/USB/Core/AVR8/../AVR8/../AVR8/Endpoint_AVR8.h **** 				#else
 2557               		.loc 2 516 6 view .LVU651
 516:../../LUFA-111009/LUFA/Drivers/USB/Core/AVR8/../AVR8/../AVR8/Endpoint_AVR8.h **** 				#else
 2558               		.loc 2 516 13 is_stmt 0 view .LVU652
 2559 0016 2091 E800 		lds r18,232
 2560 001a 2E77      		andi r18,lo8(126)
 2561 001c 2093 E800 		sts 232,r18
 2562               	.L146:
 516:../../LUFA-111009/LUFA/Drivers/USB/Core/AVR8/../AVR8/../AVR8/Endpoint_AVR8.h **** 				#else
 2563               		.loc 2 516 13 view .LVU653
 2564               	.LBE331:
 2565               	.LBE330:
 2566 0020 40E0      		ldi r20,0
 2567               	.LVL239:
 2568               	.L150:
  43:../../LUFA-111009/LUFA/Drivers/USB/Core/AVR8/Template/Template_Endpoint_Control_W.c **** 
  44:../../LUFA-111009/LUFA/Drivers/USB/Core/AVR8/Template/Template_Endpoint_Control_W.c **** 	while (Length || LastPacketFull)
 2569               		.loc 4 44 8 is_stmt 1 view .LVU654
 2570 0022 0097      		sbiw r24,0
 2571 0024 01F4      		brne .L155
 2572               		.loc 4 44 16 is_stmt 0 discriminator 1 view .LVU655
 2573 0026 4111      		cpse r20,__zero_reg__
 2574 0028 00C0      		rjmp .L155
 2575               	.LVL240:
 2576               	.L168:
  45:../../LUFA-111009/LUFA/Drivers/USB/Core/AVR8/Template/Template_Endpoint_Control_W.c **** 	{
  46:../../LUFA-111009/LUFA/Drivers/USB/Core/AVR8/Template/Template_Endpoint_Control_W.c **** 		uint8_t USB_DeviceState_LCL = USB_DeviceState;
  47:../../LUFA-111009/LUFA/Drivers/USB/Core/AVR8/Template/Template_Endpoint_Control_W.c **** 
  48:../../LUFA-111009/LUFA/Drivers/USB/Core/AVR8/Template/Template_Endpoint_Control_W.c **** 		if (USB_DeviceState_LCL == DEVICE_STATE_Unattached)
  49:../../LUFA-111009/LUFA/Drivers/USB/Core/AVR8/Template/Template_Endpoint_Control_W.c **** 		  return ENDPOINT_RWCSTREAM_DeviceDisconnected;
  50:../../LUFA-111009/LUFA/Drivers/USB/Core/AVR8/Template/Template_Endpoint_Control_W.c **** 		else if (USB_DeviceState_LCL == DEVICE_STATE_Suspended)
  51:../../LUFA-111009/LUFA/Drivers/USB/Core/AVR8/Template/Template_Endpoint_Control_W.c **** 		  return ENDPOINT_RWCSTREAM_BusSuspended;
  52:../../LUFA-111009/LUFA/Drivers/USB/Core/AVR8/Template/Template_Endpoint_Control_W.c **** 		else if (Endpoint_IsSETUPReceived())
  53:../../LUFA-111009/LUFA/Drivers/USB/Core/AVR8/Template/Template_Endpoint_Control_W.c **** 		  return ENDPOINT_RWCSTREAM_HostAborted;
  54:../../LUFA-111009/LUFA/Drivers/USB/Core/AVR8/Template/Template_Endpoint_Control_W.c **** 		else if (Endpoint_IsOUTReceived())
  55:../../LUFA-111009/LUFA/Drivers/USB/Core/AVR8/Template/Template_Endpoint_Control_W.c **** 		  break;
  56:../../LUFA-111009/LUFA/Drivers/USB/Core/AVR8/Template/Template_Endpoint_Control_W.c **** 
  57:../../LUFA-111009/LUFA/Drivers/USB/Core/AVR8/Template/Template_Endpoint_Control_W.c **** 		if (Endpoint_IsINReady())
  58:../../LUFA-111009/LUFA/Drivers/USB/Core/AVR8/Template/Template_Endpoint_Control_W.c **** 		{
  59:../../LUFA-111009/LUFA/Drivers/USB/Core/AVR8/Template/Template_Endpoint_Control_W.c **** 			uint16_t BytesInEndpoint = Endpoint_BytesInEndpoint();
  60:../../LUFA-111009/LUFA/Drivers/USB/Core/AVR8/Template/Template_Endpoint_Control_W.c **** 
  61:../../LUFA-111009/LUFA/Drivers/USB/Core/AVR8/Template/Template_Endpoint_Control_W.c **** 			while (Length && (BytesInEndpoint < USB_Device_ControlEndpointSize))
  62:../../LUFA-111009/LUFA/Drivers/USB/Core/AVR8/Template/Template_Endpoint_Control_W.c **** 			{
  63:../../LUFA-111009/LUFA/Drivers/USB/Core/AVR8/Template/Template_Endpoint_Control_W.c **** 				TEMPLATE_TRANSFER_BYTE(DataStream);
  64:../../LUFA-111009/LUFA/Drivers/USB/Core/AVR8/Template/Template_Endpoint_Control_W.c **** 				TEMPLATE_BUFFER_MOVE(DataStream, 1);
  65:../../LUFA-111009/LUFA/Drivers/USB/Core/AVR8/Template/Template_Endpoint_Control_W.c **** 				Length--;
  66:../../LUFA-111009/LUFA/Drivers/USB/Core/AVR8/Template/Template_Endpoint_Control_W.c **** 				BytesInEndpoint++;
  67:../../LUFA-111009/LUFA/Drivers/USB/Core/AVR8/Template/Template_Endpoint_Control_W.c **** 			}
  68:../../LUFA-111009/LUFA/Drivers/USB/Core/AVR8/Template/Template_Endpoint_Control_W.c **** 
  69:../../LUFA-111009/LUFA/Drivers/USB/Core/AVR8/Template/Template_Endpoint_Control_W.c **** 			LastPacketFull = (BytesInEndpoint == USB_Device_ControlEndpointSize);
  70:../../LUFA-111009/LUFA/Drivers/USB/Core/AVR8/Template/Template_Endpoint_Control_W.c **** 			Endpoint_ClearIN();
  71:../../LUFA-111009/LUFA/Drivers/USB/Core/AVR8/Template/Template_Endpoint_Control_W.c **** 		}
  72:../../LUFA-111009/LUFA/Drivers/USB/Core/AVR8/Template/Template_Endpoint_Control_W.c **** 	}
  73:../../LUFA-111009/LUFA/Drivers/USB/Core/AVR8/Template/Template_Endpoint_Control_W.c **** 
  74:../../LUFA-111009/LUFA/Drivers/USB/Core/AVR8/Template/Template_Endpoint_Control_W.c **** 	while (!(Endpoint_IsOUTReceived()))
 2577               		.loc 4 74 8 is_stmt 1 view .LVU656
 2578               	.LBB332:
 2579               	.LBI332:
 477:../../LUFA-111009/LUFA/Drivers/USB/Core/AVR8/../AVR8/../AVR8/Endpoint_AVR8.h **** 			{
 2580               		.loc 2 477 23 view .LVU657
 2581               	.LBB333:
 479:../../LUFA-111009/LUFA/Drivers/USB/Core/AVR8/../AVR8/../AVR8/Endpoint_AVR8.h **** 			}
 2582               		.loc 2 479 5 view .LVU658
 479:../../LUFA-111009/LUFA/Drivers/USB/Core/AVR8/../AVR8/../AVR8/Endpoint_AVR8.h **** 			}
 2583               		.loc 2 479 14 is_stmt 0 view .LVU659
 2584 002a 8091 E800 		lds r24,232
 2585               	.LBE333:
 2586               	.LBE332:
 2587               		.loc 4 74 8 view .LVU660
 2588 002e 82FF      		sbrs r24,2
 2589 0030 00C0      		rjmp .L156
  75:../../LUFA-111009/LUFA/Drivers/USB/Core/AVR8/Template/Template_Endpoint_Control_W.c **** 	{
  76:../../LUFA-111009/LUFA/Drivers/USB/Core/AVR8/Template/Template_Endpoint_Control_W.c **** 		uint8_t USB_DeviceState_LCL = USB_DeviceState;
  77:../../LUFA-111009/LUFA/Drivers/USB/Core/AVR8/Template/Template_Endpoint_Control_W.c **** 
  78:../../LUFA-111009/LUFA/Drivers/USB/Core/AVR8/Template/Template_Endpoint_Control_W.c **** 		if (USB_DeviceState_LCL == DEVICE_STATE_Unattached)
  79:../../LUFA-111009/LUFA/Drivers/USB/Core/AVR8/Template/Template_Endpoint_Control_W.c **** 		  return ENDPOINT_RWCSTREAM_DeviceDisconnected;
  80:../../LUFA-111009/LUFA/Drivers/USB/Core/AVR8/Template/Template_Endpoint_Control_W.c **** 		else if (USB_DeviceState_LCL == DEVICE_STATE_Suspended)
  81:../../LUFA-111009/LUFA/Drivers/USB/Core/AVR8/Template/Template_Endpoint_Control_W.c **** 		  return ENDPOINT_RWCSTREAM_BusSuspended;
  82:../../LUFA-111009/LUFA/Drivers/USB/Core/AVR8/Template/Template_Endpoint_Control_W.c **** 	}
  83:../../LUFA-111009/LUFA/Drivers/USB/Core/AVR8/Template/Template_Endpoint_Control_W.c **** 
  84:../../LUFA-111009/LUFA/Drivers/USB/Core/AVR8/Template/Template_Endpoint_Control_W.c **** 	return ENDPOINT_RWCSTREAM_NoError;
 2590               		.loc 4 84 9 view .LVU661
 2591 0032 80E0      		ldi r24,0
 2592 0034 0895      		ret
 2593               	.LVL241:
 2594               	.L157:
 2595               		.loc 4 84 9 view .LVU662
 2596 0036 C901      		movw r24,r18
 2597 0038 00C0      		rjmp .L146
 2598               	.LVL242:
 2599               	.L155:
 2600               	.LBB334:
  46:../../LUFA-111009/LUFA/Drivers/USB/Core/AVR8/Template/Template_Endpoint_Control_W.c **** 
 2601               		.loc 4 46 3 is_stmt 1 view .LVU663
  46:../../LUFA-111009/LUFA/Drivers/USB/Core/AVR8/Template/Template_Endpoint_Control_W.c **** 
 2602               		.loc 4 46 11 is_stmt 0 view .LVU664
 2603 003a 2EB3      		in r18,0x1e
 2604               	.LVL243:
  48:../../LUFA-111009/LUFA/Drivers/USB/Core/AVR8/Template/Template_Endpoint_Control_W.c **** 		  return ENDPOINT_RWCSTREAM_DeviceDisconnected;
 2605               		.loc 4 48 3 is_stmt 1 view .LVU665
  48:../../LUFA-111009/LUFA/Drivers/USB/Core/AVR8/Template/Template_Endpoint_Control_W.c **** 		  return ENDPOINT_RWCSTREAM_DeviceDisconnected;
 2606               		.loc 4 48 6 is_stmt 0 view .LVU666
 2607 003c 2223      		tst r18
 2608 003e 01F0      		breq .L161
  50:../../LUFA-111009/LUFA/Drivers/USB/Core/AVR8/Template/Template_Endpoint_Control_W.c **** 		  return ENDPOINT_RWCSTREAM_BusSuspended;
 2609               		.loc 4 50 8 is_stmt 1 view .LVU667
  50:../../LUFA-111009/LUFA/Drivers/USB/Core/AVR8/Template/Template_Endpoint_Control_W.c **** 		  return ENDPOINT_RWCSTREAM_BusSuspended;
 2610               		.loc 4 50 11 is_stmt 0 view .LVU668
 2611 0040 2530      		cpi r18,lo8(5)
 2612 0042 01F0      		breq .L162
  52:../../LUFA-111009/LUFA/Drivers/USB/Core/AVR8/Template/Template_Endpoint_Control_W.c **** 		  return ENDPOINT_RWCSTREAM_HostAborted;
 2613               		.loc 4 52 8 is_stmt 1 view .LVU669
 2614               	.LBB335:
 2615               	.LBI335:
 489:../../LUFA-111009/LUFA/Drivers/USB/Core/AVR8/../AVR8/../AVR8/Endpoint_AVR8.h **** 			{
 2616               		.loc 2 489 23 view .LVU670
 2617               	.LBB336:
 491:../../LUFA-111009/LUFA/Drivers/USB/Core/AVR8/../AVR8/../AVR8/Endpoint_AVR8.h **** 			}
 2618               		.loc 2 491 5 view .LVU671
 491:../../LUFA-111009/LUFA/Drivers/USB/Core/AVR8/../AVR8/../AVR8/Endpoint_AVR8.h **** 			}
 2619               		.loc 2 491 14 is_stmt 0 view .LVU672
 2620 0044 2091 E800 		lds r18,232
 2621               	.LVL244:
 491:../../LUFA-111009/LUFA/Drivers/USB/Core/AVR8/../AVR8/../AVR8/Endpoint_AVR8.h **** 			}
 2622               		.loc 2 491 14 view .LVU673
 2623               	.LBE336:
 2624               	.LBE335:
  52:../../LUFA-111009/LUFA/Drivers/USB/Core/AVR8/Template/Template_Endpoint_Control_W.c **** 		  return ENDPOINT_RWCSTREAM_HostAborted;
 2625               		.loc 4 52 11 view .LVU674
 2626 0048 23FD      		sbrc r18,3
 2627 004a 00C0      		rjmp .L160
  54:../../LUFA-111009/LUFA/Drivers/USB/Core/AVR8/Template/Template_Endpoint_Control_W.c **** 		  break;
 2628               		.loc 4 54 8 is_stmt 1 view .LVU675
 2629               	.LBB337:
 2630               	.LBI337:
 477:../../LUFA-111009/LUFA/Drivers/USB/Core/AVR8/../AVR8/../AVR8/Endpoint_AVR8.h **** 			{
 2631               		.loc 2 477 23 view .LVU676
 2632               	.LBB338:
 479:../../LUFA-111009/LUFA/Drivers/USB/Core/AVR8/../AVR8/../AVR8/Endpoint_AVR8.h **** 			}
 2633               		.loc 2 479 5 view .LVU677
 479:../../LUFA-111009/LUFA/Drivers/USB/Core/AVR8/../AVR8/../AVR8/Endpoint_AVR8.h **** 			}
 2634               		.loc 2 479 14 is_stmt 0 view .LVU678
 2635 004c 2091 E800 		lds r18,232
 2636               	.LBE338:
 2637               	.LBE337:
  54:../../LUFA-111009/LUFA/Drivers/USB/Core/AVR8/Template/Template_Endpoint_Control_W.c **** 		  break;
 2638               		.loc 4 54 11 view .LVU679
 2639 0050 22FD      		sbrc r18,2
 2640 0052 00C0      		rjmp .L168
  57:../../LUFA-111009/LUFA/Drivers/USB/Core/AVR8/Template/Template_Endpoint_Control_W.c **** 		{
 2641               		.loc 4 57 3 is_stmt 1 view .LVU680
 2642               	.LBB339:
 2643               	.LBI339:
 465:../../LUFA-111009/LUFA/Drivers/USB/Core/AVR8/../AVR8/../AVR8/Endpoint_AVR8.h **** 			{
 2644               		.loc 2 465 23 view .LVU681
 2645               	.LBB340:
 467:../../LUFA-111009/LUFA/Drivers/USB/Core/AVR8/../AVR8/../AVR8/Endpoint_AVR8.h **** 			}
 2646               		.loc 2 467 5 view .LVU682
 467:../../LUFA-111009/LUFA/Drivers/USB/Core/AVR8/../AVR8/../AVR8/Endpoint_AVR8.h **** 			}
 2647               		.loc 2 467 14 is_stmt 0 view .LVU683
 2648 0054 2091 E800 		lds r18,232
 2649               	.LBE340:
 2650               	.LBE339:
  57:../../LUFA-111009/LUFA/Drivers/USB/Core/AVR8/Template/Template_Endpoint_Control_W.c **** 		{
 2651               		.loc 4 57 6 view .LVU684
 2652 0058 20FF      		sbrs r18,0
 2653 005a 00C0      		rjmp .L150
 2654               	.LBB341:
  59:../../LUFA-111009/LUFA/Drivers/USB/Core/AVR8/Template/Template_Endpoint_Control_W.c **** 
 2655               		.loc 4 59 4 is_stmt 1 view .LVU685
 2656               	.LBB342:
 2657               	.LBI342:
 290:../../LUFA-111009/LUFA/Drivers/USB/Core/AVR8/../AVR8/../AVR8/Endpoint_AVR8.h **** 			{
 2658               		.loc 2 290 27 view .LVU686
 2659               	.LBB343:
 295:../../LUFA-111009/LUFA/Drivers/USB/Core/AVR8/../AVR8/../AVR8/Endpoint_AVR8.h **** 				#elif defined(USB_SERIES_2_AVR)
 2660               		.loc 2 295 6 view .LVU687
 295:../../LUFA-111009/LUFA/Drivers/USB/Core/AVR8/../AVR8/../AVR8/Endpoint_AVR8.h **** 				#elif defined(USB_SERIES_2_AVR)
 2661               		.loc 2 295 25 is_stmt 0 view .LVU688
 2662 005c 3091 F300 		lds r19,243
 295:../../LUFA-111009/LUFA/Drivers/USB/Core/AVR8/../AVR8/../AVR8/Endpoint_AVR8.h **** 				#elif defined(USB_SERIES_2_AVR)
 2663               		.loc 2 295 40 view .LVU689
 2664 0060 2091 F200 		lds r18,242
 2665               	.LVL245:
 295:../../LUFA-111009/LUFA/Drivers/USB/Core/AVR8/../AVR8/../AVR8/Endpoint_AVR8.h **** 				#elif defined(USB_SERIES_2_AVR)
 2666               		.loc 2 295 40 view .LVU690
 2667               	.LBE343:
 2668               	.LBE342:
  61:../../LUFA-111009/LUFA/Drivers/USB/Core/AVR8/Template/Template_Endpoint_Control_W.c **** 			{
 2669               		.loc 4 61 4 is_stmt 1 view .LVU691
 2670               	.L151:
  61:../../LUFA-111009/LUFA/Drivers/USB/Core/AVR8/Template/Template_Endpoint_Control_W.c **** 			{
 2671               		.loc 4 61 10 view .LVU692
 2672 0064 0097      		sbiw r24,0
 2673 0066 01F0      		breq .L152
  61:../../LUFA-111009/LUFA/Drivers/USB/Core/AVR8/Template/Template_Endpoint_Control_W.c **** 			{
 2674               		.loc 4 61 18 is_stmt 0 discriminator 1 view .LVU693
 2675 0068 2830      		cpi r18,8
 2676 006a 3105      		cpc r19,__zero_reg__
 2677 006c 00F0      		brlo .L153
 2678               	.L152:
  69:../../LUFA-111009/LUFA/Drivers/USB/Core/AVR8/Template/Template_Endpoint_Control_W.c **** 			Endpoint_ClearIN();
 2679               		.loc 4 69 4 is_stmt 1 view .LVU694
  69:../../LUFA-111009/LUFA/Drivers/USB/Core/AVR8/Template/Template_Endpoint_Control_W.c **** 			Endpoint_ClearIN();
 2680               		.loc 4 69 19 is_stmt 0 view .LVU695
 2681 006e 41E0      		ldi r20,lo8(1)
 2682 0070 2830      		cpi r18,8
 2683 0072 3105      		cpc r19,__zero_reg__
 2684 0074 01F0      		breq .L154
 2685 0076 40E0      		ldi r20,0
 2686               	.L154:
 2687               	.LVL246:
  70:../../LUFA-111009/LUFA/Drivers/USB/Core/AVR8/Template/Template_Endpoint_Control_W.c **** 		}
 2688               		.loc 4 70 4 is_stmt 1 view .LVU696
 2689               	.LBB344:
 2690               	.LBI344:
 513:../../LUFA-111009/LUFA/Drivers/USB/Core/AVR8/../AVR8/../AVR8/Endpoint_AVR8.h **** 			{
 2691               		.loc 2 513 23 view .LVU697
 2692               	.LBB345:
 516:../../LUFA-111009/LUFA/Drivers/USB/Core/AVR8/../AVR8/../AVR8/Endpoint_AVR8.h **** 				#else
 2693               		.loc 2 516 6 view .LVU698
 516:../../LUFA-111009/LUFA/Drivers/USB/Core/AVR8/../AVR8/../AVR8/Endpoint_AVR8.h **** 				#else
 2694               		.loc 2 516 13 is_stmt 0 view .LVU699
 2695 0078 2091 E800 		lds r18,232
 2696               	.LVL247:
 516:../../LUFA-111009/LUFA/Drivers/USB/Core/AVR8/../AVR8/../AVR8/Endpoint_AVR8.h **** 				#else
 2697               		.loc 2 516 13 view .LVU700
 2698 007c 2E77      		andi r18,lo8(126)
 2699 007e 2093 E800 		sts 232,r18
 2700               	.LVL248:
 520:../../LUFA-111009/LUFA/Drivers/USB/Core/AVR8/../AVR8/../AVR8/Endpoint_AVR8.h **** 
 2701               		.loc 2 520 4 view .LVU701
 2702 0082 00C0      		rjmp .L150
 2703               	.LVL249:
 2704               	.L153:
 520:../../LUFA-111009/LUFA/Drivers/USB/Core/AVR8/../AVR8/../AVR8/Endpoint_AVR8.h **** 
 2705               		.loc 2 520 4 view .LVU702
 2706               	.LBE345:
 2707               	.LBE344:
  63:../../LUFA-111009/LUFA/Drivers/USB/Core/AVR8/Template/Template_Endpoint_Control_W.c **** 				TEMPLATE_BUFFER_MOVE(DataStream, 1);
 2708               		.loc 4 63 5 is_stmt 1 view .LVU703
 2709 0084 4191      		ld r20,Z+
 2710               	.LVL250:
 2711               	.LBB346:
 2712               	.LBI346:
 622:../../LUFA-111009/LUFA/Drivers/USB/Core/AVR8/../AVR8/../AVR8/Endpoint_AVR8.h **** 			{
 2713               		.loc 2 622 23 view .LVU704
 2714               	.LBB347:
 624:../../LUFA-111009/LUFA/Drivers/USB/Core/AVR8/../AVR8/../AVR8/Endpoint_AVR8.h **** 			}
 2715               		.loc 2 624 5 view .LVU705
 624:../../LUFA-111009/LUFA/Drivers/USB/Core/AVR8/../AVR8/../AVR8/Endpoint_AVR8.h **** 			}
 2716               		.loc 2 624 12 is_stmt 0 view .LVU706
 2717 0086 4093 F100 		sts 241,r20
 2718               	.LVL251:
 624:../../LUFA-111009/LUFA/Drivers/USB/Core/AVR8/../AVR8/../AVR8/Endpoint_AVR8.h **** 			}
 2719               		.loc 2 624 12 view .LVU707
 2720               	.LBE347:
 2721               	.LBE346:
  64:../../LUFA-111009/LUFA/Drivers/USB/Core/AVR8/Template/Template_Endpoint_Control_W.c **** 				Length--;
 2722               		.loc 4 64 5 is_stmt 1 view .LVU708
  65:../../LUFA-111009/LUFA/Drivers/USB/Core/AVR8/Template/Template_Endpoint_Control_W.c **** 				BytesInEndpoint++;
 2723               		.loc 4 65 5 view .LVU709
  65:../../LUFA-111009/LUFA/Drivers/USB/Core/AVR8/Template/Template_Endpoint_Control_W.c **** 				BytesInEndpoint++;
 2724               		.loc 4 65 11 is_stmt 0 view .LVU710
 2725 008a 0197      		sbiw r24,1
 2726               	.LVL252:
  66:../../LUFA-111009/LUFA/Drivers/USB/Core/AVR8/Template/Template_Endpoint_Control_W.c **** 			}
 2727               		.loc 4 66 5 is_stmt 1 view .LVU711
  66:../../LUFA-111009/LUFA/Drivers/USB/Core/AVR8/Template/Template_Endpoint_Control_W.c **** 			}
 2728               		.loc 4 66 20 is_stmt 0 view .LVU712
 2729 008c 2F5F      		subi r18,-1
 2730 008e 3F4F      		sbci r19,-1
 2731               	.LVL253:
  66:../../LUFA-111009/LUFA/Drivers/USB/Core/AVR8/Template/Template_Endpoint_Control_W.c **** 			}
 2732               		.loc 4 66 20 view .LVU713
 2733 0090 00C0      		rjmp .L151
 2734               	.LVL254:
 2735               	.L156:
  66:../../LUFA-111009/LUFA/Drivers/USB/Core/AVR8/Template/Template_Endpoint_Control_W.c **** 			}
 2736               		.loc 4 66 20 view .LVU714
 2737               	.LBE341:
 2738               	.LBE334:
 2739               	.LBB348:
  76:../../LUFA-111009/LUFA/Drivers/USB/Core/AVR8/Template/Template_Endpoint_Control_W.c **** 
 2740               		.loc 4 76 3 is_stmt 1 view .LVU715
  76:../../LUFA-111009/LUFA/Drivers/USB/Core/AVR8/Template/Template_Endpoint_Control_W.c **** 
 2741               		.loc 4 76 11 is_stmt 0 view .LVU716
 2742 0092 8EB3      		in r24,0x1e
 2743               	.LVL255:
  78:../../LUFA-111009/LUFA/Drivers/USB/Core/AVR8/Template/Template_Endpoint_Control_W.c **** 		  return ENDPOINT_RWCSTREAM_DeviceDisconnected;
 2744               		.loc 4 78 3 is_stmt 1 view .LVU717
  78:../../LUFA-111009/LUFA/Drivers/USB/Core/AVR8/Template/Template_Endpoint_Control_W.c **** 		  return ENDPOINT_RWCSTREAM_DeviceDisconnected;
 2745               		.loc 4 78 6 is_stmt 0 view .LVU718
 2746 0094 8823      		tst r24
 2747 0096 01F0      		breq .L161
  80:../../LUFA-111009/LUFA/Drivers/USB/Core/AVR8/Template/Template_Endpoint_Control_W.c **** 		  return ENDPOINT_RWCSTREAM_BusSuspended;
 2748               		.loc 4 80 8 is_stmt 1 view .LVU719
  80:../../LUFA-111009/LUFA/Drivers/USB/Core/AVR8/Template/Template_Endpoint_Control_W.c **** 		  return ENDPOINT_RWCSTREAM_BusSuspended;
 2749               		.loc 4 80 11 is_stmt 0 view .LVU720
 2750 0098 8530      		cpi r24,lo8(5)
 2751 009a 01F4      		brne .L168
 2752               	.LVL256:
 2753               	.L162:
  80:../../LUFA-111009/LUFA/Drivers/USB/Core/AVR8/Template/Template_Endpoint_Control_W.c **** 		  return ENDPOINT_RWCSTREAM_BusSuspended;
 2754               		.loc 4 80 11 view .LVU721
 2755               	.LBE348:
 2756               	.LBB349:
  51:../../LUFA-111009/LUFA/Drivers/USB/Core/AVR8/Template/Template_Endpoint_Control_W.c **** 		else if (Endpoint_IsSETUPReceived())
 2757               		.loc 4 51 12 view .LVU722
 2758 009c 83E0      		ldi r24,lo8(3)
 2759               	/* epilogue start */
 2760               	.LBE349:
  85:../../LUFA-111009/LUFA/Drivers/USB/Core/AVR8/Template/Template_Endpoint_Control_W.c **** }
 2761               		.loc 4 85 1 view .LVU723
 2762 009e 0895      		ret
 2763               	.LVL257:
 2764               	.L160:
 2765               	.LBB350:
  53:../../LUFA-111009/LUFA/Drivers/USB/Core/AVR8/Template/Template_Endpoint_Control_W.c **** 		else if (Endpoint_IsOUTReceived())
 2766               		.loc 4 53 12 view .LVU724
 2767 00a0 81E0      		ldi r24,lo8(1)
 2768               	.LVL258:
  53:../../LUFA-111009/LUFA/Drivers/USB/Core/AVR8/Template/Template_Endpoint_Control_W.c **** 		else if (Endpoint_IsOUTReceived())
 2769               		.loc 4 53 12 view .LVU725
 2770 00a2 0895      		ret
 2771               	.L161:
  49:../../LUFA-111009/LUFA/Drivers/USB/Core/AVR8/Template/Template_Endpoint_Control_W.c **** 		else if (USB_DeviceState_LCL == DEVICE_STATE_Suspended)
 2772               		.loc 4 49 12 view .LVU726
 2773 00a4 82E0      		ldi r24,lo8(2)
 2774 00a6 0895      		ret
 2775               	.LBE350:
 2776               		.cfi_endproc
 2777               	.LFE93:
 2779               		.section	.text.Endpoint_Write_Control_Stream_BE,"ax",@progbits
 2780               	.global	Endpoint_Write_Control_Stream_BE
 2782               	Endpoint_Write_Control_Stream_BE:
 2783               	.LVL259:
 2784               	.LFB94:
  35:../../LUFA-111009/LUFA/Drivers/USB/Core/AVR8/Template/Template_Endpoint_Control_W.c **** 	uint8_t* DataStream     = ((uint8_t*)Buffer + TEMPLATE_BUFFER_OFFSET(Length));
 2785               		.loc 4 35 1 is_stmt 1 view -0
 2786               		.cfi_startproc
 2787               	/* prologue: function */
 2788               	/* frame size = 0 */
 2789               	/* stack size = 0 */
 2790               	.L__stack_usage = 0
  35:../../LUFA-111009/LUFA/Drivers/USB/Core/AVR8/Template/Template_Endpoint_Control_W.c **** 	uint8_t* DataStream     = ((uint8_t*)Buffer + TEMPLATE_BUFFER_OFFSET(Length));
 2791               		.loc 4 35 1 is_stmt 0 view .LVU728
 2792 0000 9B01      		movw r18,r22
  36:../../LUFA-111009/LUFA/Drivers/USB/Core/AVR8/Template/Template_Endpoint_Control_W.c **** 	bool     LastPacketFull = false;
 2793               		.loc 4 36 2 is_stmt 1 view .LVU729
  36:../../LUFA-111009/LUFA/Drivers/USB/Core/AVR8/Template/Template_Endpoint_Control_W.c **** 	bool     LastPacketFull = false;
 2794               		.loc 4 36 46 is_stmt 0 view .LVU730
 2795 0002 FB01      		movw r30,r22
 2796 0004 3197      		sbiw r30,1
  36:../../LUFA-111009/LUFA/Drivers/USB/Core/AVR8/Template/Template_Endpoint_Control_W.c **** 	bool     LastPacketFull = false;
 2797               		.loc 4 36 11 view .LVU731
 2798 0006 E80F      		add r30,r24
 2799 0008 F91F      		adc r31,r25
 2800               	.LVL260:
  37:../../LUFA-111009/LUFA/Drivers/USB/Core/AVR8/Template/Template_Endpoint_Control_W.c **** 
 2801               		.loc 4 37 2 is_stmt 1 view .LVU732
  39:../../LUFA-111009/LUFA/Drivers/USB/Core/AVR8/Template/Template_Endpoint_Control_W.c **** 	  Length = USB_ControlRequest.wLength;
 2802               		.loc 4 39 2 view .LVU733
  39:../../LUFA-111009/LUFA/Drivers/USB/Core/AVR8/Template/Template_Endpoint_Control_W.c **** 	  Length = USB_ControlRequest.wLength;
 2803               		.loc 4 39 33 is_stmt 0 view .LVU734
 2804 000a 8091 0000 		lds r24,USB_ControlRequest+6
 2805 000e 9091 0000 		lds r25,USB_ControlRequest+6+1
 2806               	.LVL261:
  39:../../LUFA-111009/LUFA/Drivers/USB/Core/AVR8/Template/Template_Endpoint_Control_W.c **** 	  Length = USB_ControlRequest.wLength;
 2807               		.loc 4 39 5 view .LVU735
 2808 0012 8617      		cp r24,r22
 2809 0014 9707      		cpc r25,r23
 2810 0016 00F0      		brlo .L184
  41:../../LUFA-111009/LUFA/Drivers/USB/Core/AVR8/Template/Template_Endpoint_Control_W.c **** 	  Endpoint_ClearIN();
 2811               		.loc 4 41 7 is_stmt 1 view .LVU736
  41:../../LUFA-111009/LUFA/Drivers/USB/Core/AVR8/Template/Template_Endpoint_Control_W.c **** 	  Endpoint_ClearIN();
 2812               		.loc 4 41 10 is_stmt 0 view .LVU737
 2813 0018 672B      		or r22,r23
 2814 001a 01F4      		brne .L173
  42:../../LUFA-111009/LUFA/Drivers/USB/Core/AVR8/Template/Template_Endpoint_Control_W.c **** 
 2815               		.loc 4 42 4 is_stmt 1 view .LVU738
 2816               	.LBB351:
 2817               	.LBI351:
 513:../../LUFA-111009/LUFA/Drivers/USB/Core/AVR8/../AVR8/../AVR8/Endpoint_AVR8.h **** 			{
 2818               		.loc 2 513 23 view .LVU739
 2819               	.LBB352:
 516:../../LUFA-111009/LUFA/Drivers/USB/Core/AVR8/../AVR8/../AVR8/Endpoint_AVR8.h **** 				#else
 2820               		.loc 2 516 6 view .LVU740
 516:../../LUFA-111009/LUFA/Drivers/USB/Core/AVR8/../AVR8/../AVR8/Endpoint_AVR8.h **** 				#else
 2821               		.loc 2 516 13 is_stmt 0 view .LVU741
 2822 001c 8091 E800 		lds r24,232
 2823 0020 8E77      		andi r24,lo8(126)
 2824 0022 8093 E800 		sts 232,r24
 2825               	.L173:
 516:../../LUFA-111009/LUFA/Drivers/USB/Core/AVR8/../AVR8/../AVR8/Endpoint_AVR8.h **** 				#else
 2826               		.loc 2 516 13 view .LVU742
 2827               	.LBE352:
 2828               	.LBE351:
 2829 0026 80E0      		ldi r24,0
 2830               	.LVL262:
 2831               	.L177:
  44:../../LUFA-111009/LUFA/Drivers/USB/Core/AVR8/Template/Template_Endpoint_Control_W.c **** 	{
 2832               		.loc 4 44 8 is_stmt 1 view .LVU743
 2833 0028 2115      		cp r18,__zero_reg__
 2834 002a 3105      		cpc r19,__zero_reg__
 2835 002c 01F4      		brne .L182
  44:../../LUFA-111009/LUFA/Drivers/USB/Core/AVR8/Template/Template_Endpoint_Control_W.c **** 	{
 2836               		.loc 4 44 16 is_stmt 0 discriminator 1 view .LVU744
 2837 002e 8111      		cpse r24,__zero_reg__
 2838 0030 00C0      		rjmp .L182
 2839               	.LVL263:
 2840               	.L195:
  74:../../LUFA-111009/LUFA/Drivers/USB/Core/AVR8/Template/Template_Endpoint_Control_W.c **** 	{
 2841               		.loc 4 74 8 is_stmt 1 view .LVU745
 2842               	.LBB353:
 2843               	.LBI353:
 477:../../LUFA-111009/LUFA/Drivers/USB/Core/AVR8/../AVR8/../AVR8/Endpoint_AVR8.h **** 			{
 2844               		.loc 2 477 23 view .LVU746
 2845               	.LBB354:
 479:../../LUFA-111009/LUFA/Drivers/USB/Core/AVR8/../AVR8/../AVR8/Endpoint_AVR8.h **** 			}
 2846               		.loc 2 479 5 view .LVU747
 479:../../LUFA-111009/LUFA/Drivers/USB/Core/AVR8/../AVR8/../AVR8/Endpoint_AVR8.h **** 			}
 2847               		.loc 2 479 14 is_stmt 0 view .LVU748
 2848 0032 8091 E800 		lds r24,232
 2849               	.LBE354:
 2850               	.LBE353:
  74:../../LUFA-111009/LUFA/Drivers/USB/Core/AVR8/Template/Template_Endpoint_Control_W.c **** 	{
 2851               		.loc 4 74 8 view .LVU749
 2852 0036 82FF      		sbrs r24,2
 2853 0038 00C0      		rjmp .L183
  84:../../LUFA-111009/LUFA/Drivers/USB/Core/AVR8/Template/Template_Endpoint_Control_W.c **** }
 2854               		.loc 4 84 9 view .LVU750
 2855 003a 80E0      		ldi r24,0
 2856 003c 0895      		ret
 2857               	.LVL264:
 2858               	.L184:
  84:../../LUFA-111009/LUFA/Drivers/USB/Core/AVR8/Template/Template_Endpoint_Control_W.c **** }
 2859               		.loc 4 84 9 view .LVU751
 2860 003e 9C01      		movw r18,r24
 2861               	.LVL265:
  84:../../LUFA-111009/LUFA/Drivers/USB/Core/AVR8/Template/Template_Endpoint_Control_W.c **** }
 2862               		.loc 4 84 9 view .LVU752
 2863 0040 00C0      		rjmp .L173
 2864               	.LVL266:
 2865               	.L182:
 2866               	.LBB355:
  46:../../LUFA-111009/LUFA/Drivers/USB/Core/AVR8/Template/Template_Endpoint_Control_W.c **** 
 2867               		.loc 4 46 3 is_stmt 1 view .LVU753
  46:../../LUFA-111009/LUFA/Drivers/USB/Core/AVR8/Template/Template_Endpoint_Control_W.c **** 
 2868               		.loc 4 46 11 is_stmt 0 view .LVU754
 2869 0042 9EB3      		in r25,0x1e
 2870               	.LVL267:
  48:../../LUFA-111009/LUFA/Drivers/USB/Core/AVR8/Template/Template_Endpoint_Control_W.c **** 		  return ENDPOINT_RWCSTREAM_DeviceDisconnected;
 2871               		.loc 4 48 3 is_stmt 1 view .LVU755
  48:../../LUFA-111009/LUFA/Drivers/USB/Core/AVR8/Template/Template_Endpoint_Control_W.c **** 		  return ENDPOINT_RWCSTREAM_DeviceDisconnected;
 2872               		.loc 4 48 6 is_stmt 0 view .LVU756
 2873 0044 9923      		tst r25
 2874 0046 01F0      		breq .L188
  50:../../LUFA-111009/LUFA/Drivers/USB/Core/AVR8/Template/Template_Endpoint_Control_W.c **** 		  return ENDPOINT_RWCSTREAM_BusSuspended;
 2875               		.loc 4 50 8 is_stmt 1 view .LVU757
  50:../../LUFA-111009/LUFA/Drivers/USB/Core/AVR8/Template/Template_Endpoint_Control_W.c **** 		  return ENDPOINT_RWCSTREAM_BusSuspended;
 2876               		.loc 4 50 11 is_stmt 0 view .LVU758
 2877 0048 9530      		cpi r25,lo8(5)
 2878 004a 01F0      		breq .L189
  52:../../LUFA-111009/LUFA/Drivers/USB/Core/AVR8/Template/Template_Endpoint_Control_W.c **** 		  return ENDPOINT_RWCSTREAM_HostAborted;
 2879               		.loc 4 52 8 is_stmt 1 view .LVU759
 2880               	.LBB356:
 2881               	.LBI356:
 489:../../LUFA-111009/LUFA/Drivers/USB/Core/AVR8/../AVR8/../AVR8/Endpoint_AVR8.h **** 			{
 2882               		.loc 2 489 23 view .LVU760
 2883               	.LBB357:
 491:../../LUFA-111009/LUFA/Drivers/USB/Core/AVR8/../AVR8/../AVR8/Endpoint_AVR8.h **** 			}
 2884               		.loc 2 491 5 view .LVU761
 491:../../LUFA-111009/LUFA/Drivers/USB/Core/AVR8/../AVR8/../AVR8/Endpoint_AVR8.h **** 			}
 2885               		.loc 2 491 14 is_stmt 0 view .LVU762
 2886 004c 9091 E800 		lds r25,232
 2887               	.LVL268:
 491:../../LUFA-111009/LUFA/Drivers/USB/Core/AVR8/../AVR8/../AVR8/Endpoint_AVR8.h **** 			}
 2888               		.loc 2 491 14 view .LVU763
 2889               	.LBE357:
 2890               	.LBE356:
  52:../../LUFA-111009/LUFA/Drivers/USB/Core/AVR8/Template/Template_Endpoint_Control_W.c **** 		  return ENDPOINT_RWCSTREAM_HostAborted;
 2891               		.loc 4 52 11 view .LVU764
 2892 0050 93FD      		sbrc r25,3
 2893 0052 00C0      		rjmp .L187
  54:../../LUFA-111009/LUFA/Drivers/USB/Core/AVR8/Template/Template_Endpoint_Control_W.c **** 		  break;
 2894               		.loc 4 54 8 is_stmt 1 view .LVU765
 2895               	.LBB358:
 2896               	.LBI358:
 477:../../LUFA-111009/LUFA/Drivers/USB/Core/AVR8/../AVR8/../AVR8/Endpoint_AVR8.h **** 			{
 2897               		.loc 2 477 23 view .LVU766
 2898               	.LBB359:
 479:../../LUFA-111009/LUFA/Drivers/USB/Core/AVR8/../AVR8/../AVR8/Endpoint_AVR8.h **** 			}
 2899               		.loc 2 479 5 view .LVU767
 479:../../LUFA-111009/LUFA/Drivers/USB/Core/AVR8/../AVR8/../AVR8/Endpoint_AVR8.h **** 			}
 2900               		.loc 2 479 14 is_stmt 0 view .LVU768
 2901 0054 9091 E800 		lds r25,232
 2902               	.LBE359:
 2903               	.LBE358:
  54:../../LUFA-111009/LUFA/Drivers/USB/Core/AVR8/Template/Template_Endpoint_Control_W.c **** 		  break;
 2904               		.loc 4 54 11 view .LVU769
 2905 0058 92FD      		sbrc r25,2
 2906 005a 00C0      		rjmp .L195
  57:../../LUFA-111009/LUFA/Drivers/USB/Core/AVR8/Template/Template_Endpoint_Control_W.c **** 		{
 2907               		.loc 4 57 3 is_stmt 1 view .LVU770
 2908               	.LBB360:
 2909               	.LBI360:
 465:../../LUFA-111009/LUFA/Drivers/USB/Core/AVR8/../AVR8/../AVR8/Endpoint_AVR8.h **** 			{
 2910               		.loc 2 465 23 view .LVU771
 2911               	.LBB361:
 467:../../LUFA-111009/LUFA/Drivers/USB/Core/AVR8/../AVR8/../AVR8/Endpoint_AVR8.h **** 			}
 2912               		.loc 2 467 5 view .LVU772
 467:../../LUFA-111009/LUFA/Drivers/USB/Core/AVR8/../AVR8/../AVR8/Endpoint_AVR8.h **** 			}
 2913               		.loc 2 467 14 is_stmt 0 view .LVU773
 2914 005c 9091 E800 		lds r25,232
 2915               	.LBE361:
 2916               	.LBE360:
  57:../../LUFA-111009/LUFA/Drivers/USB/Core/AVR8/Template/Template_Endpoint_Control_W.c **** 		{
 2917               		.loc 4 57 6 view .LVU774
 2918 0060 90FF      		sbrs r25,0
 2919 0062 00C0      		rjmp .L177
 2920               	.LBB362:
  59:../../LUFA-111009/LUFA/Drivers/USB/Core/AVR8/Template/Template_Endpoint_Control_W.c **** 
 2921               		.loc 4 59 4 is_stmt 1 view .LVU775
 2922               	.LBB363:
 2923               	.LBI363:
 290:../../LUFA-111009/LUFA/Drivers/USB/Core/AVR8/../AVR8/../AVR8/Endpoint_AVR8.h **** 			{
 2924               		.loc 2 290 27 view .LVU776
 2925               	.LBB364:
 295:../../LUFA-111009/LUFA/Drivers/USB/Core/AVR8/../AVR8/../AVR8/Endpoint_AVR8.h **** 				#elif defined(USB_SERIES_2_AVR)
 2926               		.loc 2 295 6 view .LVU777
 295:../../LUFA-111009/LUFA/Drivers/USB/Core/AVR8/../AVR8/../AVR8/Endpoint_AVR8.h **** 				#elif defined(USB_SERIES_2_AVR)
 2927               		.loc 2 295 25 is_stmt 0 view .LVU778
 2928 0064 8091 F300 		lds r24,243
 2929               	.LVL269:
 295:../../LUFA-111009/LUFA/Drivers/USB/Core/AVR8/../AVR8/../AVR8/Endpoint_AVR8.h **** 				#elif defined(USB_SERIES_2_AVR)
 2930               		.loc 2 295 40 view .LVU779
 2931 0068 4091 F200 		lds r20,242
 295:../../LUFA-111009/LUFA/Drivers/USB/Core/AVR8/../AVR8/../AVR8/Endpoint_AVR8.h **** 				#elif defined(USB_SERIES_2_AVR)
 2932               		.loc 2 295 38 view .LVU780
 2933 006c 582F      		mov r21,r24
 2934               	.LVL270:
 295:../../LUFA-111009/LUFA/Drivers/USB/Core/AVR8/../AVR8/../AVR8/Endpoint_AVR8.h **** 				#elif defined(USB_SERIES_2_AVR)
 2935               		.loc 2 295 38 view .LVU781
 2936               	.LBE364:
 2937               	.LBE363:
  61:../../LUFA-111009/LUFA/Drivers/USB/Core/AVR8/Template/Template_Endpoint_Control_W.c **** 			{
 2938               		.loc 4 61 4 is_stmt 1 view .LVU782
 2939               	.L178:
  61:../../LUFA-111009/LUFA/Drivers/USB/Core/AVR8/Template/Template_Endpoint_Control_W.c **** 			{
 2940               		.loc 4 61 10 view .LVU783
 2941 006e 2115      		cp r18,__zero_reg__
 2942 0070 3105      		cpc r19,__zero_reg__
 2943 0072 01F0      		breq .L179
  61:../../LUFA-111009/LUFA/Drivers/USB/Core/AVR8/Template/Template_Endpoint_Control_W.c **** 			{
 2944               		.loc 4 61 18 is_stmt 0 discriminator 1 view .LVU784
 2945 0074 4830      		cpi r20,8
 2946 0076 5105      		cpc r21,__zero_reg__
 2947 0078 00F0      		brlo .L180
 2948               	.L179:
  69:../../LUFA-111009/LUFA/Drivers/USB/Core/AVR8/Template/Template_Endpoint_Control_W.c **** 			Endpoint_ClearIN();
 2949               		.loc 4 69 4 is_stmt 1 view .LVU785
  69:../../LUFA-111009/LUFA/Drivers/USB/Core/AVR8/Template/Template_Endpoint_Control_W.c **** 			Endpoint_ClearIN();
 2950               		.loc 4 69 19 is_stmt 0 view .LVU786
 2951 007a 81E0      		ldi r24,lo8(1)
 2952 007c 4830      		cpi r20,8
 2953 007e 5105      		cpc r21,__zero_reg__
 2954 0080 01F0      		breq .L181
 2955 0082 80E0      		ldi r24,0
 2956               	.L181:
 2957               	.LVL271:
  70:../../LUFA-111009/LUFA/Drivers/USB/Core/AVR8/Template/Template_Endpoint_Control_W.c **** 		}
 2958               		.loc 4 70 4 is_stmt 1 view .LVU787
 2959               	.LBB365:
 2960               	.LBI365:
 513:../../LUFA-111009/LUFA/Drivers/USB/Core/AVR8/../AVR8/../AVR8/Endpoint_AVR8.h **** 			{
 2961               		.loc 2 513 23 view .LVU788
 2962               	.LBB366:
 516:../../LUFA-111009/LUFA/Drivers/USB/Core/AVR8/../AVR8/../AVR8/Endpoint_AVR8.h **** 				#else
 2963               		.loc 2 516 6 view .LVU789
 516:../../LUFA-111009/LUFA/Drivers/USB/Core/AVR8/../AVR8/../AVR8/Endpoint_AVR8.h **** 				#else
 2964               		.loc 2 516 13 is_stmt 0 view .LVU790
 2965 0084 9091 E800 		lds r25,232
 2966 0088 9E77      		andi r25,lo8(126)
 2967 008a 9093 E800 		sts 232,r25
 2968               	.LVL272:
 520:../../LUFA-111009/LUFA/Drivers/USB/Core/AVR8/../AVR8/../AVR8/Endpoint_AVR8.h **** 
 2969               		.loc 2 520 4 view .LVU791
 2970 008e 00C0      		rjmp .L177
 2971               	.LVL273:
 2972               	.L180:
 520:../../LUFA-111009/LUFA/Drivers/USB/Core/AVR8/../AVR8/../AVR8/Endpoint_AVR8.h **** 
 2973               		.loc 2 520 4 view .LVU792
 2974               	.LBE366:
 2975               	.LBE365:
  63:../../LUFA-111009/LUFA/Drivers/USB/Core/AVR8/Template/Template_Endpoint_Control_W.c **** 				TEMPLATE_BUFFER_MOVE(DataStream, 1);
 2976               		.loc 4 63 5 is_stmt 1 view .LVU793
 2977 0090 8081      		ld r24,Z
 2978               	.LVL274:
 2979               	.LBB367:
 2980               	.LBI367:
 622:../../LUFA-111009/LUFA/Drivers/USB/Core/AVR8/../AVR8/../AVR8/Endpoint_AVR8.h **** 			{
 2981               		.loc 2 622 23 view .LVU794
 2982               	.LBB368:
 624:../../LUFA-111009/LUFA/Drivers/USB/Core/AVR8/../AVR8/../AVR8/Endpoint_AVR8.h **** 			}
 2983               		.loc 2 624 5 view .LVU795
 624:../../LUFA-111009/LUFA/Drivers/USB/Core/AVR8/../AVR8/../AVR8/Endpoint_AVR8.h **** 			}
 2984               		.loc 2 624 12 is_stmt 0 view .LVU796
 2985 0092 8093 F100 		sts 241,r24
 2986               	.LVL275:
 624:../../LUFA-111009/LUFA/Drivers/USB/Core/AVR8/../AVR8/../AVR8/Endpoint_AVR8.h **** 			}
 2987               		.loc 2 624 12 view .LVU797
 2988               	.LBE368:
 2989               	.LBE367:
  64:../../LUFA-111009/LUFA/Drivers/USB/Core/AVR8/Template/Template_Endpoint_Control_W.c **** 				Length--;
 2990               		.loc 4 64 5 is_stmt 1 view .LVU798
 2991 0096 3197      		sbiw r30,1
 2992               	.LVL276:
  65:../../LUFA-111009/LUFA/Drivers/USB/Core/AVR8/Template/Template_Endpoint_Control_W.c **** 				BytesInEndpoint++;
 2993               		.loc 4 65 5 view .LVU799
  65:../../LUFA-111009/LUFA/Drivers/USB/Core/AVR8/Template/Template_Endpoint_Control_W.c **** 				BytesInEndpoint++;
 2994               		.loc 4 65 11 is_stmt 0 view .LVU800
 2995 0098 2150      		subi r18,1
 2996 009a 3109      		sbc r19,__zero_reg__
 2997               	.LVL277:
  66:../../LUFA-111009/LUFA/Drivers/USB/Core/AVR8/Template/Template_Endpoint_Control_W.c **** 			}
 2998               		.loc 4 66 5 is_stmt 1 view .LVU801
  66:../../LUFA-111009/LUFA/Drivers/USB/Core/AVR8/Template/Template_Endpoint_Control_W.c **** 			}
 2999               		.loc 4 66 20 is_stmt 0 view .LVU802
 3000 009c 4F5F      		subi r20,-1
 3001 009e 5F4F      		sbci r21,-1
 3002               	.LVL278:
  66:../../LUFA-111009/LUFA/Drivers/USB/Core/AVR8/Template/Template_Endpoint_Control_W.c **** 			}
 3003               		.loc 4 66 20 view .LVU803
 3004 00a0 00C0      		rjmp .L178
 3005               	.LVL279:
 3006               	.L183:
  66:../../LUFA-111009/LUFA/Drivers/USB/Core/AVR8/Template/Template_Endpoint_Control_W.c **** 			}
 3007               		.loc 4 66 20 view .LVU804
 3008               	.LBE362:
 3009               	.LBE355:
 3010               	.LBB369:
  76:../../LUFA-111009/LUFA/Drivers/USB/Core/AVR8/Template/Template_Endpoint_Control_W.c **** 
 3011               		.loc 4 76 3 is_stmt 1 view .LVU805
  76:../../LUFA-111009/LUFA/Drivers/USB/Core/AVR8/Template/Template_Endpoint_Control_W.c **** 
 3012               		.loc 4 76 11 is_stmt 0 view .LVU806
 3013 00a2 8EB3      		in r24,0x1e
 3014               	.LVL280:
  78:../../LUFA-111009/LUFA/Drivers/USB/Core/AVR8/Template/Template_Endpoint_Control_W.c **** 		  return ENDPOINT_RWCSTREAM_DeviceDisconnected;
 3015               		.loc 4 78 3 is_stmt 1 view .LVU807
  78:../../LUFA-111009/LUFA/Drivers/USB/Core/AVR8/Template/Template_Endpoint_Control_W.c **** 		  return ENDPOINT_RWCSTREAM_DeviceDisconnected;
 3016               		.loc 4 78 6 is_stmt 0 view .LVU808
 3017 00a4 8823      		tst r24
 3018 00a6 01F0      		breq .L188
  80:../../LUFA-111009/LUFA/Drivers/USB/Core/AVR8/Template/Template_Endpoint_Control_W.c **** 		  return ENDPOINT_RWCSTREAM_BusSuspended;
 3019               		.loc 4 80 8 is_stmt 1 view .LVU809
  80:../../LUFA-111009/LUFA/Drivers/USB/Core/AVR8/Template/Template_Endpoint_Control_W.c **** 		  return ENDPOINT_RWCSTREAM_BusSuspended;
 3020               		.loc 4 80 11 is_stmt 0 view .LVU810
 3021 00a8 8530      		cpi r24,lo8(5)
 3022 00aa 01F4      		brne .L195
 3023               	.LVL281:
 3024               	.L189:
  80:../../LUFA-111009/LUFA/Drivers/USB/Core/AVR8/Template/Template_Endpoint_Control_W.c **** 		  return ENDPOINT_RWCSTREAM_BusSuspended;
 3025               		.loc 4 80 11 view .LVU811
 3026               	.LBE369:
 3027               	.LBB370:
  51:../../LUFA-111009/LUFA/Drivers/USB/Core/AVR8/Template/Template_Endpoint_Control_W.c **** 		else if (Endpoint_IsSETUPReceived())
 3028               		.loc 4 51 12 view .LVU812
 3029 00ac 83E0      		ldi r24,lo8(3)
 3030               	/* epilogue start */
 3031               	.LBE370:
 3032               		.loc 4 85 1 view .LVU813
 3033 00ae 0895      		ret
 3034               	.LVL282:
 3035               	.L187:
 3036               	.LBB371:
  53:../../LUFA-111009/LUFA/Drivers/USB/Core/AVR8/Template/Template_Endpoint_Control_W.c **** 		else if (Endpoint_IsOUTReceived())
 3037               		.loc 4 53 12 view .LVU814
 3038 00b0 81E0      		ldi r24,lo8(1)
 3039               	.LVL283:
  53:../../LUFA-111009/LUFA/Drivers/USB/Core/AVR8/Template/Template_Endpoint_Control_W.c **** 		else if (Endpoint_IsOUTReceived())
 3040               		.loc 4 53 12 view .LVU815
 3041 00b2 0895      		ret
 3042               	.L188:
  49:../../LUFA-111009/LUFA/Drivers/USB/Core/AVR8/Template/Template_Endpoint_Control_W.c **** 		else if (USB_DeviceState_LCL == DEVICE_STATE_Suspended)
 3043               		.loc 4 49 12 view .LVU816
 3044 00b4 82E0      		ldi r24,lo8(2)
 3045 00b6 0895      		ret
 3046               	.LBE371:
 3047               		.cfi_endproc
 3048               	.LFE94:
 3050               		.section	.text.Endpoint_Read_Control_Stream_LE,"ax",@progbits
 3051               	.global	Endpoint_Read_Control_Stream_LE
 3053               	Endpoint_Read_Control_Stream_LE:
 3054               	.LVL284:
 3055               	.LFB95:
 3056               		.file 5 "../../LUFA-111009/LUFA/Drivers/USB/Core/AVR8/Template/Template_Endpoint_Control_R.c"
   1:../../LUFA-111009/LUFA/Drivers/USB/Core/AVR8/Template/Template_Endpoint_Control_R.c **** /*
   2:../../LUFA-111009/LUFA/Drivers/USB/Core/AVR8/Template/Template_Endpoint_Control_R.c ****              LUFA Library
   3:../../LUFA-111009/LUFA/Drivers/USB/Core/AVR8/Template/Template_Endpoint_Control_R.c ****      Copyright (C) Dean Camera, 2011.
   4:../../LUFA-111009/LUFA/Drivers/USB/Core/AVR8/Template/Template_Endpoint_Control_R.c **** 
   5:../../LUFA-111009/LUFA/Drivers/USB/Core/AVR8/Template/Template_Endpoint_Control_R.c ****   dean [at] fourwalledcubicle [dot] com
   6:../../LUFA-111009/LUFA/Drivers/USB/Core/AVR8/Template/Template_Endpoint_Control_R.c ****            www.lufa-lib.org
   7:../../LUFA-111009/LUFA/Drivers/USB/Core/AVR8/Template/Template_Endpoint_Control_R.c **** */
   8:../../LUFA-111009/LUFA/Drivers/USB/Core/AVR8/Template/Template_Endpoint_Control_R.c **** 
   9:../../LUFA-111009/LUFA/Drivers/USB/Core/AVR8/Template/Template_Endpoint_Control_R.c **** /*
  10:../../LUFA-111009/LUFA/Drivers/USB/Core/AVR8/Template/Template_Endpoint_Control_R.c ****   Copyright 2011  Dean Camera (dean [at] fourwalledcubicle [dot] com)
  11:../../LUFA-111009/LUFA/Drivers/USB/Core/AVR8/Template/Template_Endpoint_Control_R.c **** 
  12:../../LUFA-111009/LUFA/Drivers/USB/Core/AVR8/Template/Template_Endpoint_Control_R.c ****   Permission to use, copy, modify, distribute, and sell this
  13:../../LUFA-111009/LUFA/Drivers/USB/Core/AVR8/Template/Template_Endpoint_Control_R.c ****   software and its documentation for any purpose is hereby granted
  14:../../LUFA-111009/LUFA/Drivers/USB/Core/AVR8/Template/Template_Endpoint_Control_R.c ****   without fee, provided that the above copyright notice appear in
  15:../../LUFA-111009/LUFA/Drivers/USB/Core/AVR8/Template/Template_Endpoint_Control_R.c ****   all copies and that both that the copyright notice and this
  16:../../LUFA-111009/LUFA/Drivers/USB/Core/AVR8/Template/Template_Endpoint_Control_R.c ****   permission notice and warranty disclaimer appear in supporting
  17:../../LUFA-111009/LUFA/Drivers/USB/Core/AVR8/Template/Template_Endpoint_Control_R.c ****   documentation, and that the name of the author not be used in
  18:../../LUFA-111009/LUFA/Drivers/USB/Core/AVR8/Template/Template_Endpoint_Control_R.c ****   advertising or publicity pertaining to distribution of the
  19:../../LUFA-111009/LUFA/Drivers/USB/Core/AVR8/Template/Template_Endpoint_Control_R.c ****   software without specific, written prior permission.
  20:../../LUFA-111009/LUFA/Drivers/USB/Core/AVR8/Template/Template_Endpoint_Control_R.c **** 
  21:../../LUFA-111009/LUFA/Drivers/USB/Core/AVR8/Template/Template_Endpoint_Control_R.c ****   The author disclaim all warranties with regard to this
  22:../../LUFA-111009/LUFA/Drivers/USB/Core/AVR8/Template/Template_Endpoint_Control_R.c ****   software, including all implied warranties of merchantability
  23:../../LUFA-111009/LUFA/Drivers/USB/Core/AVR8/Template/Template_Endpoint_Control_R.c ****   and fitness.  In no event shall the author be liable for any
  24:../../LUFA-111009/LUFA/Drivers/USB/Core/AVR8/Template/Template_Endpoint_Control_R.c ****   special, indirect or consequential damages or any damages
  25:../../LUFA-111009/LUFA/Drivers/USB/Core/AVR8/Template/Template_Endpoint_Control_R.c ****   whatsoever resulting from loss of use, data or profits, whether
  26:../../LUFA-111009/LUFA/Drivers/USB/Core/AVR8/Template/Template_Endpoint_Control_R.c ****   in an action of contract, negligence or other tortious action,
  27:../../LUFA-111009/LUFA/Drivers/USB/Core/AVR8/Template/Template_Endpoint_Control_R.c ****   arising out of or in connection with the use or performance of
  28:../../LUFA-111009/LUFA/Drivers/USB/Core/AVR8/Template/Template_Endpoint_Control_R.c ****   this software.
  29:../../LUFA-111009/LUFA/Drivers/USB/Core/AVR8/Template/Template_Endpoint_Control_R.c **** */
  30:../../LUFA-111009/LUFA/Drivers/USB/Core/AVR8/Template/Template_Endpoint_Control_R.c **** 
  31:../../LUFA-111009/LUFA/Drivers/USB/Core/AVR8/Template/Template_Endpoint_Control_R.c **** #if defined(TEMPLATE_FUNC_NAME)
  32:../../LUFA-111009/LUFA/Drivers/USB/Core/AVR8/Template/Template_Endpoint_Control_R.c **** 
  33:../../LUFA-111009/LUFA/Drivers/USB/Core/AVR8/Template/Template_Endpoint_Control_R.c **** uint8_t TEMPLATE_FUNC_NAME (void* const Buffer,
  34:../../LUFA-111009/LUFA/Drivers/USB/Core/AVR8/Template/Template_Endpoint_Control_R.c ****                             uint16_t Length)
  35:../../LUFA-111009/LUFA/Drivers/USB/Core/AVR8/Template/Template_Endpoint_Control_R.c **** {
 3057               		.loc 5 35 1 is_stmt 1 view -0
 3058               		.cfi_startproc
 3059               	/* prologue: function */
 3060               	/* frame size = 0 */
 3061               	/* stack size = 0 */
 3062               	.L__stack_usage = 0
 3063               		.loc 5 35 1 is_stmt 0 view .LVU818
 3064 0000 FC01      		movw r30,r24
 3065 0002 CB01      		movw r24,r22
 3066               	.LVL285:
  36:../../LUFA-111009/LUFA/Drivers/USB/Core/AVR8/Template/Template_Endpoint_Control_R.c **** 	uint8_t* DataStream = ((uint8_t*)Buffer + TEMPLATE_BUFFER_OFFSET(Length));
 3067               		.loc 5 36 2 is_stmt 1 view .LVU819
  37:../../LUFA-111009/LUFA/Drivers/USB/Core/AVR8/Template/Template_Endpoint_Control_R.c **** 
  38:../../LUFA-111009/LUFA/Drivers/USB/Core/AVR8/Template/Template_Endpoint_Control_R.c **** 	if (!(Length))
 3068               		.loc 5 38 2 view .LVU820
 3069               		.loc 5 38 5 is_stmt 0 view .LVU821
 3070 0004 0097      		sbiw r24,0
 3071 0006 01F4      		brne .L204
 3072               	.LVL286:
 3073               	.L205:
 3074               	.LBB372:
  39:../../LUFA-111009/LUFA/Drivers/USB/Core/AVR8/Template/Template_Endpoint_Control_R.c **** 	  Endpoint_ClearOUT();
  40:../../LUFA-111009/LUFA/Drivers/USB/Core/AVR8/Template/Template_Endpoint_Control_R.c **** 
  41:../../LUFA-111009/LUFA/Drivers/USB/Core/AVR8/Template/Template_Endpoint_Control_R.c **** 	while (Length)
  42:../../LUFA-111009/LUFA/Drivers/USB/Core/AVR8/Template/Template_Endpoint_Control_R.c **** 	{
  43:../../LUFA-111009/LUFA/Drivers/USB/Core/AVR8/Template/Template_Endpoint_Control_R.c **** 		uint8_t USB_DeviceState_LCL = USB_DeviceState;
  44:../../LUFA-111009/LUFA/Drivers/USB/Core/AVR8/Template/Template_Endpoint_Control_R.c **** 
  45:../../LUFA-111009/LUFA/Drivers/USB/Core/AVR8/Template/Template_Endpoint_Control_R.c **** 		if (USB_DeviceState_LCL == DEVICE_STATE_Unattached)
  46:../../LUFA-111009/LUFA/Drivers/USB/Core/AVR8/Template/Template_Endpoint_Control_R.c **** 		  return ENDPOINT_RWCSTREAM_DeviceDisconnected;
  47:../../LUFA-111009/LUFA/Drivers/USB/Core/AVR8/Template/Template_Endpoint_Control_R.c **** 		else if (USB_DeviceState_LCL == DEVICE_STATE_Suspended)
  48:../../LUFA-111009/LUFA/Drivers/USB/Core/AVR8/Template/Template_Endpoint_Control_R.c **** 		  return ENDPOINT_RWCSTREAM_BusSuspended;
  49:../../LUFA-111009/LUFA/Drivers/USB/Core/AVR8/Template/Template_Endpoint_Control_R.c **** 		else if (Endpoint_IsSETUPReceived())
  50:../../LUFA-111009/LUFA/Drivers/USB/Core/AVR8/Template/Template_Endpoint_Control_R.c **** 		  return ENDPOINT_RWCSTREAM_HostAborted;
  51:../../LUFA-111009/LUFA/Drivers/USB/Core/AVR8/Template/Template_Endpoint_Control_R.c **** 
  52:../../LUFA-111009/LUFA/Drivers/USB/Core/AVR8/Template/Template_Endpoint_Control_R.c **** 		if (Endpoint_IsOUTReceived())
  53:../../LUFA-111009/LUFA/Drivers/USB/Core/AVR8/Template/Template_Endpoint_Control_R.c **** 		{
  54:../../LUFA-111009/LUFA/Drivers/USB/Core/AVR8/Template/Template_Endpoint_Control_R.c **** 			while (Length && Endpoint_BytesInEndpoint())
  55:../../LUFA-111009/LUFA/Drivers/USB/Core/AVR8/Template/Template_Endpoint_Control_R.c **** 			{
  56:../../LUFA-111009/LUFA/Drivers/USB/Core/AVR8/Template/Template_Endpoint_Control_R.c **** 				TEMPLATE_TRANSFER_BYTE(DataStream);
  57:../../LUFA-111009/LUFA/Drivers/USB/Core/AVR8/Template/Template_Endpoint_Control_R.c **** 				TEMPLATE_BUFFER_MOVE(DataStream, 1);
  58:../../LUFA-111009/LUFA/Drivers/USB/Core/AVR8/Template/Template_Endpoint_Control_R.c **** 				Length--;
  59:../../LUFA-111009/LUFA/Drivers/USB/Core/AVR8/Template/Template_Endpoint_Control_R.c **** 			}
  60:../../LUFA-111009/LUFA/Drivers/USB/Core/AVR8/Template/Template_Endpoint_Control_R.c **** 
  61:../../LUFA-111009/LUFA/Drivers/USB/Core/AVR8/Template/Template_Endpoint_Control_R.c **** 			Endpoint_ClearOUT();
 3075               		.loc 5 61 4 is_stmt 1 view .LVU822
 3076               	.LBB373:
 3077               	.LBI373:
 528:../../LUFA-111009/LUFA/Drivers/USB/Core/AVR8/../AVR8/../AVR8/Endpoint_AVR8.h **** 			{
 3078               		.loc 2 528 23 view .LVU823
 3079               	.LBB374:
 531:../../LUFA-111009/LUFA/Drivers/USB/Core/AVR8/../AVR8/../AVR8/Endpoint_AVR8.h **** 				#else
 3080               		.loc 2 531 6 view .LVU824
 531:../../LUFA-111009/LUFA/Drivers/USB/Core/AVR8/../AVR8/../AVR8/Endpoint_AVR8.h **** 				#else
 3081               		.loc 2 531 13 is_stmt 0 view .LVU825
 3082 0008 2091 E800 		lds r18,232
 3083 000c 2B77      		andi r18,lo8(123)
 3084 000e 2093 E800 		sts 232,r18
 3085               	.L204:
 531:../../LUFA-111009/LUFA/Drivers/USB/Core/AVR8/../AVR8/../AVR8/Endpoint_AVR8.h **** 				#else
 3086               		.loc 2 531 13 view .LVU826
 3087               	.LBE374:
 3088               	.LBE373:
 3089               	.LBE372:
  41:../../LUFA-111009/LUFA/Drivers/USB/Core/AVR8/Template/Template_Endpoint_Control_R.c **** 	{
 3090               		.loc 5 41 8 is_stmt 1 view .LVU827
 3091 0012 0097      		sbiw r24,0
 3092 0014 01F4      		brne .L207
 3093               	.LVL287:
 3094               	.L208:
  62:../../LUFA-111009/LUFA/Drivers/USB/Core/AVR8/Template/Template_Endpoint_Control_R.c **** 		}
  63:../../LUFA-111009/LUFA/Drivers/USB/Core/AVR8/Template/Template_Endpoint_Control_R.c **** 	}
  64:../../LUFA-111009/LUFA/Drivers/USB/Core/AVR8/Template/Template_Endpoint_Control_R.c **** 
  65:../../LUFA-111009/LUFA/Drivers/USB/Core/AVR8/Template/Template_Endpoint_Control_R.c **** 	while (!(Endpoint_IsINReady()))
 3095               		.loc 5 65 8 view .LVU828
 3096               	.LBB383:
 3097               	.LBI383:
 465:../../LUFA-111009/LUFA/Drivers/USB/Core/AVR8/../AVR8/../AVR8/Endpoint_AVR8.h **** 			{
 3098               		.loc 2 465 23 view .LVU829
 3099               	.LBB384:
 467:../../LUFA-111009/LUFA/Drivers/USB/Core/AVR8/../AVR8/../AVR8/Endpoint_AVR8.h **** 			}
 3100               		.loc 2 467 5 view .LVU830
 467:../../LUFA-111009/LUFA/Drivers/USB/Core/AVR8/../AVR8/../AVR8/Endpoint_AVR8.h **** 			}
 3101               		.loc 2 467 14 is_stmt 0 view .LVU831
 3102 0016 8091 E800 		lds r24,232
 3103               	.LBE384:
 3104               	.LBE383:
 3105               		.loc 5 65 8 view .LVU832
 3106 001a 80FF      		sbrs r24,0
 3107 001c 00C0      		rjmp .L209
  66:../../LUFA-111009/LUFA/Drivers/USB/Core/AVR8/Template/Template_Endpoint_Control_R.c **** 	{
  67:../../LUFA-111009/LUFA/Drivers/USB/Core/AVR8/Template/Template_Endpoint_Control_R.c **** 		uint8_t USB_DeviceState_LCL = USB_DeviceState;
  68:../../LUFA-111009/LUFA/Drivers/USB/Core/AVR8/Template/Template_Endpoint_Control_R.c **** 
  69:../../LUFA-111009/LUFA/Drivers/USB/Core/AVR8/Template/Template_Endpoint_Control_R.c **** 		if (USB_DeviceState_LCL == DEVICE_STATE_Unattached)
  70:../../LUFA-111009/LUFA/Drivers/USB/Core/AVR8/Template/Template_Endpoint_Control_R.c **** 		  return ENDPOINT_RWCSTREAM_DeviceDisconnected;
  71:../../LUFA-111009/LUFA/Drivers/USB/Core/AVR8/Template/Template_Endpoint_Control_R.c **** 		else if (USB_DeviceState_LCL == DEVICE_STATE_Suspended)
  72:../../LUFA-111009/LUFA/Drivers/USB/Core/AVR8/Template/Template_Endpoint_Control_R.c **** 		  return ENDPOINT_RWCSTREAM_BusSuspended;
  73:../../LUFA-111009/LUFA/Drivers/USB/Core/AVR8/Template/Template_Endpoint_Control_R.c **** 	}
  74:../../LUFA-111009/LUFA/Drivers/USB/Core/AVR8/Template/Template_Endpoint_Control_R.c **** 
  75:../../LUFA-111009/LUFA/Drivers/USB/Core/AVR8/Template/Template_Endpoint_Control_R.c **** 	return ENDPOINT_RWCSTREAM_NoError;
 3108               		.loc 5 75 9 view .LVU833
 3109 001e 80E0      		ldi r24,0
 3110 0020 0895      		ret
 3111               	.LVL288:
 3112               	.L207:
 3113               	.LBB385:
  43:../../LUFA-111009/LUFA/Drivers/USB/Core/AVR8/Template/Template_Endpoint_Control_R.c **** 
 3114               		.loc 5 43 3 is_stmt 1 view .LVU834
  43:../../LUFA-111009/LUFA/Drivers/USB/Core/AVR8/Template/Template_Endpoint_Control_R.c **** 
 3115               		.loc 5 43 11 is_stmt 0 view .LVU835
 3116 0022 2EB3      		in r18,0x1e
 3117               	.LVL289:
  45:../../LUFA-111009/LUFA/Drivers/USB/Core/AVR8/Template/Template_Endpoint_Control_R.c **** 		  return ENDPOINT_RWCSTREAM_DeviceDisconnected;
 3118               		.loc 5 45 3 is_stmt 1 view .LVU836
  45:../../LUFA-111009/LUFA/Drivers/USB/Core/AVR8/Template/Template_Endpoint_Control_R.c **** 		  return ENDPOINT_RWCSTREAM_DeviceDisconnected;
 3119               		.loc 5 45 6 is_stmt 0 view .LVU837
 3120 0024 2223      		tst r18
 3121 0026 01F0      		breq .L213
  47:../../LUFA-111009/LUFA/Drivers/USB/Core/AVR8/Template/Template_Endpoint_Control_R.c **** 		  return ENDPOINT_RWCSTREAM_BusSuspended;
 3122               		.loc 5 47 8 is_stmt 1 view .LVU838
  47:../../LUFA-111009/LUFA/Drivers/USB/Core/AVR8/Template/Template_Endpoint_Control_R.c **** 		  return ENDPOINT_RWCSTREAM_BusSuspended;
 3123               		.loc 5 47 11 is_stmt 0 view .LVU839
 3124 0028 2530      		cpi r18,lo8(5)
 3125 002a 01F0      		breq .L214
  49:../../LUFA-111009/LUFA/Drivers/USB/Core/AVR8/Template/Template_Endpoint_Control_R.c **** 		  return ENDPOINT_RWCSTREAM_HostAborted;
 3126               		.loc 5 49 8 is_stmt 1 view .LVU840
 3127               	.LBB375:
 3128               	.LBI375:
 489:../../LUFA-111009/LUFA/Drivers/USB/Core/AVR8/../AVR8/../AVR8/Endpoint_AVR8.h **** 			{
 3129               		.loc 2 489 23 view .LVU841
 3130               	.LBB376:
 491:../../LUFA-111009/LUFA/Drivers/USB/Core/AVR8/../AVR8/../AVR8/Endpoint_AVR8.h **** 			}
 3131               		.loc 2 491 5 view .LVU842
 491:../../LUFA-111009/LUFA/Drivers/USB/Core/AVR8/../AVR8/../AVR8/Endpoint_AVR8.h **** 			}
 3132               		.loc 2 491 14 is_stmt 0 view .LVU843
 3133 002c 2091 E800 		lds r18,232
 3134               	.LVL290:
 491:../../LUFA-111009/LUFA/Drivers/USB/Core/AVR8/../AVR8/../AVR8/Endpoint_AVR8.h **** 			}
 3135               		.loc 2 491 14 view .LVU844
 3136               	.LBE376:
 3137               	.LBE375:
  49:../../LUFA-111009/LUFA/Drivers/USB/Core/AVR8/Template/Template_Endpoint_Control_R.c **** 		  return ENDPOINT_RWCSTREAM_HostAborted;
 3138               		.loc 5 49 11 view .LVU845
 3139 0030 23FD      		sbrc r18,3
 3140 0032 00C0      		rjmp .L212
  52:../../LUFA-111009/LUFA/Drivers/USB/Core/AVR8/Template/Template_Endpoint_Control_R.c **** 		{
 3141               		.loc 5 52 3 is_stmt 1 view .LVU846
 3142               	.LBB377:
 3143               	.LBI377:
 477:../../LUFA-111009/LUFA/Drivers/USB/Core/AVR8/../AVR8/../AVR8/Endpoint_AVR8.h **** 			{
 3144               		.loc 2 477 23 view .LVU847
 3145               	.LBB378:
 479:../../LUFA-111009/LUFA/Drivers/USB/Core/AVR8/../AVR8/../AVR8/Endpoint_AVR8.h **** 			}
 3146               		.loc 2 479 5 view .LVU848
 479:../../LUFA-111009/LUFA/Drivers/USB/Core/AVR8/../AVR8/../AVR8/Endpoint_AVR8.h **** 			}
 3147               		.loc 2 479 14 is_stmt 0 view .LVU849
 3148 0034 2091 E800 		lds r18,232
 3149               	.LBE378:
 3150               	.LBE377:
  52:../../LUFA-111009/LUFA/Drivers/USB/Core/AVR8/Template/Template_Endpoint_Control_R.c **** 		{
 3151               		.loc 5 52 6 view .LVU850
 3152 0038 22FF      		sbrs r18,2
 3153 003a 00C0      		rjmp .L204
 3154               	.L203:
 3155               	.LBB379:
 3156               	.LBI379:
 290:../../LUFA-111009/LUFA/Drivers/USB/Core/AVR8/../AVR8/../AVR8/Endpoint_AVR8.h **** 			{
 3157               		.loc 2 290 27 is_stmt 1 view .LVU851
 3158               	.LBB380:
 295:../../LUFA-111009/LUFA/Drivers/USB/Core/AVR8/../AVR8/../AVR8/Endpoint_AVR8.h **** 				#elif defined(USB_SERIES_2_AVR)
 3159               		.loc 2 295 6 view .LVU852
 295:../../LUFA-111009/LUFA/Drivers/USB/Core/AVR8/../AVR8/../AVR8/Endpoint_AVR8.h **** 				#elif defined(USB_SERIES_2_AVR)
 3160               		.loc 2 295 25 is_stmt 0 view .LVU853
 3161 003c 3091 F300 		lds r19,243
 295:../../LUFA-111009/LUFA/Drivers/USB/Core/AVR8/../AVR8/../AVR8/Endpoint_AVR8.h **** 				#elif defined(USB_SERIES_2_AVR)
 3162               		.loc 2 295 40 view .LVU854
 3163 0040 2091 F200 		lds r18,242
 3164               	.LBE380:
 3165               	.LBE379:
  54:../../LUFA-111009/LUFA/Drivers/USB/Core/AVR8/Template/Template_Endpoint_Control_R.c **** 			{
 3166               		.loc 5 54 18 view .LVU855
 3167 0044 232B      		or r18,r19
 3168 0046 01F0      		breq .L205
  56:../../LUFA-111009/LUFA/Drivers/USB/Core/AVR8/Template/Template_Endpoint_Control_R.c **** 				TEMPLATE_BUFFER_MOVE(DataStream, 1);
 3169               		.loc 5 56 5 is_stmt 1 view .LVU856
 3170               	.LBB381:
 3171               	.LBI381:
 610:../../LUFA-111009/LUFA/Drivers/USB/Core/AVR8/../AVR8/../AVR8/Endpoint_AVR8.h **** 			{
 3172               		.loc 2 610 26 view .LVU857
 3173               	.LBB382:
 612:../../LUFA-111009/LUFA/Drivers/USB/Core/AVR8/../AVR8/../AVR8/Endpoint_AVR8.h **** 			}
 3174               		.loc 2 612 5 view .LVU858
 612:../../LUFA-111009/LUFA/Drivers/USB/Core/AVR8/../AVR8/../AVR8/Endpoint_AVR8.h **** 			}
 3175               		.loc 2 612 12 is_stmt 0 view .LVU859
 3176 0048 2091 F100 		lds r18,241
 3177               	.LBE382:
 3178               	.LBE381:
  56:../../LUFA-111009/LUFA/Drivers/USB/Core/AVR8/Template/Template_Endpoint_Control_R.c **** 				TEMPLATE_BUFFER_MOVE(DataStream, 1);
 3179               		.loc 5 56 5 view .LVU860
 3180 004c 2193      		st Z+,r18
 3181               	.LVL291:
  57:../../LUFA-111009/LUFA/Drivers/USB/Core/AVR8/Template/Template_Endpoint_Control_R.c **** 				Length--;
 3182               		.loc 5 57 5 is_stmt 1 view .LVU861
  58:../../LUFA-111009/LUFA/Drivers/USB/Core/AVR8/Template/Template_Endpoint_Control_R.c **** 			}
 3183               		.loc 5 58 5 view .LVU862
  58:../../LUFA-111009/LUFA/Drivers/USB/Core/AVR8/Template/Template_Endpoint_Control_R.c **** 			}
 3184               		.loc 5 58 11 is_stmt 0 view .LVU863
 3185 004e 0197      		sbiw r24,1
 3186               	.LVL292:
  54:../../LUFA-111009/LUFA/Drivers/USB/Core/AVR8/Template/Template_Endpoint_Control_R.c **** 			{
 3187               		.loc 5 54 10 is_stmt 1 view .LVU864
 3188 0050 01F4      		brne .L203
 3189 0052 00C0      		rjmp .L205
 3190               	.LVL293:
 3191               	.L209:
  54:../../LUFA-111009/LUFA/Drivers/USB/Core/AVR8/Template/Template_Endpoint_Control_R.c **** 			{
 3192               		.loc 5 54 10 is_stmt 0 view .LVU865
 3193               	.LBE385:
 3194               	.LBB386:
  67:../../LUFA-111009/LUFA/Drivers/USB/Core/AVR8/Template/Template_Endpoint_Control_R.c **** 
 3195               		.loc 5 67 3 is_stmt 1 view .LVU866
  67:../../LUFA-111009/LUFA/Drivers/USB/Core/AVR8/Template/Template_Endpoint_Control_R.c **** 
 3196               		.loc 5 67 11 is_stmt 0 view .LVU867
 3197 0054 8EB3      		in r24,0x1e
 3198               	.LVL294:
  69:../../LUFA-111009/LUFA/Drivers/USB/Core/AVR8/Template/Template_Endpoint_Control_R.c **** 		  return ENDPOINT_RWCSTREAM_DeviceDisconnected;
 3199               		.loc 5 69 3 is_stmt 1 view .LVU868
  69:../../LUFA-111009/LUFA/Drivers/USB/Core/AVR8/Template/Template_Endpoint_Control_R.c **** 		  return ENDPOINT_RWCSTREAM_DeviceDisconnected;
 3200               		.loc 5 69 6 is_stmt 0 view .LVU869
 3201 0056 8823      		tst r24
 3202 0058 01F0      		breq .L213
  71:../../LUFA-111009/LUFA/Drivers/USB/Core/AVR8/Template/Template_Endpoint_Control_R.c **** 		  return ENDPOINT_RWCSTREAM_BusSuspended;
 3203               		.loc 5 71 8 is_stmt 1 view .LVU870
  71:../../LUFA-111009/LUFA/Drivers/USB/Core/AVR8/Template/Template_Endpoint_Control_R.c **** 		  return ENDPOINT_RWCSTREAM_BusSuspended;
 3204               		.loc 5 71 11 is_stmt 0 view .LVU871
 3205 005a 8530      		cpi r24,lo8(5)
 3206 005c 01F4      		brne .L208
 3207               	.LVL295:
 3208               	.L214:
  71:../../LUFA-111009/LUFA/Drivers/USB/Core/AVR8/Template/Template_Endpoint_Control_R.c **** 		  return ENDPOINT_RWCSTREAM_BusSuspended;
 3209               		.loc 5 71 11 view .LVU872
 3210               	.LBE386:
 3211               	.LBB387:
  48:../../LUFA-111009/LUFA/Drivers/USB/Core/AVR8/Template/Template_Endpoint_Control_R.c **** 		else if (Endpoint_IsSETUPReceived())
 3212               		.loc 5 48 12 view .LVU873
 3213 005e 83E0      		ldi r24,lo8(3)
 3214               	/* epilogue start */
 3215               	.LBE387:
  76:../../LUFA-111009/LUFA/Drivers/USB/Core/AVR8/Template/Template_Endpoint_Control_R.c **** }
 3216               		.loc 5 76 1 view .LVU874
 3217 0060 0895      		ret
 3218               	.LVL296:
 3219               	.L212:
 3220               	.LBB388:
  50:../../LUFA-111009/LUFA/Drivers/USB/Core/AVR8/Template/Template_Endpoint_Control_R.c **** 
 3221               		.loc 5 50 12 view .LVU875
 3222 0062 81E0      		ldi r24,lo8(1)
 3223               	.LVL297:
  50:../../LUFA-111009/LUFA/Drivers/USB/Core/AVR8/Template/Template_Endpoint_Control_R.c **** 
 3224               		.loc 5 50 12 view .LVU876
 3225 0064 0895      		ret
 3226               	.L213:
  46:../../LUFA-111009/LUFA/Drivers/USB/Core/AVR8/Template/Template_Endpoint_Control_R.c **** 		else if (USB_DeviceState_LCL == DEVICE_STATE_Suspended)
 3227               		.loc 5 46 12 view .LVU877
 3228 0066 82E0      		ldi r24,lo8(2)
 3229 0068 0895      		ret
 3230               	.LBE388:
 3231               		.cfi_endproc
 3232               	.LFE95:
 3234               		.section	.text.Endpoint_Read_Control_Stream_BE,"ax",@progbits
 3235               	.global	Endpoint_Read_Control_Stream_BE
 3237               	Endpoint_Read_Control_Stream_BE:
 3238               	.LVL298:
 3239               	.LFB96:
  35:../../LUFA-111009/LUFA/Drivers/USB/Core/AVR8/Template/Template_Endpoint_Control_R.c **** 	uint8_t* DataStream = ((uint8_t*)Buffer + TEMPLATE_BUFFER_OFFSET(Length));
 3240               		.loc 5 35 1 is_stmt 1 view -0
 3241               		.cfi_startproc
 3242               	/* prologue: function */
 3243               	/* frame size = 0 */
 3244               	/* stack size = 0 */
 3245               	.L__stack_usage = 0
  35:../../LUFA-111009/LUFA/Drivers/USB/Core/AVR8/Template/Template_Endpoint_Control_R.c **** 	uint8_t* DataStream = ((uint8_t*)Buffer + TEMPLATE_BUFFER_OFFSET(Length));
 3246               		.loc 5 35 1 is_stmt 0 view .LVU879
 3247 0000 9B01      		movw r18,r22
  36:../../LUFA-111009/LUFA/Drivers/USB/Core/AVR8/Template/Template_Endpoint_Control_R.c **** 
 3248               		.loc 5 36 2 is_stmt 1 view .LVU880
  36:../../LUFA-111009/LUFA/Drivers/USB/Core/AVR8/Template/Template_Endpoint_Control_R.c **** 
 3249               		.loc 5 36 42 is_stmt 0 view .LVU881
 3250 0002 FB01      		movw r30,r22
 3251 0004 3197      		sbiw r30,1
  36:../../LUFA-111009/LUFA/Drivers/USB/Core/AVR8/Template/Template_Endpoint_Control_R.c **** 
 3252               		.loc 5 36 11 view .LVU882
 3253 0006 E80F      		add r30,r24
 3254 0008 F91F      		adc r31,r25
 3255               	.LVL299:
  38:../../LUFA-111009/LUFA/Drivers/USB/Core/AVR8/Template/Template_Endpoint_Control_R.c **** 	  Endpoint_ClearOUT();
 3256               		.loc 5 38 2 is_stmt 1 view .LVU883
  38:../../LUFA-111009/LUFA/Drivers/USB/Core/AVR8/Template/Template_Endpoint_Control_R.c **** 	  Endpoint_ClearOUT();
 3257               		.loc 5 38 5 is_stmt 0 view .LVU884
 3258 000a 672B      		or r22,r23
 3259 000c 01F4      		brne .L224
 3260               	.LVL300:
 3261               	.L225:
 3262               	.LBB389:
  61:../../LUFA-111009/LUFA/Drivers/USB/Core/AVR8/Template/Template_Endpoint_Control_R.c **** 		}
 3263               		.loc 5 61 4 is_stmt 1 view .LVU885
 3264               	.LBB390:
 3265               	.LBI390:
 528:../../LUFA-111009/LUFA/Drivers/USB/Core/AVR8/../AVR8/../AVR8/Endpoint_AVR8.h **** 			{
 3266               		.loc 2 528 23 view .LVU886
 3267               	.LBB391:
 531:../../LUFA-111009/LUFA/Drivers/USB/Core/AVR8/../AVR8/../AVR8/Endpoint_AVR8.h **** 				#else
 3268               		.loc 2 531 6 view .LVU887
 531:../../LUFA-111009/LUFA/Drivers/USB/Core/AVR8/../AVR8/../AVR8/Endpoint_AVR8.h **** 				#else
 3269               		.loc 2 531 13 is_stmt 0 view .LVU888
 3270 000e 8091 E800 		lds r24,232
 3271 0012 8B77      		andi r24,lo8(123)
 3272 0014 8093 E800 		sts 232,r24
 3273               	.L224:
 531:../../LUFA-111009/LUFA/Drivers/USB/Core/AVR8/../AVR8/../AVR8/Endpoint_AVR8.h **** 				#else
 3274               		.loc 2 531 13 view .LVU889
 3275               	.LBE391:
 3276               	.LBE390:
 3277               	.LBE389:
  41:../../LUFA-111009/LUFA/Drivers/USB/Core/AVR8/Template/Template_Endpoint_Control_R.c **** 	{
 3278               		.loc 5 41 8 is_stmt 1 view .LVU890
 3279 0018 2115      		cp r18,__zero_reg__
 3280 001a 3105      		cpc r19,__zero_reg__
 3281 001c 01F4      		brne .L227
 3282               	.L228:
  65:../../LUFA-111009/LUFA/Drivers/USB/Core/AVR8/Template/Template_Endpoint_Control_R.c **** 	{
 3283               		.loc 5 65 8 view .LVU891
 3284               	.LBB400:
 3285               	.LBI400:
 465:../../LUFA-111009/LUFA/Drivers/USB/Core/AVR8/../AVR8/../AVR8/Endpoint_AVR8.h **** 			{
 3286               		.loc 2 465 23 view .LVU892
 3287               	.LBB401:
 467:../../LUFA-111009/LUFA/Drivers/USB/Core/AVR8/../AVR8/../AVR8/Endpoint_AVR8.h **** 			}
 3288               		.loc 2 467 5 view .LVU893
 467:../../LUFA-111009/LUFA/Drivers/USB/Core/AVR8/../AVR8/../AVR8/Endpoint_AVR8.h **** 			}
 3289               		.loc 2 467 14 is_stmt 0 view .LVU894
 3290 001e 8091 E800 		lds r24,232
 3291               	.LBE401:
 3292               	.LBE400:
  65:../../LUFA-111009/LUFA/Drivers/USB/Core/AVR8/Template/Template_Endpoint_Control_R.c **** 	{
 3293               		.loc 5 65 8 view .LVU895
 3294 0022 80FF      		sbrs r24,0
 3295 0024 00C0      		rjmp .L229
  75:../../LUFA-111009/LUFA/Drivers/USB/Core/AVR8/Template/Template_Endpoint_Control_R.c **** }
 3296               		.loc 5 75 9 view .LVU896
 3297 0026 80E0      		ldi r24,0
 3298 0028 0895      		ret
 3299               	.L227:
 3300               	.LBB402:
  43:../../LUFA-111009/LUFA/Drivers/USB/Core/AVR8/Template/Template_Endpoint_Control_R.c **** 
 3301               		.loc 5 43 3 is_stmt 1 view .LVU897
  43:../../LUFA-111009/LUFA/Drivers/USB/Core/AVR8/Template/Template_Endpoint_Control_R.c **** 
 3302               		.loc 5 43 11 is_stmt 0 view .LVU898
 3303 002a 8EB3      		in r24,0x1e
 3304               	.LVL301:
  45:../../LUFA-111009/LUFA/Drivers/USB/Core/AVR8/Template/Template_Endpoint_Control_R.c **** 		  return ENDPOINT_RWCSTREAM_DeviceDisconnected;
 3305               		.loc 5 45 3 is_stmt 1 view .LVU899
  45:../../LUFA-111009/LUFA/Drivers/USB/Core/AVR8/Template/Template_Endpoint_Control_R.c **** 		  return ENDPOINT_RWCSTREAM_DeviceDisconnected;
 3306               		.loc 5 45 6 is_stmt 0 view .LVU900
 3307 002c 8823      		tst r24
 3308 002e 01F0      		breq .L233
  47:../../LUFA-111009/LUFA/Drivers/USB/Core/AVR8/Template/Template_Endpoint_Control_R.c **** 		  return ENDPOINT_RWCSTREAM_BusSuspended;
 3309               		.loc 5 47 8 is_stmt 1 view .LVU901
  47:../../LUFA-111009/LUFA/Drivers/USB/Core/AVR8/Template/Template_Endpoint_Control_R.c **** 		  return ENDPOINT_RWCSTREAM_BusSuspended;
 3310               		.loc 5 47 11 is_stmt 0 view .LVU902
 3311 0030 8530      		cpi r24,lo8(5)
 3312 0032 01F0      		breq .L234
  49:../../LUFA-111009/LUFA/Drivers/USB/Core/AVR8/Template/Template_Endpoint_Control_R.c **** 		  return ENDPOINT_RWCSTREAM_HostAborted;
 3313               		.loc 5 49 8 is_stmt 1 view .LVU903
 3314               	.LBB392:
 3315               	.LBI392:
 489:../../LUFA-111009/LUFA/Drivers/USB/Core/AVR8/../AVR8/../AVR8/Endpoint_AVR8.h **** 			{
 3316               		.loc 2 489 23 view .LVU904
 3317               	.LBB393:
 491:../../LUFA-111009/LUFA/Drivers/USB/Core/AVR8/../AVR8/../AVR8/Endpoint_AVR8.h **** 			}
 3318               		.loc 2 491 5 view .LVU905
 491:../../LUFA-111009/LUFA/Drivers/USB/Core/AVR8/../AVR8/../AVR8/Endpoint_AVR8.h **** 			}
 3319               		.loc 2 491 14 is_stmt 0 view .LVU906
 3320 0034 8091 E800 		lds r24,232
 3321               	.LVL302:
 491:../../LUFA-111009/LUFA/Drivers/USB/Core/AVR8/../AVR8/../AVR8/Endpoint_AVR8.h **** 			}
 3322               		.loc 2 491 14 view .LVU907
 3323               	.LBE393:
 3324               	.LBE392:
  49:../../LUFA-111009/LUFA/Drivers/USB/Core/AVR8/Template/Template_Endpoint_Control_R.c **** 		  return ENDPOINT_RWCSTREAM_HostAborted;
 3325               		.loc 5 49 11 view .LVU908
 3326 0038 83FD      		sbrc r24,3
 3327 003a 00C0      		rjmp .L232
  52:../../LUFA-111009/LUFA/Drivers/USB/Core/AVR8/Template/Template_Endpoint_Control_R.c **** 		{
 3328               		.loc 5 52 3 is_stmt 1 view .LVU909
 3329               	.LBB394:
 3330               	.LBI394:
 477:../../LUFA-111009/LUFA/Drivers/USB/Core/AVR8/../AVR8/../AVR8/Endpoint_AVR8.h **** 			{
 3331               		.loc 2 477 23 view .LVU910
 3332               	.LBB395:
 479:../../LUFA-111009/LUFA/Drivers/USB/Core/AVR8/../AVR8/../AVR8/Endpoint_AVR8.h **** 			}
 3333               		.loc 2 479 5 view .LVU911
 479:../../LUFA-111009/LUFA/Drivers/USB/Core/AVR8/../AVR8/../AVR8/Endpoint_AVR8.h **** 			}
 3334               		.loc 2 479 14 is_stmt 0 view .LVU912
 3335 003c 8091 E800 		lds r24,232
 3336               	.LBE395:
 3337               	.LBE394:
  52:../../LUFA-111009/LUFA/Drivers/USB/Core/AVR8/Template/Template_Endpoint_Control_R.c **** 		{
 3338               		.loc 5 52 6 view .LVU913
 3339 0040 82FF      		sbrs r24,2
 3340 0042 00C0      		rjmp .L224
 3341               	.L223:
 3342               	.LBB396:
 3343               	.LBI396:
 290:../../LUFA-111009/LUFA/Drivers/USB/Core/AVR8/../AVR8/../AVR8/Endpoint_AVR8.h **** 			{
 3344               		.loc 2 290 27 is_stmt 1 view .LVU914
 3345               	.LBB397:
 295:../../LUFA-111009/LUFA/Drivers/USB/Core/AVR8/../AVR8/../AVR8/Endpoint_AVR8.h **** 				#elif defined(USB_SERIES_2_AVR)
 3346               		.loc 2 295 6 view .LVU915
 295:../../LUFA-111009/LUFA/Drivers/USB/Core/AVR8/../AVR8/../AVR8/Endpoint_AVR8.h **** 				#elif defined(USB_SERIES_2_AVR)
 3347               		.loc 2 295 25 is_stmt 0 view .LVU916
 3348 0044 9091 F300 		lds r25,243
 295:../../LUFA-111009/LUFA/Drivers/USB/Core/AVR8/../AVR8/../AVR8/Endpoint_AVR8.h **** 				#elif defined(USB_SERIES_2_AVR)
 3349               		.loc 2 295 40 view .LVU917
 3350 0048 8091 F200 		lds r24,242
 3351               	.LBE397:
 3352               	.LBE396:
  54:../../LUFA-111009/LUFA/Drivers/USB/Core/AVR8/Template/Template_Endpoint_Control_R.c **** 			{
 3353               		.loc 5 54 18 view .LVU918
 3354 004c 892B      		or r24,r25
 3355 004e 01F0      		breq .L225
  56:../../LUFA-111009/LUFA/Drivers/USB/Core/AVR8/Template/Template_Endpoint_Control_R.c **** 				TEMPLATE_BUFFER_MOVE(DataStream, 1);
 3356               		.loc 5 56 5 is_stmt 1 view .LVU919
 3357               	.LBB398:
 3358               	.LBI398:
 610:../../LUFA-111009/LUFA/Drivers/USB/Core/AVR8/../AVR8/../AVR8/Endpoint_AVR8.h **** 			{
 3359               		.loc 2 610 26 view .LVU920
 3360               	.LBB399:
 612:../../LUFA-111009/LUFA/Drivers/USB/Core/AVR8/../AVR8/../AVR8/Endpoint_AVR8.h **** 			}
 3361               		.loc 2 612 5 view .LVU921
 612:../../LUFA-111009/LUFA/Drivers/USB/Core/AVR8/../AVR8/../AVR8/Endpoint_AVR8.h **** 			}
 3362               		.loc 2 612 12 is_stmt 0 view .LVU922
 3363 0050 8091 F100 		lds r24,241
 3364               	.LBE399:
 3365               	.LBE398:
  56:../../LUFA-111009/LUFA/Drivers/USB/Core/AVR8/Template/Template_Endpoint_Control_R.c **** 				TEMPLATE_BUFFER_MOVE(DataStream, 1);
 3366               		.loc 5 56 5 view .LVU923
 3367 0054 8083      		st Z,r24
  57:../../LUFA-111009/LUFA/Drivers/USB/Core/AVR8/Template/Template_Endpoint_Control_R.c **** 				Length--;
 3368               		.loc 5 57 5 is_stmt 1 view .LVU924
 3369 0056 3197      		sbiw r30,1
 3370               	.LVL303:
  58:../../LUFA-111009/LUFA/Drivers/USB/Core/AVR8/Template/Template_Endpoint_Control_R.c **** 			}
 3371               		.loc 5 58 5 view .LVU925
  58:../../LUFA-111009/LUFA/Drivers/USB/Core/AVR8/Template/Template_Endpoint_Control_R.c **** 			}
 3372               		.loc 5 58 11 is_stmt 0 view .LVU926
 3373 0058 2150      		subi r18,1
 3374 005a 3109      		sbc r19,__zero_reg__
 3375               	.LVL304:
  54:../../LUFA-111009/LUFA/Drivers/USB/Core/AVR8/Template/Template_Endpoint_Control_R.c **** 			{
 3376               		.loc 5 54 10 is_stmt 1 view .LVU927
 3377 005c 01F4      		brne .L223
 3378 005e 00C0      		rjmp .L225
 3379               	.L229:
  54:../../LUFA-111009/LUFA/Drivers/USB/Core/AVR8/Template/Template_Endpoint_Control_R.c **** 			{
 3380               		.loc 5 54 10 is_stmt 0 view .LVU928
 3381               	.LBE402:
 3382               	.LBB403:
  67:../../LUFA-111009/LUFA/Drivers/USB/Core/AVR8/Template/Template_Endpoint_Control_R.c **** 
 3383               		.loc 5 67 3 is_stmt 1 view .LVU929
  67:../../LUFA-111009/LUFA/Drivers/USB/Core/AVR8/Template/Template_Endpoint_Control_R.c **** 
 3384               		.loc 5 67 11 is_stmt 0 view .LVU930
 3385 0060 8EB3      		in r24,0x1e
 3386               	.LVL305:
  69:../../LUFA-111009/LUFA/Drivers/USB/Core/AVR8/Template/Template_Endpoint_Control_R.c **** 		  return ENDPOINT_RWCSTREAM_DeviceDisconnected;
 3387               		.loc 5 69 3 is_stmt 1 view .LVU931
  69:../../LUFA-111009/LUFA/Drivers/USB/Core/AVR8/Template/Template_Endpoint_Control_R.c **** 		  return ENDPOINT_RWCSTREAM_DeviceDisconnected;
 3388               		.loc 5 69 6 is_stmt 0 view .LVU932
 3389 0062 8823      		tst r24
 3390 0064 01F0      		breq .L233
  71:../../LUFA-111009/LUFA/Drivers/USB/Core/AVR8/Template/Template_Endpoint_Control_R.c **** 		  return ENDPOINT_RWCSTREAM_BusSuspended;
 3391               		.loc 5 71 8 is_stmt 1 view .LVU933
  71:../../LUFA-111009/LUFA/Drivers/USB/Core/AVR8/Template/Template_Endpoint_Control_R.c **** 		  return ENDPOINT_RWCSTREAM_BusSuspended;
 3392               		.loc 5 71 11 is_stmt 0 view .LVU934
 3393 0066 8530      		cpi r24,lo8(5)
 3394 0068 01F4      		brne .L228
 3395               	.LVL306:
 3396               	.L234:
  71:../../LUFA-111009/LUFA/Drivers/USB/Core/AVR8/Template/Template_Endpoint_Control_R.c **** 		  return ENDPOINT_RWCSTREAM_BusSuspended;
 3397               		.loc 5 71 11 view .LVU935
 3398               	.LBE403:
 3399               	.LBB404:
  48:../../LUFA-111009/LUFA/Drivers/USB/Core/AVR8/Template/Template_Endpoint_Control_R.c **** 		else if (Endpoint_IsSETUPReceived())
 3400               		.loc 5 48 12 view .LVU936
 3401 006a 83E0      		ldi r24,lo8(3)
 3402               	/* epilogue start */
 3403               	.LBE404:
 3404               		.loc 5 76 1 view .LVU937
 3405 006c 0895      		ret
 3406               	.L232:
 3407               	.LBB405:
  50:../../LUFA-111009/LUFA/Drivers/USB/Core/AVR8/Template/Template_Endpoint_Control_R.c **** 
 3408               		.loc 5 50 12 view .LVU938
 3409 006e 81E0      		ldi r24,lo8(1)
 3410 0070 0895      		ret
 3411               	.L233:
  46:../../LUFA-111009/LUFA/Drivers/USB/Core/AVR8/Template/Template_Endpoint_Control_R.c **** 		else if (USB_DeviceState_LCL == DEVICE_STATE_Suspended)
 3412               		.loc 5 46 12 view .LVU939
 3413 0072 82E0      		ldi r24,lo8(2)
 3414 0074 0895      		ret
 3415               	.LBE405:
 3416               		.cfi_endproc
 3417               	.LFE96:
 3419               		.section	.text.Endpoint_Write_Control_PStream_LE,"ax",@progbits
 3420               	.global	Endpoint_Write_Control_PStream_LE
 3422               	Endpoint_Write_Control_PStream_LE:
 3423               	.LVL307:
 3424               	.LFB97:
  35:../../LUFA-111009/LUFA/Drivers/USB/Core/AVR8/Template/Template_Endpoint_Control_W.c **** 	uint8_t* DataStream     = ((uint8_t*)Buffer + TEMPLATE_BUFFER_OFFSET(Length));
 3425               		.loc 4 35 1 is_stmt 1 view -0
 3426               		.cfi_startproc
 3427               	/* prologue: function */
 3428               	/* frame size = 0 */
 3429               	/* stack size = 0 */
 3430               	.L__stack_usage = 0
  35:../../LUFA-111009/LUFA/Drivers/USB/Core/AVR8/Template/Template_Endpoint_Control_W.c **** 	uint8_t* DataStream     = ((uint8_t*)Buffer + TEMPLATE_BUFFER_OFFSET(Length));
 3431               		.loc 4 35 1 is_stmt 0 view .LVU941
 3432 0000 FC01      		movw r30,r24
 3433 0002 CB01      		movw r24,r22
 3434               	.LVL308:
  36:../../LUFA-111009/LUFA/Drivers/USB/Core/AVR8/Template/Template_Endpoint_Control_W.c **** 	bool     LastPacketFull = false;
 3435               		.loc 4 36 2 is_stmt 1 view .LVU942
  37:../../LUFA-111009/LUFA/Drivers/USB/Core/AVR8/Template/Template_Endpoint_Control_W.c **** 
 3436               		.loc 4 37 2 view .LVU943
  39:../../LUFA-111009/LUFA/Drivers/USB/Core/AVR8/Template/Template_Endpoint_Control_W.c **** 	  Length = USB_ControlRequest.wLength;
 3437               		.loc 4 39 2 view .LVU944
  39:../../LUFA-111009/LUFA/Drivers/USB/Core/AVR8/Template/Template_Endpoint_Control_W.c **** 	  Length = USB_ControlRequest.wLength;
 3438               		.loc 4 39 33 is_stmt 0 view .LVU945
 3439 0004 2091 0000 		lds r18,USB_ControlRequest+6
 3440 0008 3091 0000 		lds r19,USB_ControlRequest+6+1
  39:../../LUFA-111009/LUFA/Drivers/USB/Core/AVR8/Template/Template_Endpoint_Control_W.c **** 	  Length = USB_ControlRequest.wLength;
 3441               		.loc 4 39 5 view .LVU946
 3442 000c 2617      		cp r18,r22
 3443 000e 3707      		cpc r19,r23
 3444 0010 00F0      		brlo .L251
  41:../../LUFA-111009/LUFA/Drivers/USB/Core/AVR8/Template/Template_Endpoint_Control_W.c **** 	  Endpoint_ClearIN();
 3445               		.loc 4 41 7 is_stmt 1 view .LVU947
  41:../../LUFA-111009/LUFA/Drivers/USB/Core/AVR8/Template/Template_Endpoint_Control_W.c **** 	  Endpoint_ClearIN();
 3446               		.loc 4 41 10 is_stmt 0 view .LVU948
 3447 0012 0097      		sbiw r24,0
 3448 0014 01F4      		brne .L240
  42:../../LUFA-111009/LUFA/Drivers/USB/Core/AVR8/Template/Template_Endpoint_Control_W.c **** 
 3449               		.loc 4 42 4 is_stmt 1 view .LVU949
 3450               	.LBB406:
 3451               	.LBI406:
 513:../../LUFA-111009/LUFA/Drivers/USB/Core/AVR8/../AVR8/../AVR8/Endpoint_AVR8.h **** 			{
 3452               		.loc 2 513 23 view .LVU950
 3453               	.LBB407:
 516:../../LUFA-111009/LUFA/Drivers/USB/Core/AVR8/../AVR8/../AVR8/Endpoint_AVR8.h **** 				#else
 3454               		.loc 2 516 6 view .LVU951
 516:../../LUFA-111009/LUFA/Drivers/USB/Core/AVR8/../AVR8/../AVR8/Endpoint_AVR8.h **** 				#else
 3455               		.loc 2 516 13 is_stmt 0 view .LVU952
 3456 0016 2091 E800 		lds r18,232
 3457 001a 2E77      		andi r18,lo8(126)
 3458 001c 2093 E800 		sts 232,r18
 3459               	.L240:
 516:../../LUFA-111009/LUFA/Drivers/USB/Core/AVR8/../AVR8/../AVR8/Endpoint_AVR8.h **** 				#else
 3460               		.loc 2 516 13 view .LVU953
 3461               	.LBE407:
 3462               	.LBE406:
 3463 0020 40E0      		ldi r20,0
 3464               	.LVL309:
 3465               	.L244:
  44:../../LUFA-111009/LUFA/Drivers/USB/Core/AVR8/Template/Template_Endpoint_Control_W.c **** 	{
 3466               		.loc 4 44 8 is_stmt 1 view .LVU954
 3467 0022 0097      		sbiw r24,0
 3468 0024 01F4      		brne .L249
  44:../../LUFA-111009/LUFA/Drivers/USB/Core/AVR8/Template/Template_Endpoint_Control_W.c **** 	{
 3469               		.loc 4 44 16 is_stmt 0 discriminator 1 view .LVU955
 3470 0026 4111      		cpse r20,__zero_reg__
 3471 0028 00C0      		rjmp .L249
 3472               	.LVL310:
 3473               	.L262:
  74:../../LUFA-111009/LUFA/Drivers/USB/Core/AVR8/Template/Template_Endpoint_Control_W.c **** 	{
 3474               		.loc 4 74 8 is_stmt 1 view .LVU956
 3475               	.LBB408:
 3476               	.LBI408:
 477:../../LUFA-111009/LUFA/Drivers/USB/Core/AVR8/../AVR8/../AVR8/Endpoint_AVR8.h **** 			{
 3477               		.loc 2 477 23 view .LVU957
 3478               	.LBB409:
 479:../../LUFA-111009/LUFA/Drivers/USB/Core/AVR8/../AVR8/../AVR8/Endpoint_AVR8.h **** 			}
 3479               		.loc 2 479 5 view .LVU958
 479:../../LUFA-111009/LUFA/Drivers/USB/Core/AVR8/../AVR8/../AVR8/Endpoint_AVR8.h **** 			}
 3480               		.loc 2 479 14 is_stmt 0 view .LVU959
 3481 002a 8091 E800 		lds r24,232
 3482               	.LBE409:
 3483               	.LBE408:
  74:../../LUFA-111009/LUFA/Drivers/USB/Core/AVR8/Template/Template_Endpoint_Control_W.c **** 	{
 3484               		.loc 4 74 8 view .LVU960
 3485 002e 82FF      		sbrs r24,2
 3486 0030 00C0      		rjmp .L250
  84:../../LUFA-111009/LUFA/Drivers/USB/Core/AVR8/Template/Template_Endpoint_Control_W.c **** }
 3487               		.loc 4 84 9 view .LVU961
 3488 0032 80E0      		ldi r24,0
 3489 0034 0895      		ret
 3490               	.LVL311:
 3491               	.L251:
  84:../../LUFA-111009/LUFA/Drivers/USB/Core/AVR8/Template/Template_Endpoint_Control_W.c **** }
 3492               		.loc 4 84 9 view .LVU962
 3493 0036 C901      		movw r24,r18
 3494 0038 00C0      		rjmp .L240
 3495               	.LVL312:
 3496               	.L249:
 3497               	.LBB410:
  46:../../LUFA-111009/LUFA/Drivers/USB/Core/AVR8/Template/Template_Endpoint_Control_W.c **** 
 3498               		.loc 4 46 3 is_stmt 1 view .LVU963
  46:../../LUFA-111009/LUFA/Drivers/USB/Core/AVR8/Template/Template_Endpoint_Control_W.c **** 
 3499               		.loc 4 46 11 is_stmt 0 view .LVU964
 3500 003a 2EB3      		in r18,0x1e
 3501               	.LVL313:
  48:../../LUFA-111009/LUFA/Drivers/USB/Core/AVR8/Template/Template_Endpoint_Control_W.c **** 		  return ENDPOINT_RWCSTREAM_DeviceDisconnected;
 3502               		.loc 4 48 3 is_stmt 1 view .LVU965
  48:../../LUFA-111009/LUFA/Drivers/USB/Core/AVR8/Template/Template_Endpoint_Control_W.c **** 		  return ENDPOINT_RWCSTREAM_DeviceDisconnected;
 3503               		.loc 4 48 6 is_stmt 0 view .LVU966
 3504 003c 2223      		tst r18
 3505 003e 01F0      		breq .L255
  50:../../LUFA-111009/LUFA/Drivers/USB/Core/AVR8/Template/Template_Endpoint_Control_W.c **** 		  return ENDPOINT_RWCSTREAM_BusSuspended;
 3506               		.loc 4 50 8 is_stmt 1 view .LVU967
  50:../../LUFA-111009/LUFA/Drivers/USB/Core/AVR8/Template/Template_Endpoint_Control_W.c **** 		  return ENDPOINT_RWCSTREAM_BusSuspended;
 3507               		.loc 4 50 11 is_stmt 0 view .LVU968
 3508 0040 2530      		cpi r18,lo8(5)
 3509 0042 01F0      		breq .L256
  52:../../LUFA-111009/LUFA/Drivers/USB/Core/AVR8/Template/Template_Endpoint_Control_W.c **** 		  return ENDPOINT_RWCSTREAM_HostAborted;
 3510               		.loc 4 52 8 is_stmt 1 view .LVU969
 3511               	.LBB411:
 3512               	.LBI411:
 489:../../LUFA-111009/LUFA/Drivers/USB/Core/AVR8/../AVR8/../AVR8/Endpoint_AVR8.h **** 			{
 3513               		.loc 2 489 23 view .LVU970
 3514               	.LBB412:
 491:../../LUFA-111009/LUFA/Drivers/USB/Core/AVR8/../AVR8/../AVR8/Endpoint_AVR8.h **** 			}
 3515               		.loc 2 491 5 view .LVU971
 491:../../LUFA-111009/LUFA/Drivers/USB/Core/AVR8/../AVR8/../AVR8/Endpoint_AVR8.h **** 			}
 3516               		.loc 2 491 14 is_stmt 0 view .LVU972
 3517 0044 2091 E800 		lds r18,232
 3518               	.LVL314:
 491:../../LUFA-111009/LUFA/Drivers/USB/Core/AVR8/../AVR8/../AVR8/Endpoint_AVR8.h **** 			}
 3519               		.loc 2 491 14 view .LVU973
 3520               	.LBE412:
 3521               	.LBE411:
  52:../../LUFA-111009/LUFA/Drivers/USB/Core/AVR8/Template/Template_Endpoint_Control_W.c **** 		  return ENDPOINT_RWCSTREAM_HostAborted;
 3522               		.loc 4 52 11 view .LVU974
 3523 0048 23FD      		sbrc r18,3
 3524 004a 00C0      		rjmp .L254
  54:../../LUFA-111009/LUFA/Drivers/USB/Core/AVR8/Template/Template_Endpoint_Control_W.c **** 		  break;
 3525               		.loc 4 54 8 is_stmt 1 view .LVU975
 3526               	.LBB413:
 3527               	.LBI413:
 477:../../LUFA-111009/LUFA/Drivers/USB/Core/AVR8/../AVR8/../AVR8/Endpoint_AVR8.h **** 			{
 3528               		.loc 2 477 23 view .LVU976
 3529               	.LBB414:
 479:../../LUFA-111009/LUFA/Drivers/USB/Core/AVR8/../AVR8/../AVR8/Endpoint_AVR8.h **** 			}
 3530               		.loc 2 479 5 view .LVU977
 479:../../LUFA-111009/LUFA/Drivers/USB/Core/AVR8/../AVR8/../AVR8/Endpoint_AVR8.h **** 			}
 3531               		.loc 2 479 14 is_stmt 0 view .LVU978
 3532 004c 2091 E800 		lds r18,232
 3533               	.LBE414:
 3534               	.LBE413:
  54:../../LUFA-111009/LUFA/Drivers/USB/Core/AVR8/Template/Template_Endpoint_Control_W.c **** 		  break;
 3535               		.loc 4 54 11 view .LVU979
 3536 0050 22FD      		sbrc r18,2
 3537 0052 00C0      		rjmp .L262
  57:../../LUFA-111009/LUFA/Drivers/USB/Core/AVR8/Template/Template_Endpoint_Control_W.c **** 		{
 3538               		.loc 4 57 3 is_stmt 1 view .LVU980
 3539               	.LBB415:
 3540               	.LBI415:
 465:../../LUFA-111009/LUFA/Drivers/USB/Core/AVR8/../AVR8/../AVR8/Endpoint_AVR8.h **** 			{
 3541               		.loc 2 465 23 view .LVU981
 3542               	.LBB416:
 467:../../LUFA-111009/LUFA/Drivers/USB/Core/AVR8/../AVR8/../AVR8/Endpoint_AVR8.h **** 			}
 3543               		.loc 2 467 5 view .LVU982
 467:../../LUFA-111009/LUFA/Drivers/USB/Core/AVR8/../AVR8/../AVR8/Endpoint_AVR8.h **** 			}
 3544               		.loc 2 467 14 is_stmt 0 view .LVU983
 3545 0054 2091 E800 		lds r18,232
 3546               	.LBE416:
 3547               	.LBE415:
  57:../../LUFA-111009/LUFA/Drivers/USB/Core/AVR8/Template/Template_Endpoint_Control_W.c **** 		{
 3548               		.loc 4 57 6 view .LVU984
 3549 0058 20FF      		sbrs r18,0
 3550 005a 00C0      		rjmp .L244
 3551               	.LBB417:
  59:../../LUFA-111009/LUFA/Drivers/USB/Core/AVR8/Template/Template_Endpoint_Control_W.c **** 
 3552               		.loc 4 59 4 is_stmt 1 view .LVU985
 3553               	.LBB418:
 3554               	.LBI418:
 290:../../LUFA-111009/LUFA/Drivers/USB/Core/AVR8/../AVR8/../AVR8/Endpoint_AVR8.h **** 			{
 3555               		.loc 2 290 27 view .LVU986
 3556               	.LBB419:
 295:../../LUFA-111009/LUFA/Drivers/USB/Core/AVR8/../AVR8/../AVR8/Endpoint_AVR8.h **** 				#elif defined(USB_SERIES_2_AVR)
 3557               		.loc 2 295 6 view .LVU987
 295:../../LUFA-111009/LUFA/Drivers/USB/Core/AVR8/../AVR8/../AVR8/Endpoint_AVR8.h **** 				#elif defined(USB_SERIES_2_AVR)
 3558               		.loc 2 295 25 is_stmt 0 view .LVU988
 3559 005c 3091 F300 		lds r19,243
 295:../../LUFA-111009/LUFA/Drivers/USB/Core/AVR8/../AVR8/../AVR8/Endpoint_AVR8.h **** 				#elif defined(USB_SERIES_2_AVR)
 3560               		.loc 2 295 40 view .LVU989
 3561 0060 2091 F200 		lds r18,242
 3562               	.LVL315:
 295:../../LUFA-111009/LUFA/Drivers/USB/Core/AVR8/../AVR8/../AVR8/Endpoint_AVR8.h **** 				#elif defined(USB_SERIES_2_AVR)
 3563               		.loc 2 295 40 view .LVU990
 3564               	.LBE419:
 3565               	.LBE418:
  61:../../LUFA-111009/LUFA/Drivers/USB/Core/AVR8/Template/Template_Endpoint_Control_W.c **** 			{
 3566               		.loc 4 61 4 is_stmt 1 view .LVU991
 3567               	.L245:
  61:../../LUFA-111009/LUFA/Drivers/USB/Core/AVR8/Template/Template_Endpoint_Control_W.c **** 			{
 3568               		.loc 4 61 10 view .LVU992
 3569 0064 0097      		sbiw r24,0
 3570 0066 01F0      		breq .L246
  61:../../LUFA-111009/LUFA/Drivers/USB/Core/AVR8/Template/Template_Endpoint_Control_W.c **** 			{
 3571               		.loc 4 61 18 is_stmt 0 discriminator 1 view .LVU993
 3572 0068 2830      		cpi r18,8
 3573 006a 3105      		cpc r19,__zero_reg__
 3574 006c 00F0      		brlo .L247
 3575               	.L246:
  69:../../LUFA-111009/LUFA/Drivers/USB/Core/AVR8/Template/Template_Endpoint_Control_W.c **** 			Endpoint_ClearIN();
 3576               		.loc 4 69 4 is_stmt 1 view .LVU994
  69:../../LUFA-111009/LUFA/Drivers/USB/Core/AVR8/Template/Template_Endpoint_Control_W.c **** 			Endpoint_ClearIN();
 3577               		.loc 4 69 19 is_stmt 0 view .LVU995
 3578 006e 41E0      		ldi r20,lo8(1)
 3579 0070 2830      		cpi r18,8
 3580 0072 3105      		cpc r19,__zero_reg__
 3581 0074 01F0      		breq .L248
 3582 0076 40E0      		ldi r20,0
 3583               	.L248:
 3584               	.LVL316:
  70:../../LUFA-111009/LUFA/Drivers/USB/Core/AVR8/Template/Template_Endpoint_Control_W.c **** 		}
 3585               		.loc 4 70 4 is_stmt 1 view .LVU996
 3586               	.LBB420:
 3587               	.LBI420:
 513:../../LUFA-111009/LUFA/Drivers/USB/Core/AVR8/../AVR8/../AVR8/Endpoint_AVR8.h **** 			{
 3588               		.loc 2 513 23 view .LVU997
 3589               	.LBB421:
 516:../../LUFA-111009/LUFA/Drivers/USB/Core/AVR8/../AVR8/../AVR8/Endpoint_AVR8.h **** 				#else
 3590               		.loc 2 516 6 view .LVU998
 516:../../LUFA-111009/LUFA/Drivers/USB/Core/AVR8/../AVR8/../AVR8/Endpoint_AVR8.h **** 				#else
 3591               		.loc 2 516 13 is_stmt 0 view .LVU999
 3592 0078 2091 E800 		lds r18,232
 3593               	.LVL317:
 516:../../LUFA-111009/LUFA/Drivers/USB/Core/AVR8/../AVR8/../AVR8/Endpoint_AVR8.h **** 				#else
 3594               		.loc 2 516 13 view .LVU1000
 3595 007c 2E77      		andi r18,lo8(126)
 3596 007e 2093 E800 		sts 232,r18
 3597               	.LVL318:
 520:../../LUFA-111009/LUFA/Drivers/USB/Core/AVR8/../AVR8/../AVR8/Endpoint_AVR8.h **** 
 3598               		.loc 2 520 4 view .LVU1001
 3599 0082 00C0      		rjmp .L244
 3600               	.LVL319:
 3601               	.L247:
 520:../../LUFA-111009/LUFA/Drivers/USB/Core/AVR8/../AVR8/../AVR8/Endpoint_AVR8.h **** 
 3602               		.loc 2 520 4 view .LVU1002
 3603               	.LBE421:
 3604               	.LBE420:
  63:../../LUFA-111009/LUFA/Drivers/USB/Core/AVR8/Template/Template_Endpoint_Control_W.c **** 				TEMPLATE_BUFFER_MOVE(DataStream, 1);
 3605               		.loc 4 63 5 is_stmt 1 view .LVU1003
 3606               	.LBB422:
  63:../../LUFA-111009/LUFA/Drivers/USB/Core/AVR8/Template/Template_Endpoint_Control_W.c **** 				TEMPLATE_BUFFER_MOVE(DataStream, 1);
 3607               		.loc 4 63 5 view .LVU1004
  63:../../LUFA-111009/LUFA/Drivers/USB/Core/AVR8/Template/Template_Endpoint_Control_W.c **** 				TEMPLATE_BUFFER_MOVE(DataStream, 1);
 3608               		.loc 4 63 5 view .LVU1005
  63:../../LUFA-111009/LUFA/Drivers/USB/Core/AVR8/Template/Template_Endpoint_Control_W.c **** 				TEMPLATE_BUFFER_MOVE(DataStream, 1);
 3609               		.loc 4 63 5 view .LVU1006
 3610               	/* #APP */
 3611               	 ;  63 "../../LUFA-111009/LUFA/Drivers/USB/Core/AVR8/Template/Template_Endpoint_Control_W.c" 1
 3612 0084 4491      		lpm r20, Z
 3613               		
 3614               	 ;  0 "" 2
 3615               	.LVL320:
  63:../../LUFA-111009/LUFA/Drivers/USB/Core/AVR8/Template/Template_Endpoint_Control_W.c **** 				TEMPLATE_BUFFER_MOVE(DataStream, 1);
 3616               		.loc 4 63 5 view .LVU1007
  63:../../LUFA-111009/LUFA/Drivers/USB/Core/AVR8/Template/Template_Endpoint_Control_W.c **** 				TEMPLATE_BUFFER_MOVE(DataStream, 1);
 3617               		.loc 4 63 5 is_stmt 0 view .LVU1008
 3618               	/* #NOAPP */
 3619               	.LBE422:
 3620               	.LBB423:
 3621               	.LBI423:
 622:../../LUFA-111009/LUFA/Drivers/USB/Core/AVR8/../AVR8/../AVR8/Endpoint_AVR8.h **** 			{
 3622               		.loc 2 622 23 is_stmt 1 view .LVU1009
 3623               	.LBB424:
 624:../../LUFA-111009/LUFA/Drivers/USB/Core/AVR8/../AVR8/../AVR8/Endpoint_AVR8.h **** 			}
 3624               		.loc 2 624 5 view .LVU1010
 624:../../LUFA-111009/LUFA/Drivers/USB/Core/AVR8/../AVR8/../AVR8/Endpoint_AVR8.h **** 			}
 3625               		.loc 2 624 12 is_stmt 0 view .LVU1011
 3626 0086 4093 F100 		sts 241,r20
 3627               	.LVL321:
 624:../../LUFA-111009/LUFA/Drivers/USB/Core/AVR8/../AVR8/../AVR8/Endpoint_AVR8.h **** 			}
 3628               		.loc 2 624 12 view .LVU1012
 3629               	.LBE424:
 3630               	.LBE423:
  64:../../LUFA-111009/LUFA/Drivers/USB/Core/AVR8/Template/Template_Endpoint_Control_W.c **** 				Length--;
 3631               		.loc 4 64 5 is_stmt 1 view .LVU1013
 3632 008a 3196      		adiw r30,1
 3633               	.LVL322:
  65:../../LUFA-111009/LUFA/Drivers/USB/Core/AVR8/Template/Template_Endpoint_Control_W.c **** 				BytesInEndpoint++;
 3634               		.loc 4 65 5 view .LVU1014
  65:../../LUFA-111009/LUFA/Drivers/USB/Core/AVR8/Template/Template_Endpoint_Control_W.c **** 				BytesInEndpoint++;
 3635               		.loc 4 65 11 is_stmt 0 view .LVU1015
 3636 008c 0197      		sbiw r24,1
 3637               	.LVL323:
  66:../../LUFA-111009/LUFA/Drivers/USB/Core/AVR8/Template/Template_Endpoint_Control_W.c **** 			}
 3638               		.loc 4 66 5 is_stmt 1 view .LVU1016
  66:../../LUFA-111009/LUFA/Drivers/USB/Core/AVR8/Template/Template_Endpoint_Control_W.c **** 			}
 3639               		.loc 4 66 20 is_stmt 0 view .LVU1017
 3640 008e 2F5F      		subi r18,-1
 3641 0090 3F4F      		sbci r19,-1
 3642               	.LVL324:
  66:../../LUFA-111009/LUFA/Drivers/USB/Core/AVR8/Template/Template_Endpoint_Control_W.c **** 			}
 3643               		.loc 4 66 20 view .LVU1018
 3644 0092 00C0      		rjmp .L245
 3645               	.LVL325:
 3646               	.L250:
  66:../../LUFA-111009/LUFA/Drivers/USB/Core/AVR8/Template/Template_Endpoint_Control_W.c **** 			}
 3647               		.loc 4 66 20 view .LVU1019
 3648               	.LBE417:
 3649               	.LBE410:
 3650               	.LBB425:
  76:../../LUFA-111009/LUFA/Drivers/USB/Core/AVR8/Template/Template_Endpoint_Control_W.c **** 
 3651               		.loc 4 76 3 is_stmt 1 view .LVU1020
  76:../../LUFA-111009/LUFA/Drivers/USB/Core/AVR8/Template/Template_Endpoint_Control_W.c **** 
 3652               		.loc 4 76 11 is_stmt 0 view .LVU1021
 3653 0094 8EB3      		in r24,0x1e
 3654               	.LVL326:
  78:../../LUFA-111009/LUFA/Drivers/USB/Core/AVR8/Template/Template_Endpoint_Control_W.c **** 		  return ENDPOINT_RWCSTREAM_DeviceDisconnected;
 3655               		.loc 4 78 3 is_stmt 1 view .LVU1022
  78:../../LUFA-111009/LUFA/Drivers/USB/Core/AVR8/Template/Template_Endpoint_Control_W.c **** 		  return ENDPOINT_RWCSTREAM_DeviceDisconnected;
 3656               		.loc 4 78 6 is_stmt 0 view .LVU1023
 3657 0096 8823      		tst r24
 3658 0098 01F0      		breq .L255
  80:../../LUFA-111009/LUFA/Drivers/USB/Core/AVR8/Template/Template_Endpoint_Control_W.c **** 		  return ENDPOINT_RWCSTREAM_BusSuspended;
 3659               		.loc 4 80 8 is_stmt 1 view .LVU1024
  80:../../LUFA-111009/LUFA/Drivers/USB/Core/AVR8/Template/Template_Endpoint_Control_W.c **** 		  return ENDPOINT_RWCSTREAM_BusSuspended;
 3660               		.loc 4 80 11 is_stmt 0 view .LVU1025
 3661 009a 8530      		cpi r24,lo8(5)
 3662 009c 01F4      		brne .L262
 3663               	.LVL327:
 3664               	.L256:
  80:../../LUFA-111009/LUFA/Drivers/USB/Core/AVR8/Template/Template_Endpoint_Control_W.c **** 		  return ENDPOINT_RWCSTREAM_BusSuspended;
 3665               		.loc 4 80 11 view .LVU1026
 3666               	.LBE425:
 3667               	.LBB426:
  51:../../LUFA-111009/LUFA/Drivers/USB/Core/AVR8/Template/Template_Endpoint_Control_W.c **** 		else if (Endpoint_IsSETUPReceived())
 3668               		.loc 4 51 12 view .LVU1027
 3669 009e 83E0      		ldi r24,lo8(3)
 3670               	/* epilogue start */
 3671               	.LBE426:
 3672               		.loc 4 85 1 view .LVU1028
 3673 00a0 0895      		ret
 3674               	.LVL328:
 3675               	.L254:
 3676               	.LBB427:
  53:../../LUFA-111009/LUFA/Drivers/USB/Core/AVR8/Template/Template_Endpoint_Control_W.c **** 		else if (Endpoint_IsOUTReceived())
 3677               		.loc 4 53 12 view .LVU1029
 3678 00a2 81E0      		ldi r24,lo8(1)
 3679               	.LVL329:
  53:../../LUFA-111009/LUFA/Drivers/USB/Core/AVR8/Template/Template_Endpoint_Control_W.c **** 		else if (Endpoint_IsOUTReceived())
 3680               		.loc 4 53 12 view .LVU1030
 3681 00a4 0895      		ret
 3682               	.L255:
  49:../../LUFA-111009/LUFA/Drivers/USB/Core/AVR8/Template/Template_Endpoint_Control_W.c **** 		else if (USB_DeviceState_LCL == DEVICE_STATE_Suspended)
 3683               		.loc 4 49 12 view .LVU1031
 3684 00a6 82E0      		ldi r24,lo8(2)
 3685 00a8 0895      		ret
 3686               	.LBE427:
 3687               		.cfi_endproc
 3688               	.LFE97:
 3690               		.section	.text.Endpoint_Write_Control_PStream_BE,"ax",@progbits
 3691               	.global	Endpoint_Write_Control_PStream_BE
 3693               	Endpoint_Write_Control_PStream_BE:
 3694               	.LVL330:
 3695               	.LFB98:
  35:../../LUFA-111009/LUFA/Drivers/USB/Core/AVR8/Template/Template_Endpoint_Control_W.c **** 	uint8_t* DataStream     = ((uint8_t*)Buffer + TEMPLATE_BUFFER_OFFSET(Length));
 3696               		.loc 4 35 1 is_stmt 1 view -0
 3697               		.cfi_startproc
 3698               	/* prologue: function */
 3699               	/* frame size = 0 */
 3700               	/* stack size = 0 */
 3701               	.L__stack_usage = 0
  35:../../LUFA-111009/LUFA/Drivers/USB/Core/AVR8/Template/Template_Endpoint_Control_W.c **** 	uint8_t* DataStream     = ((uint8_t*)Buffer + TEMPLATE_BUFFER_OFFSET(Length));
 3702               		.loc 4 35 1 is_stmt 0 view .LVU1033
 3703 0000 9B01      		movw r18,r22
  36:../../LUFA-111009/LUFA/Drivers/USB/Core/AVR8/Template/Template_Endpoint_Control_W.c **** 	bool     LastPacketFull = false;
 3704               		.loc 4 36 2 is_stmt 1 view .LVU1034
  36:../../LUFA-111009/LUFA/Drivers/USB/Core/AVR8/Template/Template_Endpoint_Control_W.c **** 	bool     LastPacketFull = false;
 3705               		.loc 4 36 46 is_stmt 0 view .LVU1035
 3706 0002 FB01      		movw r30,r22
 3707 0004 3197      		sbiw r30,1
  36:../../LUFA-111009/LUFA/Drivers/USB/Core/AVR8/Template/Template_Endpoint_Control_W.c **** 	bool     LastPacketFull = false;
 3708               		.loc 4 36 11 view .LVU1036
 3709 0006 E80F      		add r30,r24
 3710 0008 F91F      		adc r31,r25
 3711               	.LVL331:
  37:../../LUFA-111009/LUFA/Drivers/USB/Core/AVR8/Template/Template_Endpoint_Control_W.c **** 
 3712               		.loc 4 37 2 is_stmt 1 view .LVU1037
  39:../../LUFA-111009/LUFA/Drivers/USB/Core/AVR8/Template/Template_Endpoint_Control_W.c **** 	  Length = USB_ControlRequest.wLength;
 3713               		.loc 4 39 2 view .LVU1038
  39:../../LUFA-111009/LUFA/Drivers/USB/Core/AVR8/Template/Template_Endpoint_Control_W.c **** 	  Length = USB_ControlRequest.wLength;
 3714               		.loc 4 39 33 is_stmt 0 view .LVU1039
 3715 000a 8091 0000 		lds r24,USB_ControlRequest+6
 3716 000e 9091 0000 		lds r25,USB_ControlRequest+6+1
 3717               	.LVL332:
  39:../../LUFA-111009/LUFA/Drivers/USB/Core/AVR8/Template/Template_Endpoint_Control_W.c **** 	  Length = USB_ControlRequest.wLength;
 3718               		.loc 4 39 5 view .LVU1040
 3719 0012 8617      		cp r24,r22
 3720 0014 9707      		cpc r25,r23
 3721 0016 00F0      		brlo .L278
  41:../../LUFA-111009/LUFA/Drivers/USB/Core/AVR8/Template/Template_Endpoint_Control_W.c **** 	  Endpoint_ClearIN();
 3722               		.loc 4 41 7 is_stmt 1 view .LVU1041
  41:../../LUFA-111009/LUFA/Drivers/USB/Core/AVR8/Template/Template_Endpoint_Control_W.c **** 	  Endpoint_ClearIN();
 3723               		.loc 4 41 10 is_stmt 0 view .LVU1042
 3724 0018 672B      		or r22,r23
 3725 001a 01F4      		brne .L267
  42:../../LUFA-111009/LUFA/Drivers/USB/Core/AVR8/Template/Template_Endpoint_Control_W.c **** 
 3726               		.loc 4 42 4 is_stmt 1 view .LVU1043
 3727               	.LBB428:
 3728               	.LBI428:
 513:../../LUFA-111009/LUFA/Drivers/USB/Core/AVR8/../AVR8/../AVR8/Endpoint_AVR8.h **** 			{
 3729               		.loc 2 513 23 view .LVU1044
 3730               	.LBB429:
 516:../../LUFA-111009/LUFA/Drivers/USB/Core/AVR8/../AVR8/../AVR8/Endpoint_AVR8.h **** 				#else
 3731               		.loc 2 516 6 view .LVU1045
 516:../../LUFA-111009/LUFA/Drivers/USB/Core/AVR8/../AVR8/../AVR8/Endpoint_AVR8.h **** 				#else
 3732               		.loc 2 516 13 is_stmt 0 view .LVU1046
 3733 001c 8091 E800 		lds r24,232
 3734 0020 8E77      		andi r24,lo8(126)
 3735 0022 8093 E800 		sts 232,r24
 3736               	.L267:
 516:../../LUFA-111009/LUFA/Drivers/USB/Core/AVR8/../AVR8/../AVR8/Endpoint_AVR8.h **** 				#else
 3737               		.loc 2 516 13 view .LVU1047
 3738               	.LBE429:
 3739               	.LBE428:
 3740 0026 80E0      		ldi r24,0
 3741               	.LVL333:
 3742               	.L271:
  44:../../LUFA-111009/LUFA/Drivers/USB/Core/AVR8/Template/Template_Endpoint_Control_W.c **** 	{
 3743               		.loc 4 44 8 is_stmt 1 view .LVU1048
 3744 0028 2115      		cp r18,__zero_reg__
 3745 002a 3105      		cpc r19,__zero_reg__
 3746 002c 01F4      		brne .L276
  44:../../LUFA-111009/LUFA/Drivers/USB/Core/AVR8/Template/Template_Endpoint_Control_W.c **** 	{
 3747               		.loc 4 44 16 is_stmt 0 discriminator 1 view .LVU1049
 3748 002e 8111      		cpse r24,__zero_reg__
 3749 0030 00C0      		rjmp .L276
 3750               	.LVL334:
 3751               	.L289:
  74:../../LUFA-111009/LUFA/Drivers/USB/Core/AVR8/Template/Template_Endpoint_Control_W.c **** 	{
 3752               		.loc 4 74 8 is_stmt 1 view .LVU1050
 3753               	.LBB430:
 3754               	.LBI430:
 477:../../LUFA-111009/LUFA/Drivers/USB/Core/AVR8/../AVR8/../AVR8/Endpoint_AVR8.h **** 			{
 3755               		.loc 2 477 23 view .LVU1051
 3756               	.LBB431:
 479:../../LUFA-111009/LUFA/Drivers/USB/Core/AVR8/../AVR8/../AVR8/Endpoint_AVR8.h **** 			}
 3757               		.loc 2 479 5 view .LVU1052
 479:../../LUFA-111009/LUFA/Drivers/USB/Core/AVR8/../AVR8/../AVR8/Endpoint_AVR8.h **** 			}
 3758               		.loc 2 479 14 is_stmt 0 view .LVU1053
 3759 0032 8091 E800 		lds r24,232
 3760               	.LBE431:
 3761               	.LBE430:
  74:../../LUFA-111009/LUFA/Drivers/USB/Core/AVR8/Template/Template_Endpoint_Control_W.c **** 	{
 3762               		.loc 4 74 8 view .LVU1054
 3763 0036 82FF      		sbrs r24,2
 3764 0038 00C0      		rjmp .L277
  84:../../LUFA-111009/LUFA/Drivers/USB/Core/AVR8/Template/Template_Endpoint_Control_W.c **** }
 3765               		.loc 4 84 9 view .LVU1055
 3766 003a 80E0      		ldi r24,0
 3767 003c 0895      		ret
 3768               	.LVL335:
 3769               	.L278:
  84:../../LUFA-111009/LUFA/Drivers/USB/Core/AVR8/Template/Template_Endpoint_Control_W.c **** }
 3770               		.loc 4 84 9 view .LVU1056
 3771 003e 9C01      		movw r18,r24
 3772               	.LVL336:
  84:../../LUFA-111009/LUFA/Drivers/USB/Core/AVR8/Template/Template_Endpoint_Control_W.c **** }
 3773               		.loc 4 84 9 view .LVU1057
 3774 0040 00C0      		rjmp .L267
 3775               	.LVL337:
 3776               	.L276:
 3777               	.LBB432:
  46:../../LUFA-111009/LUFA/Drivers/USB/Core/AVR8/Template/Template_Endpoint_Control_W.c **** 
 3778               		.loc 4 46 3 is_stmt 1 view .LVU1058
  46:../../LUFA-111009/LUFA/Drivers/USB/Core/AVR8/Template/Template_Endpoint_Control_W.c **** 
 3779               		.loc 4 46 11 is_stmt 0 view .LVU1059
 3780 0042 9EB3      		in r25,0x1e
 3781               	.LVL338:
  48:../../LUFA-111009/LUFA/Drivers/USB/Core/AVR8/Template/Template_Endpoint_Control_W.c **** 		  return ENDPOINT_RWCSTREAM_DeviceDisconnected;
 3782               		.loc 4 48 3 is_stmt 1 view .LVU1060
  48:../../LUFA-111009/LUFA/Drivers/USB/Core/AVR8/Template/Template_Endpoint_Control_W.c **** 		  return ENDPOINT_RWCSTREAM_DeviceDisconnected;
 3783               		.loc 4 48 6 is_stmt 0 view .LVU1061
 3784 0044 9923      		tst r25
 3785 0046 01F0      		breq .L282
  50:../../LUFA-111009/LUFA/Drivers/USB/Core/AVR8/Template/Template_Endpoint_Control_W.c **** 		  return ENDPOINT_RWCSTREAM_BusSuspended;
 3786               		.loc 4 50 8 is_stmt 1 view .LVU1062
  50:../../LUFA-111009/LUFA/Drivers/USB/Core/AVR8/Template/Template_Endpoint_Control_W.c **** 		  return ENDPOINT_RWCSTREAM_BusSuspended;
 3787               		.loc 4 50 11 is_stmt 0 view .LVU1063
 3788 0048 9530      		cpi r25,lo8(5)
 3789 004a 01F0      		breq .L283
  52:../../LUFA-111009/LUFA/Drivers/USB/Core/AVR8/Template/Template_Endpoint_Control_W.c **** 		  return ENDPOINT_RWCSTREAM_HostAborted;
 3790               		.loc 4 52 8 is_stmt 1 view .LVU1064
 3791               	.LBB433:
 3792               	.LBI433:
 489:../../LUFA-111009/LUFA/Drivers/USB/Core/AVR8/../AVR8/../AVR8/Endpoint_AVR8.h **** 			{
 3793               		.loc 2 489 23 view .LVU1065
 3794               	.LBB434:
 491:../../LUFA-111009/LUFA/Drivers/USB/Core/AVR8/../AVR8/../AVR8/Endpoint_AVR8.h **** 			}
 3795               		.loc 2 491 5 view .LVU1066
 491:../../LUFA-111009/LUFA/Drivers/USB/Core/AVR8/../AVR8/../AVR8/Endpoint_AVR8.h **** 			}
 3796               		.loc 2 491 14 is_stmt 0 view .LVU1067
 3797 004c 9091 E800 		lds r25,232
 3798               	.LVL339:
 491:../../LUFA-111009/LUFA/Drivers/USB/Core/AVR8/../AVR8/../AVR8/Endpoint_AVR8.h **** 			}
 3799               		.loc 2 491 14 view .LVU1068
 3800               	.LBE434:
 3801               	.LBE433:
  52:../../LUFA-111009/LUFA/Drivers/USB/Core/AVR8/Template/Template_Endpoint_Control_W.c **** 		  return ENDPOINT_RWCSTREAM_HostAborted;
 3802               		.loc 4 52 11 view .LVU1069
 3803 0050 93FD      		sbrc r25,3
 3804 0052 00C0      		rjmp .L281
  54:../../LUFA-111009/LUFA/Drivers/USB/Core/AVR8/Template/Template_Endpoint_Control_W.c **** 		  break;
 3805               		.loc 4 54 8 is_stmt 1 view .LVU1070
 3806               	.LBB435:
 3807               	.LBI435:
 477:../../LUFA-111009/LUFA/Drivers/USB/Core/AVR8/../AVR8/../AVR8/Endpoint_AVR8.h **** 			{
 3808               		.loc 2 477 23 view .LVU1071
 3809               	.LBB436:
 479:../../LUFA-111009/LUFA/Drivers/USB/Core/AVR8/../AVR8/../AVR8/Endpoint_AVR8.h **** 			}
 3810               		.loc 2 479 5 view .LVU1072
 479:../../LUFA-111009/LUFA/Drivers/USB/Core/AVR8/../AVR8/../AVR8/Endpoint_AVR8.h **** 			}
 3811               		.loc 2 479 14 is_stmt 0 view .LVU1073
 3812 0054 9091 E800 		lds r25,232
 3813               	.LBE436:
 3814               	.LBE435:
  54:../../LUFA-111009/LUFA/Drivers/USB/Core/AVR8/Template/Template_Endpoint_Control_W.c **** 		  break;
 3815               		.loc 4 54 11 view .LVU1074
 3816 0058 92FD      		sbrc r25,2
 3817 005a 00C0      		rjmp .L289
  57:../../LUFA-111009/LUFA/Drivers/USB/Core/AVR8/Template/Template_Endpoint_Control_W.c **** 		{
 3818               		.loc 4 57 3 is_stmt 1 view .LVU1075
 3819               	.LBB437:
 3820               	.LBI437:
 465:../../LUFA-111009/LUFA/Drivers/USB/Core/AVR8/../AVR8/../AVR8/Endpoint_AVR8.h **** 			{
 3821               		.loc 2 465 23 view .LVU1076
 3822               	.LBB438:
 467:../../LUFA-111009/LUFA/Drivers/USB/Core/AVR8/../AVR8/../AVR8/Endpoint_AVR8.h **** 			}
 3823               		.loc 2 467 5 view .LVU1077
 467:../../LUFA-111009/LUFA/Drivers/USB/Core/AVR8/../AVR8/../AVR8/Endpoint_AVR8.h **** 			}
 3824               		.loc 2 467 14 is_stmt 0 view .LVU1078
 3825 005c 9091 E800 		lds r25,232
 3826               	.LBE438:
 3827               	.LBE437:
  57:../../LUFA-111009/LUFA/Drivers/USB/Core/AVR8/Template/Template_Endpoint_Control_W.c **** 		{
 3828               		.loc 4 57 6 view .LVU1079
 3829 0060 90FF      		sbrs r25,0
 3830 0062 00C0      		rjmp .L271
 3831               	.LBB439:
  59:../../LUFA-111009/LUFA/Drivers/USB/Core/AVR8/Template/Template_Endpoint_Control_W.c **** 
 3832               		.loc 4 59 4 is_stmt 1 view .LVU1080
 3833               	.LBB440:
 3834               	.LBI440:
 290:../../LUFA-111009/LUFA/Drivers/USB/Core/AVR8/../AVR8/../AVR8/Endpoint_AVR8.h **** 			{
 3835               		.loc 2 290 27 view .LVU1081
 3836               	.LBB441:
 295:../../LUFA-111009/LUFA/Drivers/USB/Core/AVR8/../AVR8/../AVR8/Endpoint_AVR8.h **** 				#elif defined(USB_SERIES_2_AVR)
 3837               		.loc 2 295 6 view .LVU1082
 295:../../LUFA-111009/LUFA/Drivers/USB/Core/AVR8/../AVR8/../AVR8/Endpoint_AVR8.h **** 				#elif defined(USB_SERIES_2_AVR)
 3838               		.loc 2 295 25 is_stmt 0 view .LVU1083
 3839 0064 8091 F300 		lds r24,243
 3840               	.LVL340:
 295:../../LUFA-111009/LUFA/Drivers/USB/Core/AVR8/../AVR8/../AVR8/Endpoint_AVR8.h **** 				#elif defined(USB_SERIES_2_AVR)
 3841               		.loc 2 295 40 view .LVU1084
 3842 0068 4091 F200 		lds r20,242
 295:../../LUFA-111009/LUFA/Drivers/USB/Core/AVR8/../AVR8/../AVR8/Endpoint_AVR8.h **** 				#elif defined(USB_SERIES_2_AVR)
 3843               		.loc 2 295 38 view .LVU1085
 3844 006c 582F      		mov r21,r24
 3845               	.LVL341:
 295:../../LUFA-111009/LUFA/Drivers/USB/Core/AVR8/../AVR8/../AVR8/Endpoint_AVR8.h **** 				#elif defined(USB_SERIES_2_AVR)
 3846               		.loc 2 295 38 view .LVU1086
 3847               	.LBE441:
 3848               	.LBE440:
  61:../../LUFA-111009/LUFA/Drivers/USB/Core/AVR8/Template/Template_Endpoint_Control_W.c **** 			{
 3849               		.loc 4 61 4 is_stmt 1 view .LVU1087
 3850               	.L272:
  61:../../LUFA-111009/LUFA/Drivers/USB/Core/AVR8/Template/Template_Endpoint_Control_W.c **** 			{
 3851               		.loc 4 61 10 view .LVU1088
 3852 006e 2115      		cp r18,__zero_reg__
 3853 0070 3105      		cpc r19,__zero_reg__
 3854 0072 01F0      		breq .L273
  61:../../LUFA-111009/LUFA/Drivers/USB/Core/AVR8/Template/Template_Endpoint_Control_W.c **** 			{
 3855               		.loc 4 61 18 is_stmt 0 discriminator 1 view .LVU1089
 3856 0074 4830      		cpi r20,8
 3857 0076 5105      		cpc r21,__zero_reg__
 3858 0078 00F0      		brlo .L274
 3859               	.L273:
  69:../../LUFA-111009/LUFA/Drivers/USB/Core/AVR8/Template/Template_Endpoint_Control_W.c **** 			Endpoint_ClearIN();
 3860               		.loc 4 69 4 is_stmt 1 view .LVU1090
  69:../../LUFA-111009/LUFA/Drivers/USB/Core/AVR8/Template/Template_Endpoint_Control_W.c **** 			Endpoint_ClearIN();
 3861               		.loc 4 69 19 is_stmt 0 view .LVU1091
 3862 007a 81E0      		ldi r24,lo8(1)
 3863 007c 4830      		cpi r20,8
 3864 007e 5105      		cpc r21,__zero_reg__
 3865 0080 01F0      		breq .L275
 3866 0082 80E0      		ldi r24,0
 3867               	.L275:
 3868               	.LVL342:
  70:../../LUFA-111009/LUFA/Drivers/USB/Core/AVR8/Template/Template_Endpoint_Control_W.c **** 		}
 3869               		.loc 4 70 4 is_stmt 1 view .LVU1092
 3870               	.LBB442:
 3871               	.LBI442:
 513:../../LUFA-111009/LUFA/Drivers/USB/Core/AVR8/../AVR8/../AVR8/Endpoint_AVR8.h **** 			{
 3872               		.loc 2 513 23 view .LVU1093
 3873               	.LBB443:
 516:../../LUFA-111009/LUFA/Drivers/USB/Core/AVR8/../AVR8/../AVR8/Endpoint_AVR8.h **** 				#else
 3874               		.loc 2 516 6 view .LVU1094
 516:../../LUFA-111009/LUFA/Drivers/USB/Core/AVR8/../AVR8/../AVR8/Endpoint_AVR8.h **** 				#else
 3875               		.loc 2 516 13 is_stmt 0 view .LVU1095
 3876 0084 9091 E800 		lds r25,232
 3877 0088 9E77      		andi r25,lo8(126)
 3878 008a 9093 E800 		sts 232,r25
 3879               	.LVL343:
 520:../../LUFA-111009/LUFA/Drivers/USB/Core/AVR8/../AVR8/../AVR8/Endpoint_AVR8.h **** 
 3880               		.loc 2 520 4 view .LVU1096
 3881 008e 00C0      		rjmp .L271
 3882               	.LVL344:
 3883               	.L274:
 520:../../LUFA-111009/LUFA/Drivers/USB/Core/AVR8/../AVR8/../AVR8/Endpoint_AVR8.h **** 
 3884               		.loc 2 520 4 view .LVU1097
 3885               	.LBE443:
 3886               	.LBE442:
  63:../../LUFA-111009/LUFA/Drivers/USB/Core/AVR8/Template/Template_Endpoint_Control_W.c **** 				TEMPLATE_BUFFER_MOVE(DataStream, 1);
 3887               		.loc 4 63 5 is_stmt 1 view .LVU1098
 3888               	.LBB444:
  63:../../LUFA-111009/LUFA/Drivers/USB/Core/AVR8/Template/Template_Endpoint_Control_W.c **** 				TEMPLATE_BUFFER_MOVE(DataStream, 1);
 3889               		.loc 4 63 5 view .LVU1099
  63:../../LUFA-111009/LUFA/Drivers/USB/Core/AVR8/Template/Template_Endpoint_Control_W.c **** 				TEMPLATE_BUFFER_MOVE(DataStream, 1);
 3890               		.loc 4 63 5 view .LVU1100
  63:../../LUFA-111009/LUFA/Drivers/USB/Core/AVR8/Template/Template_Endpoint_Control_W.c **** 				TEMPLATE_BUFFER_MOVE(DataStream, 1);
 3891               		.loc 4 63 5 view .LVU1101
 3892               	/* #APP */
 3893               	 ;  63 "../../LUFA-111009/LUFA/Drivers/USB/Core/AVR8/Template/Template_Endpoint_Control_W.c" 1
 3894 0090 8491      		lpm r24, Z
 3895               		
 3896               	 ;  0 "" 2
 3897               	.LVL345:
  63:../../LUFA-111009/LUFA/Drivers/USB/Core/AVR8/Template/Template_Endpoint_Control_W.c **** 				TEMPLATE_BUFFER_MOVE(DataStream, 1);
 3898               		.loc 4 63 5 view .LVU1102
  63:../../LUFA-111009/LUFA/Drivers/USB/Core/AVR8/Template/Template_Endpoint_Control_W.c **** 				TEMPLATE_BUFFER_MOVE(DataStream, 1);
 3899               		.loc 4 63 5 is_stmt 0 view .LVU1103
 3900               	/* #NOAPP */
 3901               	.LBE444:
 3902               	.LBB445:
 3903               	.LBI445:
 622:../../LUFA-111009/LUFA/Drivers/USB/Core/AVR8/../AVR8/../AVR8/Endpoint_AVR8.h **** 			{
 3904               		.loc 2 622 23 is_stmt 1 view .LVU1104
 3905               	.LBB446:
 624:../../LUFA-111009/LUFA/Drivers/USB/Core/AVR8/../AVR8/../AVR8/Endpoint_AVR8.h **** 			}
 3906               		.loc 2 624 5 view .LVU1105
 624:../../LUFA-111009/LUFA/Drivers/USB/Core/AVR8/../AVR8/../AVR8/Endpoint_AVR8.h **** 			}
 3907               		.loc 2 624 12 is_stmt 0 view .LVU1106
 3908 0092 8093 F100 		sts 241,r24
 3909               	.LVL346:
 624:../../LUFA-111009/LUFA/Drivers/USB/Core/AVR8/../AVR8/../AVR8/Endpoint_AVR8.h **** 			}
 3910               		.loc 2 624 12 view .LVU1107
 3911               	.LBE446:
 3912               	.LBE445:
  64:../../LUFA-111009/LUFA/Drivers/USB/Core/AVR8/Template/Template_Endpoint_Control_W.c **** 				Length--;
 3913               		.loc 4 64 5 is_stmt 1 view .LVU1108
 3914 0096 3197      		sbiw r30,1
 3915               	.LVL347:
  65:../../LUFA-111009/LUFA/Drivers/USB/Core/AVR8/Template/Template_Endpoint_Control_W.c **** 				BytesInEndpoint++;
 3916               		.loc 4 65 5 view .LVU1109
  65:../../LUFA-111009/LUFA/Drivers/USB/Core/AVR8/Template/Template_Endpoint_Control_W.c **** 				BytesInEndpoint++;
 3917               		.loc 4 65 11 is_stmt 0 view .LVU1110
 3918 0098 2150      		subi r18,1
 3919 009a 3109      		sbc r19,__zero_reg__
 3920               	.LVL348:
  66:../../LUFA-111009/LUFA/Drivers/USB/Core/AVR8/Template/Template_Endpoint_Control_W.c **** 			}
 3921               		.loc 4 66 5 is_stmt 1 view .LVU1111
  66:../../LUFA-111009/LUFA/Drivers/USB/Core/AVR8/Template/Template_Endpoint_Control_W.c **** 			}
 3922               		.loc 4 66 20 is_stmt 0 view .LVU1112
 3923 009c 4F5F      		subi r20,-1
 3924 009e 5F4F      		sbci r21,-1
 3925               	.LVL349:
  66:../../LUFA-111009/LUFA/Drivers/USB/Core/AVR8/Template/Template_Endpoint_Control_W.c **** 			}
 3926               		.loc 4 66 20 view .LVU1113
 3927 00a0 00C0      		rjmp .L272
 3928               	.LVL350:
 3929               	.L277:
  66:../../LUFA-111009/LUFA/Drivers/USB/Core/AVR8/Template/Template_Endpoint_Control_W.c **** 			}
 3930               		.loc 4 66 20 view .LVU1114
 3931               	.LBE439:
 3932               	.LBE432:
 3933               	.LBB447:
  76:../../LUFA-111009/LUFA/Drivers/USB/Core/AVR8/Template/Template_Endpoint_Control_W.c **** 
 3934               		.loc 4 76 3 is_stmt 1 view .LVU1115
  76:../../LUFA-111009/LUFA/Drivers/USB/Core/AVR8/Template/Template_Endpoint_Control_W.c **** 
 3935               		.loc 4 76 11 is_stmt 0 view .LVU1116
 3936 00a2 8EB3      		in r24,0x1e
 3937               	.LVL351:
  78:../../LUFA-111009/LUFA/Drivers/USB/Core/AVR8/Template/Template_Endpoint_Control_W.c **** 		  return ENDPOINT_RWCSTREAM_DeviceDisconnected;
 3938               		.loc 4 78 3 is_stmt 1 view .LVU1117
  78:../../LUFA-111009/LUFA/Drivers/USB/Core/AVR8/Template/Template_Endpoint_Control_W.c **** 		  return ENDPOINT_RWCSTREAM_DeviceDisconnected;
 3939               		.loc 4 78 6 is_stmt 0 view .LVU1118
 3940 00a4 8823      		tst r24
 3941 00a6 01F0      		breq .L282
  80:../../LUFA-111009/LUFA/Drivers/USB/Core/AVR8/Template/Template_Endpoint_Control_W.c **** 		  return ENDPOINT_RWCSTREAM_BusSuspended;
 3942               		.loc 4 80 8 is_stmt 1 view .LVU1119
  80:../../LUFA-111009/LUFA/Drivers/USB/Core/AVR8/Template/Template_Endpoint_Control_W.c **** 		  return ENDPOINT_RWCSTREAM_BusSuspended;
 3943               		.loc 4 80 11 is_stmt 0 view .LVU1120
 3944 00a8 8530      		cpi r24,lo8(5)
 3945 00aa 01F0      		breq .+2
 3946 00ac 00C0      		rjmp .L289
 3947               	.LVL352:
 3948               	.L283:
  80:../../LUFA-111009/LUFA/Drivers/USB/Core/AVR8/Template/Template_Endpoint_Control_W.c **** 		  return ENDPOINT_RWCSTREAM_BusSuspended;
 3949               		.loc 4 80 11 view .LVU1121
 3950               	.LBE447:
 3951               	.LBB448:
  51:../../LUFA-111009/LUFA/Drivers/USB/Core/AVR8/Template/Template_Endpoint_Control_W.c **** 		else if (Endpoint_IsSETUPReceived())
 3952               		.loc 4 51 12 view .LVU1122
 3953 00ae 83E0      		ldi r24,lo8(3)
 3954               	/* epilogue start */
 3955               	.LBE448:
 3956               		.loc 4 85 1 view .LVU1123
 3957 00b0 0895      		ret
 3958               	.LVL353:
 3959               	.L281:
 3960               	.LBB449:
  53:../../LUFA-111009/LUFA/Drivers/USB/Core/AVR8/Template/Template_Endpoint_Control_W.c **** 		else if (Endpoint_IsOUTReceived())
 3961               		.loc 4 53 12 view .LVU1124
 3962 00b2 81E0      		ldi r24,lo8(1)
 3963               	.LVL354:
  53:../../LUFA-111009/LUFA/Drivers/USB/Core/AVR8/Template/Template_Endpoint_Control_W.c **** 		else if (Endpoint_IsOUTReceived())
 3964               		.loc 4 53 12 view .LVU1125
 3965 00b4 0895      		ret
 3966               	.L282:
  49:../../LUFA-111009/LUFA/Drivers/USB/Core/AVR8/Template/Template_Endpoint_Control_W.c **** 		else if (USB_DeviceState_LCL == DEVICE_STATE_Suspended)
 3967               		.loc 4 49 12 view .LVU1126
 3968 00b6 82E0      		ldi r24,lo8(2)
 3969 00b8 0895      		ret
 3970               	.LBE449:
 3971               		.cfi_endproc
 3972               	.LFE98:
 3974               		.section	.text.Endpoint_Write_Control_EStream_LE,"ax",@progbits
 3975               	.global	Endpoint_Write_Control_EStream_LE
 3977               	Endpoint_Write_Control_EStream_LE:
 3978               	.LVL355:
 3979               	.LFB99:
  35:../../LUFA-111009/LUFA/Drivers/USB/Core/AVR8/Template/Template_Endpoint_Control_W.c **** 	uint8_t* DataStream     = ((uint8_t*)Buffer + TEMPLATE_BUFFER_OFFSET(Length));
 3980               		.loc 4 35 1 is_stmt 1 view -0
 3981               		.cfi_startproc
  35:../../LUFA-111009/LUFA/Drivers/USB/Core/AVR8/Template/Template_Endpoint_Control_W.c **** 	uint8_t* DataStream     = ((uint8_t*)Buffer + TEMPLATE_BUFFER_OFFSET(Length));
 3982               		.loc 4 35 1 is_stmt 0 view .LVU1128
 3983 0000 EF92      		push r14
 3984               	.LCFI104:
 3985               		.cfi_def_cfa_offset 3
 3986               		.cfi_offset 14, -2
 3987 0002 FF92      		push r15
 3988               	.LCFI105:
 3989               		.cfi_def_cfa_offset 4
 3990               		.cfi_offset 15, -3
 3991 0004 0F93      		push r16
 3992               	.LCFI106:
 3993               		.cfi_def_cfa_offset 5
 3994               		.cfi_offset 16, -4
 3995 0006 1F93      		push r17
 3996               	.LCFI107:
 3997               		.cfi_def_cfa_offset 6
 3998               		.cfi_offset 17, -5
 3999 0008 CF93      		push r28
 4000               	.LCFI108:
 4001               		.cfi_def_cfa_offset 7
 4002               		.cfi_offset 28, -6
 4003 000a DF93      		push r29
 4004               	.LCFI109:
 4005               		.cfi_def_cfa_offset 8
 4006               		.cfi_offset 29, -7
 4007               	/* prologue: function */
 4008               	/* frame size = 0 */
 4009               	/* stack size = 6 */
 4010               	.L__stack_usage = 6
 4011 000c 7C01      		movw r14,r24
 4012 000e EB01      		movw r28,r22
  36:../../LUFA-111009/LUFA/Drivers/USB/Core/AVR8/Template/Template_Endpoint_Control_W.c **** 	bool     LastPacketFull = false;
 4013               		.loc 4 36 2 is_stmt 1 view .LVU1129
 4014               	.LVL356:
  37:../../LUFA-111009/LUFA/Drivers/USB/Core/AVR8/Template/Template_Endpoint_Control_W.c **** 
 4015               		.loc 4 37 2 view .LVU1130
  39:../../LUFA-111009/LUFA/Drivers/USB/Core/AVR8/Template/Template_Endpoint_Control_W.c **** 	  Length = USB_ControlRequest.wLength;
 4016               		.loc 4 39 2 view .LVU1131
  39:../../LUFA-111009/LUFA/Drivers/USB/Core/AVR8/Template/Template_Endpoint_Control_W.c **** 	  Length = USB_ControlRequest.wLength;
 4017               		.loc 4 39 33 is_stmt 0 view .LVU1132
 4018 0010 8091 0000 		lds r24,USB_ControlRequest+6
 4019 0014 9091 0000 		lds r25,USB_ControlRequest+6+1
 4020               	.LVL357:
  39:../../LUFA-111009/LUFA/Drivers/USB/Core/AVR8/Template/Template_Endpoint_Control_W.c **** 	  Length = USB_ControlRequest.wLength;
 4021               		.loc 4 39 5 view .LVU1133
 4022 0018 8617      		cp r24,r22
 4023 001a 9707      		cpc r25,r23
 4024 001c 00F0      		brlo .L305
  41:../../LUFA-111009/LUFA/Drivers/USB/Core/AVR8/Template/Template_Endpoint_Control_W.c **** 	  Endpoint_ClearIN();
 4025               		.loc 4 41 7 is_stmt 1 view .LVU1134
  41:../../LUFA-111009/LUFA/Drivers/USB/Core/AVR8/Template/Template_Endpoint_Control_W.c **** 	  Endpoint_ClearIN();
 4026               		.loc 4 41 10 is_stmt 0 view .LVU1135
 4027 001e 2097      		sbiw r28,0
 4028 0020 01F4      		brne .L294
  42:../../LUFA-111009/LUFA/Drivers/USB/Core/AVR8/Template/Template_Endpoint_Control_W.c **** 
 4029               		.loc 4 42 4 is_stmt 1 view .LVU1136
 4030               	.LBB450:
 4031               	.LBI450:
 513:../../LUFA-111009/LUFA/Drivers/USB/Core/AVR8/../AVR8/../AVR8/Endpoint_AVR8.h **** 			{
 4032               		.loc 2 513 23 view .LVU1137
 4033               	.LBB451:
 516:../../LUFA-111009/LUFA/Drivers/USB/Core/AVR8/../AVR8/../AVR8/Endpoint_AVR8.h **** 				#else
 4034               		.loc 2 516 6 view .LVU1138
 516:../../LUFA-111009/LUFA/Drivers/USB/Core/AVR8/../AVR8/../AVR8/Endpoint_AVR8.h **** 				#else
 4035               		.loc 2 516 13 is_stmt 0 view .LVU1139
 4036 0022 8091 E800 		lds r24,232
 4037 0026 8E77      		andi r24,lo8(126)
 4038 0028 8093 E800 		sts 232,r24
 4039               	.L294:
 516:../../LUFA-111009/LUFA/Drivers/USB/Core/AVR8/../AVR8/../AVR8/Endpoint_AVR8.h **** 				#else
 4040               		.loc 2 516 13 view .LVU1140
 4041               	.LBE451:
 4042               	.LBE450:
 4043 002c 80E0      		ldi r24,0
 4044               	.LVL358:
 4045               	.L298:
  44:../../LUFA-111009/LUFA/Drivers/USB/Core/AVR8/Template/Template_Endpoint_Control_W.c **** 	{
 4046               		.loc 4 44 8 is_stmt 1 view .LVU1141
 4047 002e 2097      		sbiw r28,0
 4048 0030 01F4      		brne .L303
  44:../../LUFA-111009/LUFA/Drivers/USB/Core/AVR8/Template/Template_Endpoint_Control_W.c **** 	{
 4049               		.loc 4 44 16 is_stmt 0 discriminator 1 view .LVU1142
 4050 0032 8111      		cpse r24,__zero_reg__
 4051 0034 00C0      		rjmp .L303
 4052               	.LVL359:
 4053               	.L316:
  74:../../LUFA-111009/LUFA/Drivers/USB/Core/AVR8/Template/Template_Endpoint_Control_W.c **** 	{
 4054               		.loc 4 74 8 is_stmt 1 view .LVU1143
 4055               	.LBB452:
 4056               	.LBI452:
 477:../../LUFA-111009/LUFA/Drivers/USB/Core/AVR8/../AVR8/../AVR8/Endpoint_AVR8.h **** 			{
 4057               		.loc 2 477 23 view .LVU1144
 4058               	.LBB453:
 479:../../LUFA-111009/LUFA/Drivers/USB/Core/AVR8/../AVR8/../AVR8/Endpoint_AVR8.h **** 			}
 4059               		.loc 2 479 5 view .LVU1145
 479:../../LUFA-111009/LUFA/Drivers/USB/Core/AVR8/../AVR8/../AVR8/Endpoint_AVR8.h **** 			}
 4060               		.loc 2 479 14 is_stmt 0 view .LVU1146
 4061 0036 8091 E800 		lds r24,232
 4062               	.LBE453:
 4063               	.LBE452:
  74:../../LUFA-111009/LUFA/Drivers/USB/Core/AVR8/Template/Template_Endpoint_Control_W.c **** 	{
 4064               		.loc 4 74 8 view .LVU1147
 4065 003a 82FF      		sbrs r24,2
 4066 003c 00C0      		rjmp .L304
  84:../../LUFA-111009/LUFA/Drivers/USB/Core/AVR8/Template/Template_Endpoint_Control_W.c **** }
 4067               		.loc 4 84 9 view .LVU1148
 4068 003e 80E0      		ldi r24,0
 4069               	.L293:
 4070               	/* epilogue start */
 4071               		.loc 4 85 1 view .LVU1149
 4072 0040 DF91      		pop r29
 4073 0042 CF91      		pop r28
 4074               	.LVL360:
 4075               		.loc 4 85 1 view .LVU1150
 4076 0044 1F91      		pop r17
 4077 0046 0F91      		pop r16
 4078 0048 FF90      		pop r15
 4079 004a EF90      		pop r14
 4080               	.LVL361:
 4081               		.loc 4 85 1 view .LVU1151
 4082 004c 0895      		ret
 4083               	.LVL362:
 4084               	.L305:
 4085               		.loc 4 85 1 view .LVU1152
 4086 004e EC01      		movw r28,r24
 4087 0050 00C0      		rjmp .L294
 4088               	.LVL363:
 4089               	.L303:
 4090               	.LBB454:
  46:../../LUFA-111009/LUFA/Drivers/USB/Core/AVR8/Template/Template_Endpoint_Control_W.c **** 
 4091               		.loc 4 46 3 is_stmt 1 view .LVU1153
  46:../../LUFA-111009/LUFA/Drivers/USB/Core/AVR8/Template/Template_Endpoint_Control_W.c **** 
 4092               		.loc 4 46 11 is_stmt 0 view .LVU1154
 4093 0052 9EB3      		in r25,0x1e
 4094               	.LVL364:
  48:../../LUFA-111009/LUFA/Drivers/USB/Core/AVR8/Template/Template_Endpoint_Control_W.c **** 		  return ENDPOINT_RWCSTREAM_DeviceDisconnected;
 4095               		.loc 4 48 3 is_stmt 1 view .LVU1155
  48:../../LUFA-111009/LUFA/Drivers/USB/Core/AVR8/Template/Template_Endpoint_Control_W.c **** 		  return ENDPOINT_RWCSTREAM_DeviceDisconnected;
 4096               		.loc 4 48 6 is_stmt 0 view .LVU1156
 4097 0054 9923      		tst r25
 4098 0056 01F0      		breq .L309
  50:../../LUFA-111009/LUFA/Drivers/USB/Core/AVR8/Template/Template_Endpoint_Control_W.c **** 		  return ENDPOINT_RWCSTREAM_BusSuspended;
 4099               		.loc 4 50 8 is_stmt 1 view .LVU1157
  50:../../LUFA-111009/LUFA/Drivers/USB/Core/AVR8/Template/Template_Endpoint_Control_W.c **** 		  return ENDPOINT_RWCSTREAM_BusSuspended;
 4100               		.loc 4 50 11 is_stmt 0 view .LVU1158
 4101 0058 9530      		cpi r25,lo8(5)
 4102 005a 01F0      		breq .L310
  52:../../LUFA-111009/LUFA/Drivers/USB/Core/AVR8/Template/Template_Endpoint_Control_W.c **** 		  return ENDPOINT_RWCSTREAM_HostAborted;
 4103               		.loc 4 52 8 is_stmt 1 view .LVU1159
 4104               	.LBB455:
 4105               	.LBI455:
 489:../../LUFA-111009/LUFA/Drivers/USB/Core/AVR8/../AVR8/../AVR8/Endpoint_AVR8.h **** 			{
 4106               		.loc 2 489 23 view .LVU1160
 4107               	.LBB456:
 491:../../LUFA-111009/LUFA/Drivers/USB/Core/AVR8/../AVR8/../AVR8/Endpoint_AVR8.h **** 			}
 4108               		.loc 2 491 5 view .LVU1161
 491:../../LUFA-111009/LUFA/Drivers/USB/Core/AVR8/../AVR8/../AVR8/Endpoint_AVR8.h **** 			}
 4109               		.loc 2 491 14 is_stmt 0 view .LVU1162
 4110 005c 9091 E800 		lds r25,232
 4111               	.LVL365:
 491:../../LUFA-111009/LUFA/Drivers/USB/Core/AVR8/../AVR8/../AVR8/Endpoint_AVR8.h **** 			}
 4112               		.loc 2 491 14 view .LVU1163
 4113               	.LBE456:
 4114               	.LBE455:
  52:../../LUFA-111009/LUFA/Drivers/USB/Core/AVR8/Template/Template_Endpoint_Control_W.c **** 		  return ENDPOINT_RWCSTREAM_HostAborted;
 4115               		.loc 4 52 11 view .LVU1164
 4116 0060 93FD      		sbrc r25,3
 4117 0062 00C0      		rjmp .L308
  54:../../LUFA-111009/LUFA/Drivers/USB/Core/AVR8/Template/Template_Endpoint_Control_W.c **** 		  break;
 4118               		.loc 4 54 8 is_stmt 1 view .LVU1165
 4119               	.LBB457:
 4120               	.LBI457:
 477:../../LUFA-111009/LUFA/Drivers/USB/Core/AVR8/../AVR8/../AVR8/Endpoint_AVR8.h **** 			{
 4121               		.loc 2 477 23 view .LVU1166
 4122               	.LBB458:
 479:../../LUFA-111009/LUFA/Drivers/USB/Core/AVR8/../AVR8/../AVR8/Endpoint_AVR8.h **** 			}
 4123               		.loc 2 479 5 view .LVU1167
 479:../../LUFA-111009/LUFA/Drivers/USB/Core/AVR8/../AVR8/../AVR8/Endpoint_AVR8.h **** 			}
 4124               		.loc 2 479 14 is_stmt 0 view .LVU1168
 4125 0064 9091 E800 		lds r25,232
 4126               	.LBE458:
 4127               	.LBE457:
  54:../../LUFA-111009/LUFA/Drivers/USB/Core/AVR8/Template/Template_Endpoint_Control_W.c **** 		  break;
 4128               		.loc 4 54 11 view .LVU1169
 4129 0068 92FD      		sbrc r25,2
 4130 006a 00C0      		rjmp .L316
  57:../../LUFA-111009/LUFA/Drivers/USB/Core/AVR8/Template/Template_Endpoint_Control_W.c **** 		{
 4131               		.loc 4 57 3 is_stmt 1 view .LVU1170
 4132               	.LBB459:
 4133               	.LBI459:
 465:../../LUFA-111009/LUFA/Drivers/USB/Core/AVR8/../AVR8/../AVR8/Endpoint_AVR8.h **** 			{
 4134               		.loc 2 465 23 view .LVU1171
 4135               	.LBB460:
 467:../../LUFA-111009/LUFA/Drivers/USB/Core/AVR8/../AVR8/../AVR8/Endpoint_AVR8.h **** 			}
 4136               		.loc 2 467 5 view .LVU1172
 467:../../LUFA-111009/LUFA/Drivers/USB/Core/AVR8/../AVR8/../AVR8/Endpoint_AVR8.h **** 			}
 4137               		.loc 2 467 14 is_stmt 0 view .LVU1173
 4138 006c 9091 E800 		lds r25,232
 4139               	.LBE460:
 4140               	.LBE459:
  57:../../LUFA-111009/LUFA/Drivers/USB/Core/AVR8/Template/Template_Endpoint_Control_W.c **** 		{
 4141               		.loc 4 57 6 view .LVU1174
 4142 0070 90FF      		sbrs r25,0
 4143 0072 00C0      		rjmp .L298
 4144               	.LBB461:
  59:../../LUFA-111009/LUFA/Drivers/USB/Core/AVR8/Template/Template_Endpoint_Control_W.c **** 
 4145               		.loc 4 59 4 is_stmt 1 view .LVU1175
 4146               	.LBB462:
 4147               	.LBI462:
 290:../../LUFA-111009/LUFA/Drivers/USB/Core/AVR8/../AVR8/../AVR8/Endpoint_AVR8.h **** 			{
 4148               		.loc 2 290 27 view .LVU1176
 4149               	.LBB463:
 295:../../LUFA-111009/LUFA/Drivers/USB/Core/AVR8/../AVR8/../AVR8/Endpoint_AVR8.h **** 				#elif defined(USB_SERIES_2_AVR)
 4150               		.loc 2 295 6 view .LVU1177
 295:../../LUFA-111009/LUFA/Drivers/USB/Core/AVR8/../AVR8/../AVR8/Endpoint_AVR8.h **** 				#elif defined(USB_SERIES_2_AVR)
 4151               		.loc 2 295 25 is_stmt 0 view .LVU1178
 4152 0074 8091 F300 		lds r24,243
 4153               	.LVL366:
 295:../../LUFA-111009/LUFA/Drivers/USB/Core/AVR8/../AVR8/../AVR8/Endpoint_AVR8.h **** 				#elif defined(USB_SERIES_2_AVR)
 4154               		.loc 2 295 40 view .LVU1179
 4155 0078 0091 F200 		lds r16,242
 295:../../LUFA-111009/LUFA/Drivers/USB/Core/AVR8/../AVR8/../AVR8/Endpoint_AVR8.h **** 				#elif defined(USB_SERIES_2_AVR)
 4156               		.loc 2 295 38 view .LVU1180
 4157 007c 182F      		mov r17,r24
 4158               	.LVL367:
 295:../../LUFA-111009/LUFA/Drivers/USB/Core/AVR8/../AVR8/../AVR8/Endpoint_AVR8.h **** 				#elif defined(USB_SERIES_2_AVR)
 4159               		.loc 2 295 38 view .LVU1181
 4160               	.LBE463:
 4161               	.LBE462:
  61:../../LUFA-111009/LUFA/Drivers/USB/Core/AVR8/Template/Template_Endpoint_Control_W.c **** 			{
 4162               		.loc 4 61 4 is_stmt 1 view .LVU1182
 4163               	.L299:
  61:../../LUFA-111009/LUFA/Drivers/USB/Core/AVR8/Template/Template_Endpoint_Control_W.c **** 			{
 4164               		.loc 4 61 10 view .LVU1183
 4165 007e 2097      		sbiw r28,0
 4166 0080 01F0      		breq .L300
  61:../../LUFA-111009/LUFA/Drivers/USB/Core/AVR8/Template/Template_Endpoint_Control_W.c **** 			{
 4167               		.loc 4 61 18 is_stmt 0 discriminator 1 view .LVU1184
 4168 0082 0830      		cpi r16,8
 4169 0084 1105      		cpc r17,__zero_reg__
 4170 0086 00F0      		brlo .L301
 4171               	.L300:
  69:../../LUFA-111009/LUFA/Drivers/USB/Core/AVR8/Template/Template_Endpoint_Control_W.c **** 			Endpoint_ClearIN();
 4172               		.loc 4 69 4 is_stmt 1 view .LVU1185
  69:../../LUFA-111009/LUFA/Drivers/USB/Core/AVR8/Template/Template_Endpoint_Control_W.c **** 			Endpoint_ClearIN();
 4173               		.loc 4 69 19 is_stmt 0 view .LVU1186
 4174 0088 81E0      		ldi r24,lo8(1)
 4175 008a 0830      		cpi r16,8
 4176 008c 1105      		cpc r17,__zero_reg__
 4177 008e 01F0      		breq .L302
 4178 0090 80E0      		ldi r24,0
 4179               	.L302:
 4180               	.LVL368:
  70:../../LUFA-111009/LUFA/Drivers/USB/Core/AVR8/Template/Template_Endpoint_Control_W.c **** 		}
 4181               		.loc 4 70 4 is_stmt 1 view .LVU1187
 4182               	.LBB464:
 4183               	.LBI464:
 513:../../LUFA-111009/LUFA/Drivers/USB/Core/AVR8/../AVR8/../AVR8/Endpoint_AVR8.h **** 			{
 4184               		.loc 2 513 23 view .LVU1188
 4185               	.LBB465:
 516:../../LUFA-111009/LUFA/Drivers/USB/Core/AVR8/../AVR8/../AVR8/Endpoint_AVR8.h **** 				#else
 4186               		.loc 2 516 6 view .LVU1189
 516:../../LUFA-111009/LUFA/Drivers/USB/Core/AVR8/../AVR8/../AVR8/Endpoint_AVR8.h **** 				#else
 4187               		.loc 2 516 13 is_stmt 0 view .LVU1190
 4188 0092 9091 E800 		lds r25,232
 4189 0096 9E77      		andi r25,lo8(126)
 4190 0098 9093 E800 		sts 232,r25
 4191               	.LVL369:
 520:../../LUFA-111009/LUFA/Drivers/USB/Core/AVR8/../AVR8/../AVR8/Endpoint_AVR8.h **** 
 4192               		.loc 2 520 4 view .LVU1191
 4193 009c 00C0      		rjmp .L298
 4194               	.LVL370:
 4195               	.L301:
 520:../../LUFA-111009/LUFA/Drivers/USB/Core/AVR8/../AVR8/../AVR8/Endpoint_AVR8.h **** 
 4196               		.loc 2 520 4 view .LVU1192
 4197               	.LBE465:
 4198               	.LBE464:
  63:../../LUFA-111009/LUFA/Drivers/USB/Core/AVR8/Template/Template_Endpoint_Control_W.c **** 				TEMPLATE_BUFFER_MOVE(DataStream, 1);
 4199               		.loc 4 63 5 is_stmt 1 view .LVU1193
 4200 009e C701      		movw r24,r14
 4201 00a0 0E94 0000 		call eeprom_read_byte
 4202               	.LVL371:
 4203               	.LBB466:
 4204               	.LBI466:
 622:../../LUFA-111009/LUFA/Drivers/USB/Core/AVR8/../AVR8/../AVR8/Endpoint_AVR8.h **** 			{
 4205               		.loc 2 622 23 view .LVU1194
 4206               	.LBB467:
 624:../../LUFA-111009/LUFA/Drivers/USB/Core/AVR8/../AVR8/../AVR8/Endpoint_AVR8.h **** 			}
 4207               		.loc 2 624 5 view .LVU1195
 624:../../LUFA-111009/LUFA/Drivers/USB/Core/AVR8/../AVR8/../AVR8/Endpoint_AVR8.h **** 			}
 4208               		.loc 2 624 12 is_stmt 0 view .LVU1196
 4209 00a4 8093 F100 		sts 241,r24
 4210               	.LVL372:
 624:../../LUFA-111009/LUFA/Drivers/USB/Core/AVR8/../AVR8/../AVR8/Endpoint_AVR8.h **** 			}
 4211               		.loc 2 624 12 view .LVU1197
 4212               	.LBE467:
 4213               	.LBE466:
  64:../../LUFA-111009/LUFA/Drivers/USB/Core/AVR8/Template/Template_Endpoint_Control_W.c **** 				Length--;
 4214               		.loc 4 64 5 is_stmt 1 view .LVU1198
 4215 00a8 8FEF      		ldi r24,-1
 4216 00aa E81A      		sub r14,r24
 4217 00ac F80A      		sbc r15,r24
 4218               	.LVL373:
  65:../../LUFA-111009/LUFA/Drivers/USB/Core/AVR8/Template/Template_Endpoint_Control_W.c **** 				BytesInEndpoint++;
 4219               		.loc 4 65 5 view .LVU1199
  65:../../LUFA-111009/LUFA/Drivers/USB/Core/AVR8/Template/Template_Endpoint_Control_W.c **** 				BytesInEndpoint++;
 4220               		.loc 4 65 11 is_stmt 0 view .LVU1200
 4221 00ae 2197      		sbiw r28,1
 4222               	.LVL374:
  66:../../LUFA-111009/LUFA/Drivers/USB/Core/AVR8/Template/Template_Endpoint_Control_W.c **** 			}
 4223               		.loc 4 66 5 is_stmt 1 view .LVU1201
  66:../../LUFA-111009/LUFA/Drivers/USB/Core/AVR8/Template/Template_Endpoint_Control_W.c **** 			}
 4224               		.loc 4 66 20 is_stmt 0 view .LVU1202
 4225 00b0 0F5F      		subi r16,-1
 4226 00b2 1F4F      		sbci r17,-1
 4227               	.LVL375:
  66:../../LUFA-111009/LUFA/Drivers/USB/Core/AVR8/Template/Template_Endpoint_Control_W.c **** 			}
 4228               		.loc 4 66 20 view .LVU1203
 4229 00b4 00C0      		rjmp .L299
 4230               	.LVL376:
 4231               	.L304:
  66:../../LUFA-111009/LUFA/Drivers/USB/Core/AVR8/Template/Template_Endpoint_Control_W.c **** 			}
 4232               		.loc 4 66 20 view .LVU1204
 4233               	.LBE461:
 4234               	.LBE454:
 4235               	.LBB468:
  76:../../LUFA-111009/LUFA/Drivers/USB/Core/AVR8/Template/Template_Endpoint_Control_W.c **** 
 4236               		.loc 4 76 3 is_stmt 1 view .LVU1205
  76:../../LUFA-111009/LUFA/Drivers/USB/Core/AVR8/Template/Template_Endpoint_Control_W.c **** 
 4237               		.loc 4 76 11 is_stmt 0 view .LVU1206
 4238 00b6 8EB3      		in r24,0x1e
 4239               	.LVL377:
  78:../../LUFA-111009/LUFA/Drivers/USB/Core/AVR8/Template/Template_Endpoint_Control_W.c **** 		  return ENDPOINT_RWCSTREAM_DeviceDisconnected;
 4240               		.loc 4 78 3 is_stmt 1 view .LVU1207
  78:../../LUFA-111009/LUFA/Drivers/USB/Core/AVR8/Template/Template_Endpoint_Control_W.c **** 		  return ENDPOINT_RWCSTREAM_DeviceDisconnected;
 4241               		.loc 4 78 6 is_stmt 0 view .LVU1208
 4242 00b8 8823      		tst r24
 4243 00ba 01F0      		breq .L309
  80:../../LUFA-111009/LUFA/Drivers/USB/Core/AVR8/Template/Template_Endpoint_Control_W.c **** 		  return ENDPOINT_RWCSTREAM_BusSuspended;
 4244               		.loc 4 80 8 is_stmt 1 view .LVU1209
  80:../../LUFA-111009/LUFA/Drivers/USB/Core/AVR8/Template/Template_Endpoint_Control_W.c **** 		  return ENDPOINT_RWCSTREAM_BusSuspended;
 4245               		.loc 4 80 11 is_stmt 0 view .LVU1210
 4246 00bc 8530      		cpi r24,lo8(5)
 4247 00be 01F0      		breq .+2
 4248 00c0 00C0      		rjmp .L316
 4249               	.LVL378:
 4250               	.L310:
  80:../../LUFA-111009/LUFA/Drivers/USB/Core/AVR8/Template/Template_Endpoint_Control_W.c **** 		  return ENDPOINT_RWCSTREAM_BusSuspended;
 4251               		.loc 4 80 11 view .LVU1211
 4252               	.LBE468:
 4253               	.LBB469:
  51:../../LUFA-111009/LUFA/Drivers/USB/Core/AVR8/Template/Template_Endpoint_Control_W.c **** 		else if (Endpoint_IsSETUPReceived())
 4254               		.loc 4 51 12 view .LVU1212
 4255 00c2 83E0      		ldi r24,lo8(3)
 4256 00c4 00C0      		rjmp .L293
 4257               	.LVL379:
 4258               	.L308:
  53:../../LUFA-111009/LUFA/Drivers/USB/Core/AVR8/Template/Template_Endpoint_Control_W.c **** 		else if (Endpoint_IsOUTReceived())
 4259               		.loc 4 53 12 view .LVU1213
 4260 00c6 81E0      		ldi r24,lo8(1)
 4261               	.LVL380:
  53:../../LUFA-111009/LUFA/Drivers/USB/Core/AVR8/Template/Template_Endpoint_Control_W.c **** 		else if (Endpoint_IsOUTReceived())
 4262               		.loc 4 53 12 view .LVU1214
 4263 00c8 00C0      		rjmp .L293
 4264               	.L309:
  49:../../LUFA-111009/LUFA/Drivers/USB/Core/AVR8/Template/Template_Endpoint_Control_W.c **** 		else if (USB_DeviceState_LCL == DEVICE_STATE_Suspended)
 4265               		.loc 4 49 12 view .LVU1215
 4266 00ca 82E0      		ldi r24,lo8(2)
 4267 00cc 00C0      		rjmp .L293
 4268               	.LBE469:
 4269               		.cfi_endproc
 4270               	.LFE99:
 4272               		.section	.text.Endpoint_Write_Control_EStream_BE,"ax",@progbits
 4273               	.global	Endpoint_Write_Control_EStream_BE
 4275               	Endpoint_Write_Control_EStream_BE:
 4276               	.LVL381:
 4277               	.LFB100:
  35:../../LUFA-111009/LUFA/Drivers/USB/Core/AVR8/Template/Template_Endpoint_Control_W.c **** 	uint8_t* DataStream     = ((uint8_t*)Buffer + TEMPLATE_BUFFER_OFFSET(Length));
 4278               		.loc 4 35 1 is_stmt 1 view -0
 4279               		.cfi_startproc
  35:../../LUFA-111009/LUFA/Drivers/USB/Core/AVR8/Template/Template_Endpoint_Control_W.c **** 	uint8_t* DataStream     = ((uint8_t*)Buffer + TEMPLATE_BUFFER_OFFSET(Length));
 4280               		.loc 4 35 1 is_stmt 0 view .LVU1217
 4281 0000 EF92      		push r14
 4282               	.LCFI110:
 4283               		.cfi_def_cfa_offset 3
 4284               		.cfi_offset 14, -2
 4285 0002 FF92      		push r15
 4286               	.LCFI111:
 4287               		.cfi_def_cfa_offset 4
 4288               		.cfi_offset 15, -3
 4289 0004 0F93      		push r16
 4290               	.LCFI112:
 4291               		.cfi_def_cfa_offset 5
 4292               		.cfi_offset 16, -4
 4293 0006 1F93      		push r17
 4294               	.LCFI113:
 4295               		.cfi_def_cfa_offset 6
 4296               		.cfi_offset 17, -5
 4297 0008 CF93      		push r28
 4298               	.LCFI114:
 4299               		.cfi_def_cfa_offset 7
 4300               		.cfi_offset 28, -6
 4301 000a DF93      		push r29
 4302               	.LCFI115:
 4303               		.cfi_def_cfa_offset 8
 4304               		.cfi_offset 29, -7
 4305               	/* prologue: function */
 4306               	/* frame size = 0 */
 4307               	/* stack size = 6 */
 4308               	.L__stack_usage = 6
 4309 000c EB01      		movw r28,r22
  36:../../LUFA-111009/LUFA/Drivers/USB/Core/AVR8/Template/Template_Endpoint_Control_W.c **** 	bool     LastPacketFull = false;
 4310               		.loc 4 36 2 is_stmt 1 view .LVU1218
  36:../../LUFA-111009/LUFA/Drivers/USB/Core/AVR8/Template/Template_Endpoint_Control_W.c **** 	bool     LastPacketFull = false;
 4311               		.loc 4 36 46 is_stmt 0 view .LVU1219
 4312 000e 7B01      		movw r14,r22
 4313 0010 21E0      		ldi r18,1
 4314 0012 E21A      		sub r14,r18
 4315 0014 F108      		sbc r15,__zero_reg__
  36:../../LUFA-111009/LUFA/Drivers/USB/Core/AVR8/Template/Template_Endpoint_Control_W.c **** 	bool     LastPacketFull = false;
 4316               		.loc 4 36 11 view .LVU1220
 4317 0016 E80E      		add r14,r24
 4318 0018 F91E      		adc r15,r25
 4319               	.LVL382:
  37:../../LUFA-111009/LUFA/Drivers/USB/Core/AVR8/Template/Template_Endpoint_Control_W.c **** 
 4320               		.loc 4 37 2 is_stmt 1 view .LVU1221
  39:../../LUFA-111009/LUFA/Drivers/USB/Core/AVR8/Template/Template_Endpoint_Control_W.c **** 	  Length = USB_ControlRequest.wLength;
 4321               		.loc 4 39 2 view .LVU1222
  39:../../LUFA-111009/LUFA/Drivers/USB/Core/AVR8/Template/Template_Endpoint_Control_W.c **** 	  Length = USB_ControlRequest.wLength;
 4322               		.loc 4 39 33 is_stmt 0 view .LVU1223
 4323 001a 8091 0000 		lds r24,USB_ControlRequest+6
 4324 001e 9091 0000 		lds r25,USB_ControlRequest+6+1
 4325               	.LVL383:
  39:../../LUFA-111009/LUFA/Drivers/USB/Core/AVR8/Template/Template_Endpoint_Control_W.c **** 	  Length = USB_ControlRequest.wLength;
 4326               		.loc 4 39 5 view .LVU1224
 4327 0022 8617      		cp r24,r22
 4328 0024 9707      		cpc r25,r23
 4329 0026 00F0      		brlo .L332
  41:../../LUFA-111009/LUFA/Drivers/USB/Core/AVR8/Template/Template_Endpoint_Control_W.c **** 	  Endpoint_ClearIN();
 4330               		.loc 4 41 7 is_stmt 1 view .LVU1225
  41:../../LUFA-111009/LUFA/Drivers/USB/Core/AVR8/Template/Template_Endpoint_Control_W.c **** 	  Endpoint_ClearIN();
 4331               		.loc 4 41 10 is_stmt 0 view .LVU1226
 4332 0028 2097      		sbiw r28,0
 4333 002a 01F4      		brne .L321
  42:../../LUFA-111009/LUFA/Drivers/USB/Core/AVR8/Template/Template_Endpoint_Control_W.c **** 
 4334               		.loc 4 42 4 is_stmt 1 view .LVU1227
 4335               	.LBB470:
 4336               	.LBI470:
 513:../../LUFA-111009/LUFA/Drivers/USB/Core/AVR8/../AVR8/../AVR8/Endpoint_AVR8.h **** 			{
 4337               		.loc 2 513 23 view .LVU1228
 4338               	.LBB471:
 516:../../LUFA-111009/LUFA/Drivers/USB/Core/AVR8/../AVR8/../AVR8/Endpoint_AVR8.h **** 				#else
 4339               		.loc 2 516 6 view .LVU1229
 516:../../LUFA-111009/LUFA/Drivers/USB/Core/AVR8/../AVR8/../AVR8/Endpoint_AVR8.h **** 				#else
 4340               		.loc 2 516 13 is_stmt 0 view .LVU1230
 4341 002c 8091 E800 		lds r24,232
 4342 0030 8E77      		andi r24,lo8(126)
 4343 0032 8093 E800 		sts 232,r24
 4344               	.L321:
 516:../../LUFA-111009/LUFA/Drivers/USB/Core/AVR8/../AVR8/../AVR8/Endpoint_AVR8.h **** 				#else
 4345               		.loc 2 516 13 view .LVU1231
 4346               	.LBE471:
 4347               	.LBE470:
 4348 0036 80E0      		ldi r24,0
 4349               	.LVL384:
 4350               	.L325:
  44:../../LUFA-111009/LUFA/Drivers/USB/Core/AVR8/Template/Template_Endpoint_Control_W.c **** 	{
 4351               		.loc 4 44 8 is_stmt 1 view .LVU1232
 4352 0038 2097      		sbiw r28,0
 4353 003a 01F4      		brne .L330
  44:../../LUFA-111009/LUFA/Drivers/USB/Core/AVR8/Template/Template_Endpoint_Control_W.c **** 	{
 4354               		.loc 4 44 16 is_stmt 0 discriminator 1 view .LVU1233
 4355 003c 8111      		cpse r24,__zero_reg__
 4356 003e 00C0      		rjmp .L330
 4357               	.LVL385:
 4358               	.L343:
  74:../../LUFA-111009/LUFA/Drivers/USB/Core/AVR8/Template/Template_Endpoint_Control_W.c **** 	{
 4359               		.loc 4 74 8 is_stmt 1 view .LVU1234
 4360               	.LBB472:
 4361               	.LBI472:
 477:../../LUFA-111009/LUFA/Drivers/USB/Core/AVR8/../AVR8/../AVR8/Endpoint_AVR8.h **** 			{
 4362               		.loc 2 477 23 view .LVU1235
 4363               	.LBB473:
 479:../../LUFA-111009/LUFA/Drivers/USB/Core/AVR8/../AVR8/../AVR8/Endpoint_AVR8.h **** 			}
 4364               		.loc 2 479 5 view .LVU1236
 479:../../LUFA-111009/LUFA/Drivers/USB/Core/AVR8/../AVR8/../AVR8/Endpoint_AVR8.h **** 			}
 4365               		.loc 2 479 14 is_stmt 0 view .LVU1237
 4366 0040 8091 E800 		lds r24,232
 4367               	.LBE473:
 4368               	.LBE472:
  74:../../LUFA-111009/LUFA/Drivers/USB/Core/AVR8/Template/Template_Endpoint_Control_W.c **** 	{
 4369               		.loc 4 74 8 view .LVU1238
 4370 0044 82FF      		sbrs r24,2
 4371 0046 00C0      		rjmp .L331
  84:../../LUFA-111009/LUFA/Drivers/USB/Core/AVR8/Template/Template_Endpoint_Control_W.c **** }
 4372               		.loc 4 84 9 view .LVU1239
 4373 0048 80E0      		ldi r24,0
 4374               	.L320:
 4375               	/* epilogue start */
 4376               		.loc 4 85 1 view .LVU1240
 4377 004a DF91      		pop r29
 4378 004c CF91      		pop r28
 4379               	.LVL386:
 4380               		.loc 4 85 1 view .LVU1241
 4381 004e 1F91      		pop r17
 4382 0050 0F91      		pop r16
 4383 0052 FF90      		pop r15
 4384 0054 EF90      		pop r14
 4385               	.LVL387:
 4386               		.loc 4 85 1 view .LVU1242
 4387 0056 0895      		ret
 4388               	.LVL388:
 4389               	.L332:
 4390               		.loc 4 85 1 view .LVU1243
 4391 0058 EC01      		movw r28,r24
 4392 005a 00C0      		rjmp .L321
 4393               	.LVL389:
 4394               	.L330:
 4395               	.LBB474:
  46:../../LUFA-111009/LUFA/Drivers/USB/Core/AVR8/Template/Template_Endpoint_Control_W.c **** 
 4396               		.loc 4 46 3 is_stmt 1 view .LVU1244
  46:../../LUFA-111009/LUFA/Drivers/USB/Core/AVR8/Template/Template_Endpoint_Control_W.c **** 
 4397               		.loc 4 46 11 is_stmt 0 view .LVU1245
 4398 005c 9EB3      		in r25,0x1e
 4399               	.LVL390:
  48:../../LUFA-111009/LUFA/Drivers/USB/Core/AVR8/Template/Template_Endpoint_Control_W.c **** 		  return ENDPOINT_RWCSTREAM_DeviceDisconnected;
 4400               		.loc 4 48 3 is_stmt 1 view .LVU1246
  48:../../LUFA-111009/LUFA/Drivers/USB/Core/AVR8/Template/Template_Endpoint_Control_W.c **** 		  return ENDPOINT_RWCSTREAM_DeviceDisconnected;
 4401               		.loc 4 48 6 is_stmt 0 view .LVU1247
 4402 005e 9923      		tst r25
 4403 0060 01F0      		breq .L336
  50:../../LUFA-111009/LUFA/Drivers/USB/Core/AVR8/Template/Template_Endpoint_Control_W.c **** 		  return ENDPOINT_RWCSTREAM_BusSuspended;
 4404               		.loc 4 50 8 is_stmt 1 view .LVU1248
  50:../../LUFA-111009/LUFA/Drivers/USB/Core/AVR8/Template/Template_Endpoint_Control_W.c **** 		  return ENDPOINT_RWCSTREAM_BusSuspended;
 4405               		.loc 4 50 11 is_stmt 0 view .LVU1249
 4406 0062 9530      		cpi r25,lo8(5)
 4407 0064 01F0      		breq .L337
  52:../../LUFA-111009/LUFA/Drivers/USB/Core/AVR8/Template/Template_Endpoint_Control_W.c **** 		  return ENDPOINT_RWCSTREAM_HostAborted;
 4408               		.loc 4 52 8 is_stmt 1 view .LVU1250
 4409               	.LBB475:
 4410               	.LBI475:
 489:../../LUFA-111009/LUFA/Drivers/USB/Core/AVR8/../AVR8/../AVR8/Endpoint_AVR8.h **** 			{
 4411               		.loc 2 489 23 view .LVU1251
 4412               	.LBB476:
 491:../../LUFA-111009/LUFA/Drivers/USB/Core/AVR8/../AVR8/../AVR8/Endpoint_AVR8.h **** 			}
 4413               		.loc 2 491 5 view .LVU1252
 491:../../LUFA-111009/LUFA/Drivers/USB/Core/AVR8/../AVR8/../AVR8/Endpoint_AVR8.h **** 			}
 4414               		.loc 2 491 14 is_stmt 0 view .LVU1253
 4415 0066 9091 E800 		lds r25,232
 4416               	.LVL391:
 491:../../LUFA-111009/LUFA/Drivers/USB/Core/AVR8/../AVR8/../AVR8/Endpoint_AVR8.h **** 			}
 4417               		.loc 2 491 14 view .LVU1254
 4418               	.LBE476:
 4419               	.LBE475:
  52:../../LUFA-111009/LUFA/Drivers/USB/Core/AVR8/Template/Template_Endpoint_Control_W.c **** 		  return ENDPOINT_RWCSTREAM_HostAborted;
 4420               		.loc 4 52 11 view .LVU1255
 4421 006a 93FD      		sbrc r25,3
 4422 006c 00C0      		rjmp .L335
  54:../../LUFA-111009/LUFA/Drivers/USB/Core/AVR8/Template/Template_Endpoint_Control_W.c **** 		  break;
 4423               		.loc 4 54 8 is_stmt 1 view .LVU1256
 4424               	.LBB477:
 4425               	.LBI477:
 477:../../LUFA-111009/LUFA/Drivers/USB/Core/AVR8/../AVR8/../AVR8/Endpoint_AVR8.h **** 			{
 4426               		.loc 2 477 23 view .LVU1257
 4427               	.LBB478:
 479:../../LUFA-111009/LUFA/Drivers/USB/Core/AVR8/../AVR8/../AVR8/Endpoint_AVR8.h **** 			}
 4428               		.loc 2 479 5 view .LVU1258
 479:../../LUFA-111009/LUFA/Drivers/USB/Core/AVR8/../AVR8/../AVR8/Endpoint_AVR8.h **** 			}
 4429               		.loc 2 479 14 is_stmt 0 view .LVU1259
 4430 006e 9091 E800 		lds r25,232
 4431               	.LBE478:
 4432               	.LBE477:
  54:../../LUFA-111009/LUFA/Drivers/USB/Core/AVR8/Template/Template_Endpoint_Control_W.c **** 		  break;
 4433               		.loc 4 54 11 view .LVU1260
 4434 0072 92FD      		sbrc r25,2
 4435 0074 00C0      		rjmp .L343
  57:../../LUFA-111009/LUFA/Drivers/USB/Core/AVR8/Template/Template_Endpoint_Control_W.c **** 		{
 4436               		.loc 4 57 3 is_stmt 1 view .LVU1261
 4437               	.LBB479:
 4438               	.LBI479:
 465:../../LUFA-111009/LUFA/Drivers/USB/Core/AVR8/../AVR8/../AVR8/Endpoint_AVR8.h **** 			{
 4439               		.loc 2 465 23 view .LVU1262
 4440               	.LBB480:
 467:../../LUFA-111009/LUFA/Drivers/USB/Core/AVR8/../AVR8/../AVR8/Endpoint_AVR8.h **** 			}
 4441               		.loc 2 467 5 view .LVU1263
 467:../../LUFA-111009/LUFA/Drivers/USB/Core/AVR8/../AVR8/../AVR8/Endpoint_AVR8.h **** 			}
 4442               		.loc 2 467 14 is_stmt 0 view .LVU1264
 4443 0076 9091 E800 		lds r25,232
 4444               	.LBE480:
 4445               	.LBE479:
  57:../../LUFA-111009/LUFA/Drivers/USB/Core/AVR8/Template/Template_Endpoint_Control_W.c **** 		{
 4446               		.loc 4 57 6 view .LVU1265
 4447 007a 90FF      		sbrs r25,0
 4448 007c 00C0      		rjmp .L325
 4449               	.LBB481:
  59:../../LUFA-111009/LUFA/Drivers/USB/Core/AVR8/Template/Template_Endpoint_Control_W.c **** 
 4450               		.loc 4 59 4 is_stmt 1 view .LVU1266
 4451               	.LBB482:
 4452               	.LBI482:
 290:../../LUFA-111009/LUFA/Drivers/USB/Core/AVR8/../AVR8/../AVR8/Endpoint_AVR8.h **** 			{
 4453               		.loc 2 290 27 view .LVU1267
 4454               	.LBB483:
 295:../../LUFA-111009/LUFA/Drivers/USB/Core/AVR8/../AVR8/../AVR8/Endpoint_AVR8.h **** 				#elif defined(USB_SERIES_2_AVR)
 4455               		.loc 2 295 6 view .LVU1268
 295:../../LUFA-111009/LUFA/Drivers/USB/Core/AVR8/../AVR8/../AVR8/Endpoint_AVR8.h **** 				#elif defined(USB_SERIES_2_AVR)
 4456               		.loc 2 295 25 is_stmt 0 view .LVU1269
 4457 007e 8091 F300 		lds r24,243
 4458               	.LVL392:
 295:../../LUFA-111009/LUFA/Drivers/USB/Core/AVR8/../AVR8/../AVR8/Endpoint_AVR8.h **** 				#elif defined(USB_SERIES_2_AVR)
 4459               		.loc 2 295 40 view .LVU1270
 4460 0082 0091 F200 		lds r16,242
 295:../../LUFA-111009/LUFA/Drivers/USB/Core/AVR8/../AVR8/../AVR8/Endpoint_AVR8.h **** 				#elif defined(USB_SERIES_2_AVR)
 4461               		.loc 2 295 38 view .LVU1271
 4462 0086 182F      		mov r17,r24
 4463               	.LVL393:
 295:../../LUFA-111009/LUFA/Drivers/USB/Core/AVR8/../AVR8/../AVR8/Endpoint_AVR8.h **** 				#elif defined(USB_SERIES_2_AVR)
 4464               		.loc 2 295 38 view .LVU1272
 4465               	.LBE483:
 4466               	.LBE482:
  61:../../LUFA-111009/LUFA/Drivers/USB/Core/AVR8/Template/Template_Endpoint_Control_W.c **** 			{
 4467               		.loc 4 61 4 is_stmt 1 view .LVU1273
 4468               	.L326:
  61:../../LUFA-111009/LUFA/Drivers/USB/Core/AVR8/Template/Template_Endpoint_Control_W.c **** 			{
 4469               		.loc 4 61 10 view .LVU1274
 4470 0088 2097      		sbiw r28,0
 4471 008a 01F0      		breq .L327
  61:../../LUFA-111009/LUFA/Drivers/USB/Core/AVR8/Template/Template_Endpoint_Control_W.c **** 			{
 4472               		.loc 4 61 18 is_stmt 0 discriminator 1 view .LVU1275
 4473 008c 0830      		cpi r16,8
 4474 008e 1105      		cpc r17,__zero_reg__
 4475 0090 00F0      		brlo .L328
 4476               	.L327:
  69:../../LUFA-111009/LUFA/Drivers/USB/Core/AVR8/Template/Template_Endpoint_Control_W.c **** 			Endpoint_ClearIN();
 4477               		.loc 4 69 4 is_stmt 1 view .LVU1276
  69:../../LUFA-111009/LUFA/Drivers/USB/Core/AVR8/Template/Template_Endpoint_Control_W.c **** 			Endpoint_ClearIN();
 4478               		.loc 4 69 19 is_stmt 0 view .LVU1277
 4479 0092 81E0      		ldi r24,lo8(1)
 4480 0094 0830      		cpi r16,8
 4481 0096 1105      		cpc r17,__zero_reg__
 4482 0098 01F0      		breq .L329
 4483 009a 80E0      		ldi r24,0
 4484               	.L329:
 4485               	.LVL394:
  70:../../LUFA-111009/LUFA/Drivers/USB/Core/AVR8/Template/Template_Endpoint_Control_W.c **** 		}
 4486               		.loc 4 70 4 is_stmt 1 view .LVU1278
 4487               	.LBB484:
 4488               	.LBI484:
 513:../../LUFA-111009/LUFA/Drivers/USB/Core/AVR8/../AVR8/../AVR8/Endpoint_AVR8.h **** 			{
 4489               		.loc 2 513 23 view .LVU1279
 4490               	.LBB485:
 516:../../LUFA-111009/LUFA/Drivers/USB/Core/AVR8/../AVR8/../AVR8/Endpoint_AVR8.h **** 				#else
 4491               		.loc 2 516 6 view .LVU1280
 516:../../LUFA-111009/LUFA/Drivers/USB/Core/AVR8/../AVR8/../AVR8/Endpoint_AVR8.h **** 				#else
 4492               		.loc 2 516 13 is_stmt 0 view .LVU1281
 4493 009c 9091 E800 		lds r25,232
 4494 00a0 9E77      		andi r25,lo8(126)
 4495 00a2 9093 E800 		sts 232,r25
 4496               	.LVL395:
 520:../../LUFA-111009/LUFA/Drivers/USB/Core/AVR8/../AVR8/../AVR8/Endpoint_AVR8.h **** 
 4497               		.loc 2 520 4 view .LVU1282
 4498 00a6 00C0      		rjmp .L325
 4499               	.LVL396:
 4500               	.L328:
 520:../../LUFA-111009/LUFA/Drivers/USB/Core/AVR8/../AVR8/../AVR8/Endpoint_AVR8.h **** 
 4501               		.loc 2 520 4 view .LVU1283
 4502               	.LBE485:
 4503               	.LBE484:
  63:../../LUFA-111009/LUFA/Drivers/USB/Core/AVR8/Template/Template_Endpoint_Control_W.c **** 				TEMPLATE_BUFFER_MOVE(DataStream, 1);
 4504               		.loc 4 63 5 is_stmt 1 view .LVU1284
 4505 00a8 C701      		movw r24,r14
 4506 00aa 0E94 0000 		call eeprom_read_byte
 4507               	.LVL397:
 4508               	.LBB486:
 4509               	.LBI486:
 622:../../LUFA-111009/LUFA/Drivers/USB/Core/AVR8/../AVR8/../AVR8/Endpoint_AVR8.h **** 			{
 4510               		.loc 2 622 23 view .LVU1285
 4511               	.LBB487:
 624:../../LUFA-111009/LUFA/Drivers/USB/Core/AVR8/../AVR8/../AVR8/Endpoint_AVR8.h **** 			}
 4512               		.loc 2 624 5 view .LVU1286
 624:../../LUFA-111009/LUFA/Drivers/USB/Core/AVR8/../AVR8/../AVR8/Endpoint_AVR8.h **** 			}
 4513               		.loc 2 624 12 is_stmt 0 view .LVU1287
 4514 00ae 8093 F100 		sts 241,r24
 4515               	.LVL398:
 624:../../LUFA-111009/LUFA/Drivers/USB/Core/AVR8/../AVR8/../AVR8/Endpoint_AVR8.h **** 			}
 4516               		.loc 2 624 12 view .LVU1288
 4517               	.LBE487:
 4518               	.LBE486:
  64:../../LUFA-111009/LUFA/Drivers/USB/Core/AVR8/Template/Template_Endpoint_Control_W.c **** 				Length--;
 4519               		.loc 4 64 5 is_stmt 1 view .LVU1289
 4520 00b2 81E0      		ldi r24,1
 4521 00b4 E81A      		sub r14,r24
 4522 00b6 F108      		sbc r15,__zero_reg__
 4523               	.LVL399:
  65:../../LUFA-111009/LUFA/Drivers/USB/Core/AVR8/Template/Template_Endpoint_Control_W.c **** 				BytesInEndpoint++;
 4524               		.loc 4 65 5 view .LVU1290
  65:../../LUFA-111009/LUFA/Drivers/USB/Core/AVR8/Template/Template_Endpoint_Control_W.c **** 				BytesInEndpoint++;
 4525               		.loc 4 65 11 is_stmt 0 view .LVU1291
 4526 00b8 2197      		sbiw r28,1
 4527               	.LVL400:
  66:../../LUFA-111009/LUFA/Drivers/USB/Core/AVR8/Template/Template_Endpoint_Control_W.c **** 			}
 4528               		.loc 4 66 5 is_stmt 1 view .LVU1292
  66:../../LUFA-111009/LUFA/Drivers/USB/Core/AVR8/Template/Template_Endpoint_Control_W.c **** 			}
 4529               		.loc 4 66 20 is_stmt 0 view .LVU1293
 4530 00ba 0F5F      		subi r16,-1
 4531 00bc 1F4F      		sbci r17,-1
 4532               	.LVL401:
  66:../../LUFA-111009/LUFA/Drivers/USB/Core/AVR8/Template/Template_Endpoint_Control_W.c **** 			}
 4533               		.loc 4 66 20 view .LVU1294
 4534 00be 00C0      		rjmp .L326
 4535               	.LVL402:
 4536               	.L331:
  66:../../LUFA-111009/LUFA/Drivers/USB/Core/AVR8/Template/Template_Endpoint_Control_W.c **** 			}
 4537               		.loc 4 66 20 view .LVU1295
 4538               	.LBE481:
 4539               	.LBE474:
 4540               	.LBB488:
  76:../../LUFA-111009/LUFA/Drivers/USB/Core/AVR8/Template/Template_Endpoint_Control_W.c **** 
 4541               		.loc 4 76 3 is_stmt 1 view .LVU1296
  76:../../LUFA-111009/LUFA/Drivers/USB/Core/AVR8/Template/Template_Endpoint_Control_W.c **** 
 4542               		.loc 4 76 11 is_stmt 0 view .LVU1297
 4543 00c0 8EB3      		in r24,0x1e
 4544               	.LVL403:
  78:../../LUFA-111009/LUFA/Drivers/USB/Core/AVR8/Template/Template_Endpoint_Control_W.c **** 		  return ENDPOINT_RWCSTREAM_DeviceDisconnected;
 4545               		.loc 4 78 3 is_stmt 1 view .LVU1298
  78:../../LUFA-111009/LUFA/Drivers/USB/Core/AVR8/Template/Template_Endpoint_Control_W.c **** 		  return ENDPOINT_RWCSTREAM_DeviceDisconnected;
 4546               		.loc 4 78 6 is_stmt 0 view .LVU1299
 4547 00c2 8823      		tst r24
 4548 00c4 01F0      		breq .L336
  80:../../LUFA-111009/LUFA/Drivers/USB/Core/AVR8/Template/Template_Endpoint_Control_W.c **** 		  return ENDPOINT_RWCSTREAM_BusSuspended;
 4549               		.loc 4 80 8 is_stmt 1 view .LVU1300
  80:../../LUFA-111009/LUFA/Drivers/USB/Core/AVR8/Template/Template_Endpoint_Control_W.c **** 		  return ENDPOINT_RWCSTREAM_BusSuspended;
 4550               		.loc 4 80 11 is_stmt 0 view .LVU1301
 4551 00c6 8530      		cpi r24,lo8(5)
 4552 00c8 01F0      		breq .+2
 4553 00ca 00C0      		rjmp .L343
 4554               	.LVL404:
 4555               	.L337:
  80:../../LUFA-111009/LUFA/Drivers/USB/Core/AVR8/Template/Template_Endpoint_Control_W.c **** 		  return ENDPOINT_RWCSTREAM_BusSuspended;
 4556               		.loc 4 80 11 view .LVU1302
 4557               	.LBE488:
 4558               	.LBB489:
  51:../../LUFA-111009/LUFA/Drivers/USB/Core/AVR8/Template/Template_Endpoint_Control_W.c **** 		else if (Endpoint_IsSETUPReceived())
 4559               		.loc 4 51 12 view .LVU1303
 4560 00cc 83E0      		ldi r24,lo8(3)
 4561 00ce 00C0      		rjmp .L320
 4562               	.LVL405:
 4563               	.L335:
  53:../../LUFA-111009/LUFA/Drivers/USB/Core/AVR8/Template/Template_Endpoint_Control_W.c **** 		else if (Endpoint_IsOUTReceived())
 4564               		.loc 4 53 12 view .LVU1304
 4565 00d0 81E0      		ldi r24,lo8(1)
 4566               	.LVL406:
  53:../../LUFA-111009/LUFA/Drivers/USB/Core/AVR8/Template/Template_Endpoint_Control_W.c **** 		else if (Endpoint_IsOUTReceived())
 4567               		.loc 4 53 12 view .LVU1305
 4568 00d2 00C0      		rjmp .L320
 4569               	.L336:
  49:../../LUFA-111009/LUFA/Drivers/USB/Core/AVR8/Template/Template_Endpoint_Control_W.c **** 		else if (USB_DeviceState_LCL == DEVICE_STATE_Suspended)
 4570               		.loc 4 49 12 view .LVU1306
 4571 00d4 82E0      		ldi r24,lo8(2)
 4572 00d6 00C0      		rjmp .L320
 4573               	.LBE489:
 4574               		.cfi_endproc
 4575               	.LFE100:
 4577               		.section	.text.Endpoint_Read_Control_EStream_LE,"ax",@progbits
 4578               	.global	Endpoint_Read_Control_EStream_LE
 4580               	Endpoint_Read_Control_EStream_LE:
 4581               	.LVL407:
 4582               	.LFB101:
  35:../../LUFA-111009/LUFA/Drivers/USB/Core/AVR8/Template/Template_Endpoint_Control_R.c **** 	uint8_t* DataStream = ((uint8_t*)Buffer + TEMPLATE_BUFFER_OFFSET(Length));
 4583               		.loc 5 35 1 is_stmt 1 view -0
 4584               		.cfi_startproc
  35:../../LUFA-111009/LUFA/Drivers/USB/Core/AVR8/Template/Template_Endpoint_Control_R.c **** 	uint8_t* DataStream = ((uint8_t*)Buffer + TEMPLATE_BUFFER_OFFSET(Length));
 4585               		.loc 5 35 1 is_stmt 0 view .LVU1308
 4586 0000 0F93      		push r16
 4587               	.LCFI116:
 4588               		.cfi_def_cfa_offset 3
 4589               		.cfi_offset 16, -2
 4590 0002 1F93      		push r17
 4591               	.LCFI117:
 4592               		.cfi_def_cfa_offset 4
 4593               		.cfi_offset 17, -3
 4594 0004 CF93      		push r28
 4595               	.LCFI118:
 4596               		.cfi_def_cfa_offset 5
 4597               		.cfi_offset 28, -4
 4598 0006 DF93      		push r29
 4599               	.LCFI119:
 4600               		.cfi_def_cfa_offset 6
 4601               		.cfi_offset 29, -5
 4602               	/* prologue: function */
 4603               	/* frame size = 0 */
 4604               	/* stack size = 4 */
 4605               	.L__stack_usage = 4
 4606 0008 8C01      		movw r16,r24
 4607 000a EB01      		movw r28,r22
  36:../../LUFA-111009/LUFA/Drivers/USB/Core/AVR8/Template/Template_Endpoint_Control_R.c **** 
 4608               		.loc 5 36 2 is_stmt 1 view .LVU1309
 4609               	.LVL408:
  38:../../LUFA-111009/LUFA/Drivers/USB/Core/AVR8/Template/Template_Endpoint_Control_R.c **** 	  Endpoint_ClearOUT();
 4610               		.loc 5 38 2 view .LVU1310
  38:../../LUFA-111009/LUFA/Drivers/USB/Core/AVR8/Template/Template_Endpoint_Control_R.c **** 	  Endpoint_ClearOUT();
 4611               		.loc 5 38 5 is_stmt 0 view .LVU1311
 4612 000c 2097      		sbiw r28,0
 4613 000e 01F4      		brne .L352
 4614               	.LVL409:
 4615               	.L353:
 4616               	.LBB490:
  61:../../LUFA-111009/LUFA/Drivers/USB/Core/AVR8/Template/Template_Endpoint_Control_R.c **** 		}
 4617               		.loc 5 61 4 is_stmt 1 view .LVU1312
 4618               	.LBB491:
 4619               	.LBI491:
 528:../../LUFA-111009/LUFA/Drivers/USB/Core/AVR8/../AVR8/../AVR8/Endpoint_AVR8.h **** 			{
 4620               		.loc 2 528 23 view .LVU1313
 4621               	.LBB492:
 531:../../LUFA-111009/LUFA/Drivers/USB/Core/AVR8/../AVR8/../AVR8/Endpoint_AVR8.h **** 				#else
 4622               		.loc 2 531 6 view .LVU1314
 531:../../LUFA-111009/LUFA/Drivers/USB/Core/AVR8/../AVR8/../AVR8/Endpoint_AVR8.h **** 				#else
 4623               		.loc 2 531 13 is_stmt 0 view .LVU1315
 4624 0010 8091 E800 		lds r24,232
 4625 0014 8B77      		andi r24,lo8(123)
 4626 0016 8093 E800 		sts 232,r24
 4627               	.L352:
 531:../../LUFA-111009/LUFA/Drivers/USB/Core/AVR8/../AVR8/../AVR8/Endpoint_AVR8.h **** 				#else
 4628               		.loc 2 531 13 view .LVU1316
 4629               	.LBE492:
 4630               	.LBE491:
 4631               	.LBE490:
  41:../../LUFA-111009/LUFA/Drivers/USB/Core/AVR8/Template/Template_Endpoint_Control_R.c **** 	{
 4632               		.loc 5 41 8 is_stmt 1 view .LVU1317
 4633 001a 2097      		sbiw r28,0
 4634 001c 01F4      		brne .L355
 4635               	.L356:
  65:../../LUFA-111009/LUFA/Drivers/USB/Core/AVR8/Template/Template_Endpoint_Control_R.c **** 	{
 4636               		.loc 5 65 8 view .LVU1318
 4637               	.LBB501:
 4638               	.LBI501:
 465:../../LUFA-111009/LUFA/Drivers/USB/Core/AVR8/../AVR8/../AVR8/Endpoint_AVR8.h **** 			{
 4639               		.loc 2 465 23 view .LVU1319
 4640               	.LBB502:
 467:../../LUFA-111009/LUFA/Drivers/USB/Core/AVR8/../AVR8/../AVR8/Endpoint_AVR8.h **** 			}
 4641               		.loc 2 467 5 view .LVU1320
 467:../../LUFA-111009/LUFA/Drivers/USB/Core/AVR8/../AVR8/../AVR8/Endpoint_AVR8.h **** 			}
 4642               		.loc 2 467 14 is_stmt 0 view .LVU1321
 4643 001e 8091 E800 		lds r24,232
 4644               	.LBE502:
 4645               	.LBE501:
  65:../../LUFA-111009/LUFA/Drivers/USB/Core/AVR8/Template/Template_Endpoint_Control_R.c **** 	{
 4646               		.loc 5 65 8 view .LVU1322
 4647 0022 80FF      		sbrs r24,0
 4648 0024 00C0      		rjmp .L357
  75:../../LUFA-111009/LUFA/Drivers/USB/Core/AVR8/Template/Template_Endpoint_Control_R.c **** }
 4649               		.loc 5 75 9 view .LVU1323
 4650 0026 80E0      		ldi r24,0
 4651               	.L347:
 4652               	/* epilogue start */
 4653               		.loc 5 76 1 view .LVU1324
 4654 0028 DF91      		pop r29
 4655 002a CF91      		pop r28
 4656               	.LVL410:
 4657               		.loc 5 76 1 view .LVU1325
 4658 002c 1F91      		pop r17
 4659 002e 0F91      		pop r16
 4660               	.LVL411:
 4661               		.loc 5 76 1 view .LVU1326
 4662 0030 0895      		ret
 4663               	.LVL412:
 4664               	.L355:
 4665               	.LBB503:
  43:../../LUFA-111009/LUFA/Drivers/USB/Core/AVR8/Template/Template_Endpoint_Control_R.c **** 
 4666               		.loc 5 43 3 is_stmt 1 view .LVU1327
  43:../../LUFA-111009/LUFA/Drivers/USB/Core/AVR8/Template/Template_Endpoint_Control_R.c **** 
 4667               		.loc 5 43 11 is_stmt 0 view .LVU1328
 4668 0032 8EB3      		in r24,0x1e
 4669               	.LVL413:
  45:../../LUFA-111009/LUFA/Drivers/USB/Core/AVR8/Template/Template_Endpoint_Control_R.c **** 		  return ENDPOINT_RWCSTREAM_DeviceDisconnected;
 4670               		.loc 5 45 3 is_stmt 1 view .LVU1329
  45:../../LUFA-111009/LUFA/Drivers/USB/Core/AVR8/Template/Template_Endpoint_Control_R.c **** 		  return ENDPOINT_RWCSTREAM_DeviceDisconnected;
 4671               		.loc 5 45 6 is_stmt 0 view .LVU1330
 4672 0034 8823      		tst r24
 4673 0036 01F0      		breq .L361
  47:../../LUFA-111009/LUFA/Drivers/USB/Core/AVR8/Template/Template_Endpoint_Control_R.c **** 		  return ENDPOINT_RWCSTREAM_BusSuspended;
 4674               		.loc 5 47 8 is_stmt 1 view .LVU1331
  47:../../LUFA-111009/LUFA/Drivers/USB/Core/AVR8/Template/Template_Endpoint_Control_R.c **** 		  return ENDPOINT_RWCSTREAM_BusSuspended;
 4675               		.loc 5 47 11 is_stmt 0 view .LVU1332
 4676 0038 8530      		cpi r24,lo8(5)
 4677 003a 01F0      		breq .L362
  49:../../LUFA-111009/LUFA/Drivers/USB/Core/AVR8/Template/Template_Endpoint_Control_R.c **** 		  return ENDPOINT_RWCSTREAM_HostAborted;
 4678               		.loc 5 49 8 is_stmt 1 view .LVU1333
 4679               	.LBB493:
 4680               	.LBI493:
 489:../../LUFA-111009/LUFA/Drivers/USB/Core/AVR8/../AVR8/../AVR8/Endpoint_AVR8.h **** 			{
 4681               		.loc 2 489 23 view .LVU1334
 4682               	.LBB494:
 491:../../LUFA-111009/LUFA/Drivers/USB/Core/AVR8/../AVR8/../AVR8/Endpoint_AVR8.h **** 			}
 4683               		.loc 2 491 5 view .LVU1335
 491:../../LUFA-111009/LUFA/Drivers/USB/Core/AVR8/../AVR8/../AVR8/Endpoint_AVR8.h **** 			}
 4684               		.loc 2 491 14 is_stmt 0 view .LVU1336
 4685 003c 8091 E800 		lds r24,232
 4686               	.LVL414:
 491:../../LUFA-111009/LUFA/Drivers/USB/Core/AVR8/../AVR8/../AVR8/Endpoint_AVR8.h **** 			}
 4687               		.loc 2 491 14 view .LVU1337
 4688               	.LBE494:
 4689               	.LBE493:
  49:../../LUFA-111009/LUFA/Drivers/USB/Core/AVR8/Template/Template_Endpoint_Control_R.c **** 		  return ENDPOINT_RWCSTREAM_HostAborted;
 4690               		.loc 5 49 11 view .LVU1338
 4691 0040 83FD      		sbrc r24,3
 4692 0042 00C0      		rjmp .L360
  52:../../LUFA-111009/LUFA/Drivers/USB/Core/AVR8/Template/Template_Endpoint_Control_R.c **** 		{
 4693               		.loc 5 52 3 is_stmt 1 view .LVU1339
 4694               	.LBB495:
 4695               	.LBI495:
 477:../../LUFA-111009/LUFA/Drivers/USB/Core/AVR8/../AVR8/../AVR8/Endpoint_AVR8.h **** 			{
 4696               		.loc 2 477 23 view .LVU1340
 4697               	.LBB496:
 479:../../LUFA-111009/LUFA/Drivers/USB/Core/AVR8/../AVR8/../AVR8/Endpoint_AVR8.h **** 			}
 4698               		.loc 2 479 5 view .LVU1341
 479:../../LUFA-111009/LUFA/Drivers/USB/Core/AVR8/../AVR8/../AVR8/Endpoint_AVR8.h **** 			}
 4699               		.loc 2 479 14 is_stmt 0 view .LVU1342
 4700 0044 8091 E800 		lds r24,232
 4701               	.LBE496:
 4702               	.LBE495:
  52:../../LUFA-111009/LUFA/Drivers/USB/Core/AVR8/Template/Template_Endpoint_Control_R.c **** 		{
 4703               		.loc 5 52 6 view .LVU1343
 4704 0048 82FF      		sbrs r24,2
 4705 004a 00C0      		rjmp .L352
 4706               	.L351:
 4707               	.LBB497:
 4708               	.LBI497:
 290:../../LUFA-111009/LUFA/Drivers/USB/Core/AVR8/../AVR8/../AVR8/Endpoint_AVR8.h **** 			{
 4709               		.loc 2 290 27 is_stmt 1 view .LVU1344
 4710               	.LBB498:
 295:../../LUFA-111009/LUFA/Drivers/USB/Core/AVR8/../AVR8/../AVR8/Endpoint_AVR8.h **** 				#elif defined(USB_SERIES_2_AVR)
 4711               		.loc 2 295 6 view .LVU1345
 295:../../LUFA-111009/LUFA/Drivers/USB/Core/AVR8/../AVR8/../AVR8/Endpoint_AVR8.h **** 				#elif defined(USB_SERIES_2_AVR)
 4712               		.loc 2 295 25 is_stmt 0 view .LVU1346
 4713 004c 9091 F300 		lds r25,243
 295:../../LUFA-111009/LUFA/Drivers/USB/Core/AVR8/../AVR8/../AVR8/Endpoint_AVR8.h **** 				#elif defined(USB_SERIES_2_AVR)
 4714               		.loc 2 295 40 view .LVU1347
 4715 0050 8091 F200 		lds r24,242
 4716               	.LBE498:
 4717               	.LBE497:
  54:../../LUFA-111009/LUFA/Drivers/USB/Core/AVR8/Template/Template_Endpoint_Control_R.c **** 			{
 4718               		.loc 5 54 18 view .LVU1348
 4719 0054 892B      		or r24,r25
 4720 0056 01F0      		breq .L353
  56:../../LUFA-111009/LUFA/Drivers/USB/Core/AVR8/Template/Template_Endpoint_Control_R.c **** 				TEMPLATE_BUFFER_MOVE(DataStream, 1);
 4721               		.loc 5 56 5 is_stmt 1 view .LVU1349
 4722               	.LBB499:
 4723               	.LBI499:
 610:../../LUFA-111009/LUFA/Drivers/USB/Core/AVR8/../AVR8/../AVR8/Endpoint_AVR8.h **** 			{
 4724               		.loc 2 610 26 view .LVU1350
 4725               	.LBB500:
 612:../../LUFA-111009/LUFA/Drivers/USB/Core/AVR8/../AVR8/../AVR8/Endpoint_AVR8.h **** 			}
 4726               		.loc 2 612 5 view .LVU1351
 612:../../LUFA-111009/LUFA/Drivers/USB/Core/AVR8/../AVR8/../AVR8/Endpoint_AVR8.h **** 			}
 4727               		.loc 2 612 12 is_stmt 0 view .LVU1352
 4728 0058 6091 F100 		lds r22,241
 4729               	.LBE500:
 4730               	.LBE499:
  56:../../LUFA-111009/LUFA/Drivers/USB/Core/AVR8/Template/Template_Endpoint_Control_R.c **** 				TEMPLATE_BUFFER_MOVE(DataStream, 1);
 4731               		.loc 5 56 5 view .LVU1353
 4732 005c C801      		movw r24,r16
 4733 005e 0E94 0000 		call eeprom_update_byte
 4734               	.LVL415:
  57:../../LUFA-111009/LUFA/Drivers/USB/Core/AVR8/Template/Template_Endpoint_Control_R.c **** 				Length--;
 4735               		.loc 5 57 5 is_stmt 1 view .LVU1354
 4736 0062 0F5F      		subi r16,-1
 4737 0064 1F4F      		sbci r17,-1
 4738               	.LVL416:
  58:../../LUFA-111009/LUFA/Drivers/USB/Core/AVR8/Template/Template_Endpoint_Control_R.c **** 			}
 4739               		.loc 5 58 5 view .LVU1355
  58:../../LUFA-111009/LUFA/Drivers/USB/Core/AVR8/Template/Template_Endpoint_Control_R.c **** 			}
 4740               		.loc 5 58 11 is_stmt 0 view .LVU1356
 4741 0066 2197      		sbiw r28,1
 4742               	.LVL417:
  54:../../LUFA-111009/LUFA/Drivers/USB/Core/AVR8/Template/Template_Endpoint_Control_R.c **** 			{
 4743               		.loc 5 54 10 is_stmt 1 view .LVU1357
 4744 0068 01F4      		brne .L351
 4745 006a 00C0      		rjmp .L353
 4746               	.L357:
  54:../../LUFA-111009/LUFA/Drivers/USB/Core/AVR8/Template/Template_Endpoint_Control_R.c **** 			{
 4747               		.loc 5 54 10 is_stmt 0 view .LVU1358
 4748               	.LBE503:
 4749               	.LBB504:
  67:../../LUFA-111009/LUFA/Drivers/USB/Core/AVR8/Template/Template_Endpoint_Control_R.c **** 
 4750               		.loc 5 67 3 is_stmt 1 view .LVU1359
  67:../../LUFA-111009/LUFA/Drivers/USB/Core/AVR8/Template/Template_Endpoint_Control_R.c **** 
 4751               		.loc 5 67 11 is_stmt 0 view .LVU1360
 4752 006c 8EB3      		in r24,0x1e
 4753               	.LVL418:
  69:../../LUFA-111009/LUFA/Drivers/USB/Core/AVR8/Template/Template_Endpoint_Control_R.c **** 		  return ENDPOINT_RWCSTREAM_DeviceDisconnected;
 4754               		.loc 5 69 3 is_stmt 1 view .LVU1361
  69:../../LUFA-111009/LUFA/Drivers/USB/Core/AVR8/Template/Template_Endpoint_Control_R.c **** 		  return ENDPOINT_RWCSTREAM_DeviceDisconnected;
 4755               		.loc 5 69 6 is_stmt 0 view .LVU1362
 4756 006e 8823      		tst r24
 4757 0070 01F0      		breq .L361
  71:../../LUFA-111009/LUFA/Drivers/USB/Core/AVR8/Template/Template_Endpoint_Control_R.c **** 		  return ENDPOINT_RWCSTREAM_BusSuspended;
 4758               		.loc 5 71 8 is_stmt 1 view .LVU1363
  71:../../LUFA-111009/LUFA/Drivers/USB/Core/AVR8/Template/Template_Endpoint_Control_R.c **** 		  return ENDPOINT_RWCSTREAM_BusSuspended;
 4759               		.loc 5 71 11 is_stmt 0 view .LVU1364
 4760 0072 8530      		cpi r24,lo8(5)
 4761 0074 01F4      		brne .L356
 4762               	.LVL419:
 4763               	.L362:
  71:../../LUFA-111009/LUFA/Drivers/USB/Core/AVR8/Template/Template_Endpoint_Control_R.c **** 		  return ENDPOINT_RWCSTREAM_BusSuspended;
 4764               		.loc 5 71 11 view .LVU1365
 4765               	.LBE504:
 4766               	.LBB505:
  48:../../LUFA-111009/LUFA/Drivers/USB/Core/AVR8/Template/Template_Endpoint_Control_R.c **** 		else if (Endpoint_IsSETUPReceived())
 4767               		.loc 5 48 12 view .LVU1366
 4768 0076 83E0      		ldi r24,lo8(3)
 4769 0078 00C0      		rjmp .L347
 4770               	.L360:
  50:../../LUFA-111009/LUFA/Drivers/USB/Core/AVR8/Template/Template_Endpoint_Control_R.c **** 
 4771               		.loc 5 50 12 view .LVU1367
 4772 007a 81E0      		ldi r24,lo8(1)
 4773 007c 00C0      		rjmp .L347
 4774               	.L361:
  46:../../LUFA-111009/LUFA/Drivers/USB/Core/AVR8/Template/Template_Endpoint_Control_R.c **** 		else if (USB_DeviceState_LCL == DEVICE_STATE_Suspended)
 4775               		.loc 5 46 12 view .LVU1368
 4776 007e 82E0      		ldi r24,lo8(2)
 4777 0080 00C0      		rjmp .L347
 4778               	.LBE505:
 4779               		.cfi_endproc
 4780               	.LFE101:
 4782               		.section	.text.Endpoint_Read_Control_EStream_BE,"ax",@progbits
 4783               	.global	Endpoint_Read_Control_EStream_BE
 4785               	Endpoint_Read_Control_EStream_BE:
 4786               	.LVL420:
 4787               	.LFB102:
  35:../../LUFA-111009/LUFA/Drivers/USB/Core/AVR8/Template/Template_Endpoint_Control_R.c **** 	uint8_t* DataStream = ((uint8_t*)Buffer + TEMPLATE_BUFFER_OFFSET(Length));
 4788               		.loc 5 35 1 is_stmt 1 view -0
 4789               		.cfi_startproc
  35:../../LUFA-111009/LUFA/Drivers/USB/Core/AVR8/Template/Template_Endpoint_Control_R.c **** 	uint8_t* DataStream = ((uint8_t*)Buffer + TEMPLATE_BUFFER_OFFSET(Length));
 4790               		.loc 5 35 1 is_stmt 0 view .LVU1370
 4791 0000 0F93      		push r16
 4792               	.LCFI120:
 4793               		.cfi_def_cfa_offset 3
 4794               		.cfi_offset 16, -2
 4795 0002 1F93      		push r17
 4796               	.LCFI121:
 4797               		.cfi_def_cfa_offset 4
 4798               		.cfi_offset 17, -3
 4799 0004 CF93      		push r28
 4800               	.LCFI122:
 4801               		.cfi_def_cfa_offset 5
 4802               		.cfi_offset 28, -4
 4803 0006 DF93      		push r29
 4804               	.LCFI123:
 4805               		.cfi_def_cfa_offset 6
 4806               		.cfi_offset 29, -5
 4807               	/* prologue: function */
 4808               	/* frame size = 0 */
 4809               	/* stack size = 4 */
 4810               	.L__stack_usage = 4
 4811 0008 EB01      		movw r28,r22
  36:../../LUFA-111009/LUFA/Drivers/USB/Core/AVR8/Template/Template_Endpoint_Control_R.c **** 
 4812               		.loc 5 36 2 is_stmt 1 view .LVU1371
  36:../../LUFA-111009/LUFA/Drivers/USB/Core/AVR8/Template/Template_Endpoint_Control_R.c **** 
 4813               		.loc 5 36 42 is_stmt 0 view .LVU1372
 4814 000a 8B01      		movw r16,r22
 4815 000c 0150      		subi r16,1
 4816 000e 1109      		sbc r17,__zero_reg__
  36:../../LUFA-111009/LUFA/Drivers/USB/Core/AVR8/Template/Template_Endpoint_Control_R.c **** 
 4817               		.loc 5 36 11 view .LVU1373
 4818 0010 080F      		add r16,r24
 4819 0012 191F      		adc r17,r25
 4820               	.LVL421:
  38:../../LUFA-111009/LUFA/Drivers/USB/Core/AVR8/Template/Template_Endpoint_Control_R.c **** 	  Endpoint_ClearOUT();
 4821               		.loc 5 38 2 is_stmt 1 view .LVU1374
  38:../../LUFA-111009/LUFA/Drivers/USB/Core/AVR8/Template/Template_Endpoint_Control_R.c **** 	  Endpoint_ClearOUT();
 4822               		.loc 5 38 5 is_stmt 0 view .LVU1375
 4823 0014 2097      		sbiw r28,0
 4824 0016 01F4      		brne .L372
 4825               	.LVL422:
 4826               	.L373:
 4827               	.LBB506:
  61:../../LUFA-111009/LUFA/Drivers/USB/Core/AVR8/Template/Template_Endpoint_Control_R.c **** 		}
 4828               		.loc 5 61 4 is_stmt 1 view .LVU1376
 4829               	.LBB507:
 4830               	.LBI507:
 528:../../LUFA-111009/LUFA/Drivers/USB/Core/AVR8/../AVR8/../AVR8/Endpoint_AVR8.h **** 			{
 4831               		.loc 2 528 23 view .LVU1377
 4832               	.LBB508:
 531:../../LUFA-111009/LUFA/Drivers/USB/Core/AVR8/../AVR8/../AVR8/Endpoint_AVR8.h **** 				#else
 4833               		.loc 2 531 6 view .LVU1378
 531:../../LUFA-111009/LUFA/Drivers/USB/Core/AVR8/../AVR8/../AVR8/Endpoint_AVR8.h **** 				#else
 4834               		.loc 2 531 13 is_stmt 0 view .LVU1379
 4835 0018 8091 E800 		lds r24,232
 4836 001c 8B77      		andi r24,lo8(123)
 4837 001e 8093 E800 		sts 232,r24
 4838               	.L372:
 531:../../LUFA-111009/LUFA/Drivers/USB/Core/AVR8/../AVR8/../AVR8/Endpoint_AVR8.h **** 				#else
 4839               		.loc 2 531 13 view .LVU1380
 4840               	.LBE508:
 4841               	.LBE507:
 4842               	.LBE506:
  41:../../LUFA-111009/LUFA/Drivers/USB/Core/AVR8/Template/Template_Endpoint_Control_R.c **** 	{
 4843               		.loc 5 41 8 is_stmt 1 view .LVU1381
 4844 0022 2097      		sbiw r28,0
 4845 0024 01F4      		brne .L375
 4846               	.L376:
  65:../../LUFA-111009/LUFA/Drivers/USB/Core/AVR8/Template/Template_Endpoint_Control_R.c **** 	{
 4847               		.loc 5 65 8 view .LVU1382
 4848               	.LBB517:
 4849               	.LBI517:
 465:../../LUFA-111009/LUFA/Drivers/USB/Core/AVR8/../AVR8/../AVR8/Endpoint_AVR8.h **** 			{
 4850               		.loc 2 465 23 view .LVU1383
 4851               	.LBB518:
 467:../../LUFA-111009/LUFA/Drivers/USB/Core/AVR8/../AVR8/../AVR8/Endpoint_AVR8.h **** 			}
 4852               		.loc 2 467 5 view .LVU1384
 467:../../LUFA-111009/LUFA/Drivers/USB/Core/AVR8/../AVR8/../AVR8/Endpoint_AVR8.h **** 			}
 4853               		.loc 2 467 14 is_stmt 0 view .LVU1385
 4854 0026 8091 E800 		lds r24,232
 4855               	.LBE518:
 4856               	.LBE517:
  65:../../LUFA-111009/LUFA/Drivers/USB/Core/AVR8/Template/Template_Endpoint_Control_R.c **** 	{
 4857               		.loc 5 65 8 view .LVU1386
 4858 002a 80FF      		sbrs r24,0
 4859 002c 00C0      		rjmp .L377
  75:../../LUFA-111009/LUFA/Drivers/USB/Core/AVR8/Template/Template_Endpoint_Control_R.c **** }
 4860               		.loc 5 75 9 view .LVU1387
 4861 002e 80E0      		ldi r24,0
 4862               	.L367:
 4863               	/* epilogue start */
 4864               		.loc 5 76 1 view .LVU1388
 4865 0030 DF91      		pop r29
 4866 0032 CF91      		pop r28
 4867               	.LVL423:
 4868               		.loc 5 76 1 view .LVU1389
 4869 0034 1F91      		pop r17
 4870 0036 0F91      		pop r16
 4871               	.LVL424:
 4872               		.loc 5 76 1 view .LVU1390
 4873 0038 0895      		ret
 4874               	.LVL425:
 4875               	.L375:
 4876               	.LBB519:
  43:../../LUFA-111009/LUFA/Drivers/USB/Core/AVR8/Template/Template_Endpoint_Control_R.c **** 
 4877               		.loc 5 43 3 is_stmt 1 view .LVU1391
  43:../../LUFA-111009/LUFA/Drivers/USB/Core/AVR8/Template/Template_Endpoint_Control_R.c **** 
 4878               		.loc 5 43 11 is_stmt 0 view .LVU1392
 4879 003a 8EB3      		in r24,0x1e
 4880               	.LVL426:
  45:../../LUFA-111009/LUFA/Drivers/USB/Core/AVR8/Template/Template_Endpoint_Control_R.c **** 		  return ENDPOINT_RWCSTREAM_DeviceDisconnected;
 4881               		.loc 5 45 3 is_stmt 1 view .LVU1393
  45:../../LUFA-111009/LUFA/Drivers/USB/Core/AVR8/Template/Template_Endpoint_Control_R.c **** 		  return ENDPOINT_RWCSTREAM_DeviceDisconnected;
 4882               		.loc 5 45 6 is_stmt 0 view .LVU1394
 4883 003c 8823      		tst r24
 4884 003e 01F0      		breq .L381
  47:../../LUFA-111009/LUFA/Drivers/USB/Core/AVR8/Template/Template_Endpoint_Control_R.c **** 		  return ENDPOINT_RWCSTREAM_BusSuspended;
 4885               		.loc 5 47 8 is_stmt 1 view .LVU1395
  47:../../LUFA-111009/LUFA/Drivers/USB/Core/AVR8/Template/Template_Endpoint_Control_R.c **** 		  return ENDPOINT_RWCSTREAM_BusSuspended;
 4886               		.loc 5 47 11 is_stmt 0 view .LVU1396
 4887 0040 8530      		cpi r24,lo8(5)
 4888 0042 01F0      		breq .L382
  49:../../LUFA-111009/LUFA/Drivers/USB/Core/AVR8/Template/Template_Endpoint_Control_R.c **** 		  return ENDPOINT_RWCSTREAM_HostAborted;
 4889               		.loc 5 49 8 is_stmt 1 view .LVU1397
 4890               	.LBB509:
 4891               	.LBI509:
 489:../../LUFA-111009/LUFA/Drivers/USB/Core/AVR8/../AVR8/../AVR8/Endpoint_AVR8.h **** 			{
 4892               		.loc 2 489 23 view .LVU1398
 4893               	.LBB510:
 491:../../LUFA-111009/LUFA/Drivers/USB/Core/AVR8/../AVR8/../AVR8/Endpoint_AVR8.h **** 			}
 4894               		.loc 2 491 5 view .LVU1399
 491:../../LUFA-111009/LUFA/Drivers/USB/Core/AVR8/../AVR8/../AVR8/Endpoint_AVR8.h **** 			}
 4895               		.loc 2 491 14 is_stmt 0 view .LVU1400
 4896 0044 8091 E800 		lds r24,232
 4897               	.LVL427:
 491:../../LUFA-111009/LUFA/Drivers/USB/Core/AVR8/../AVR8/../AVR8/Endpoint_AVR8.h **** 			}
 4898               		.loc 2 491 14 view .LVU1401
 4899               	.LBE510:
 4900               	.LBE509:
  49:../../LUFA-111009/LUFA/Drivers/USB/Core/AVR8/Template/Template_Endpoint_Control_R.c **** 		  return ENDPOINT_RWCSTREAM_HostAborted;
 4901               		.loc 5 49 11 view .LVU1402
 4902 0048 83FD      		sbrc r24,3
 4903 004a 00C0      		rjmp .L380
  52:../../LUFA-111009/LUFA/Drivers/USB/Core/AVR8/Template/Template_Endpoint_Control_R.c **** 		{
 4904               		.loc 5 52 3 is_stmt 1 view .LVU1403
 4905               	.LBB511:
 4906               	.LBI511:
 477:../../LUFA-111009/LUFA/Drivers/USB/Core/AVR8/../AVR8/../AVR8/Endpoint_AVR8.h **** 			{
 4907               		.loc 2 477 23 view .LVU1404
 4908               	.LBB512:
 479:../../LUFA-111009/LUFA/Drivers/USB/Core/AVR8/../AVR8/../AVR8/Endpoint_AVR8.h **** 			}
 4909               		.loc 2 479 5 view .LVU1405
 479:../../LUFA-111009/LUFA/Drivers/USB/Core/AVR8/../AVR8/../AVR8/Endpoint_AVR8.h **** 			}
 4910               		.loc 2 479 14 is_stmt 0 view .LVU1406
 4911 004c 8091 E800 		lds r24,232
 4912               	.LBE512:
 4913               	.LBE511:
  52:../../LUFA-111009/LUFA/Drivers/USB/Core/AVR8/Template/Template_Endpoint_Control_R.c **** 		{
 4914               		.loc 5 52 6 view .LVU1407
 4915 0050 82FF      		sbrs r24,2
 4916 0052 00C0      		rjmp .L372
 4917               	.L371:
 4918               	.LBB513:
 4919               	.LBI513:
 290:../../LUFA-111009/LUFA/Drivers/USB/Core/AVR8/../AVR8/../AVR8/Endpoint_AVR8.h **** 			{
 4920               		.loc 2 290 27 is_stmt 1 view .LVU1408
 4921               	.LBB514:
 295:../../LUFA-111009/LUFA/Drivers/USB/Core/AVR8/../AVR8/../AVR8/Endpoint_AVR8.h **** 				#elif defined(USB_SERIES_2_AVR)
 4922               		.loc 2 295 6 view .LVU1409
 295:../../LUFA-111009/LUFA/Drivers/USB/Core/AVR8/../AVR8/../AVR8/Endpoint_AVR8.h **** 				#elif defined(USB_SERIES_2_AVR)
 4923               		.loc 2 295 25 is_stmt 0 view .LVU1410
 4924 0054 9091 F300 		lds r25,243
 295:../../LUFA-111009/LUFA/Drivers/USB/Core/AVR8/../AVR8/../AVR8/Endpoint_AVR8.h **** 				#elif defined(USB_SERIES_2_AVR)
 4925               		.loc 2 295 40 view .LVU1411
 4926 0058 8091 F200 		lds r24,242
 4927               	.LBE514:
 4928               	.LBE513:
  54:../../LUFA-111009/LUFA/Drivers/USB/Core/AVR8/Template/Template_Endpoint_Control_R.c **** 			{
 4929               		.loc 5 54 18 view .LVU1412
 4930 005c 892B      		or r24,r25
 4931 005e 01F0      		breq .L373
  56:../../LUFA-111009/LUFA/Drivers/USB/Core/AVR8/Template/Template_Endpoint_Control_R.c **** 				TEMPLATE_BUFFER_MOVE(DataStream, 1);
 4932               		.loc 5 56 5 is_stmt 1 view .LVU1413
 4933               	.LBB515:
 4934               	.LBI515:
 610:../../LUFA-111009/LUFA/Drivers/USB/Core/AVR8/../AVR8/../AVR8/Endpoint_AVR8.h **** 			{
 4935               		.loc 2 610 26 view .LVU1414
 4936               	.LBB516:
 612:../../LUFA-111009/LUFA/Drivers/USB/Core/AVR8/../AVR8/../AVR8/Endpoint_AVR8.h **** 			}
 4937               		.loc 2 612 5 view .LVU1415
 612:../../LUFA-111009/LUFA/Drivers/USB/Core/AVR8/../AVR8/../AVR8/Endpoint_AVR8.h **** 			}
 4938               		.loc 2 612 12 is_stmt 0 view .LVU1416
 4939 0060 6091 F100 		lds r22,241
 4940               	.LBE516:
 4941               	.LBE515:
  56:../../LUFA-111009/LUFA/Drivers/USB/Core/AVR8/Template/Template_Endpoint_Control_R.c **** 				TEMPLATE_BUFFER_MOVE(DataStream, 1);
 4942               		.loc 5 56 5 view .LVU1417
 4943 0064 C801      		movw r24,r16
 4944 0066 0E94 0000 		call eeprom_update_byte
 4945               	.LVL428:
  57:../../LUFA-111009/LUFA/Drivers/USB/Core/AVR8/Template/Template_Endpoint_Control_R.c **** 				Length--;
 4946               		.loc 5 57 5 is_stmt 1 view .LVU1418
 4947 006a 0150      		subi r16,1
 4948 006c 1109      		sbc r17,__zero_reg__
 4949               	.LVL429:
  58:../../LUFA-111009/LUFA/Drivers/USB/Core/AVR8/Template/Template_Endpoint_Control_R.c **** 			}
 4950               		.loc 5 58 5 view .LVU1419
  58:../../LUFA-111009/LUFA/Drivers/USB/Core/AVR8/Template/Template_Endpoint_Control_R.c **** 			}
 4951               		.loc 5 58 11 is_stmt 0 view .LVU1420
 4952 006e 2197      		sbiw r28,1
 4953               	.LVL430:
  54:../../LUFA-111009/LUFA/Drivers/USB/Core/AVR8/Template/Template_Endpoint_Control_R.c **** 			{
 4954               		.loc 5 54 10 is_stmt 1 view .LVU1421
 4955 0070 01F4      		brne .L371
 4956 0072 00C0      		rjmp .L373
 4957               	.L377:
  54:../../LUFA-111009/LUFA/Drivers/USB/Core/AVR8/Template/Template_Endpoint_Control_R.c **** 			{
 4958               		.loc 5 54 10 is_stmt 0 view .LVU1422
 4959               	.LBE519:
 4960               	.LBB520:
  67:../../LUFA-111009/LUFA/Drivers/USB/Core/AVR8/Template/Template_Endpoint_Control_R.c **** 
 4961               		.loc 5 67 3 is_stmt 1 view .LVU1423
  67:../../LUFA-111009/LUFA/Drivers/USB/Core/AVR8/Template/Template_Endpoint_Control_R.c **** 
 4962               		.loc 5 67 11 is_stmt 0 view .LVU1424
 4963 0074 8EB3      		in r24,0x1e
 4964               	.LVL431:
  69:../../LUFA-111009/LUFA/Drivers/USB/Core/AVR8/Template/Template_Endpoint_Control_R.c **** 		  return ENDPOINT_RWCSTREAM_DeviceDisconnected;
 4965               		.loc 5 69 3 is_stmt 1 view .LVU1425
  69:../../LUFA-111009/LUFA/Drivers/USB/Core/AVR8/Template/Template_Endpoint_Control_R.c **** 		  return ENDPOINT_RWCSTREAM_DeviceDisconnected;
 4966               		.loc 5 69 6 is_stmt 0 view .LVU1426
 4967 0076 8823      		tst r24
 4968 0078 01F0      		breq .L381
  71:../../LUFA-111009/LUFA/Drivers/USB/Core/AVR8/Template/Template_Endpoint_Control_R.c **** 		  return ENDPOINT_RWCSTREAM_BusSuspended;
 4969               		.loc 5 71 8 is_stmt 1 view .LVU1427
  71:../../LUFA-111009/LUFA/Drivers/USB/Core/AVR8/Template/Template_Endpoint_Control_R.c **** 		  return ENDPOINT_RWCSTREAM_BusSuspended;
 4970               		.loc 5 71 11 is_stmt 0 view .LVU1428
 4971 007a 8530      		cpi r24,lo8(5)
 4972 007c 01F4      		brne .L376
 4973               	.LVL432:
 4974               	.L382:
  71:../../LUFA-111009/LUFA/Drivers/USB/Core/AVR8/Template/Template_Endpoint_Control_R.c **** 		  return ENDPOINT_RWCSTREAM_BusSuspended;
 4975               		.loc 5 71 11 view .LVU1429
 4976               	.LBE520:
 4977               	.LBB521:
  48:../../LUFA-111009/LUFA/Drivers/USB/Core/AVR8/Template/Template_Endpoint_Control_R.c **** 		else if (Endpoint_IsSETUPReceived())
 4978               		.loc 5 48 12 view .LVU1430
 4979 007e 83E0      		ldi r24,lo8(3)
 4980 0080 00C0      		rjmp .L367
 4981               	.L380:
  50:../../LUFA-111009/LUFA/Drivers/USB/Core/AVR8/Template/Template_Endpoint_Control_R.c **** 
 4982               		.loc 5 50 12 view .LVU1431
 4983 0082 81E0      		ldi r24,lo8(1)
 4984 0084 00C0      		rjmp .L367
 4985               	.L381:
  46:../../LUFA-111009/LUFA/Drivers/USB/Core/AVR8/Template/Template_Endpoint_Control_R.c **** 		else if (USB_DeviceState_LCL == DEVICE_STATE_Suspended)
 4986               		.loc 5 46 12 view .LVU1432
 4987 0086 82E0      		ldi r24,lo8(2)
 4988 0088 00C0      		rjmp .L367
 4989               	.LBE521:
 4990               		.cfi_endproc
 4991               	.LFE102:
 4993               		.text
 4994               	.Letext0:
 4995               		.file 6 "/usr/local/Cellar/avr-gcc/9.2.0_1/avr/include/stdint.h"
 4996               		.file 7 "../../LUFA-111009/LUFA/Drivers/USB/Core/AVR8/../AVR8/../StdRequestType.h"
 4997               		.file 8 "../../LUFA-111009/LUFA/Drivers/USB/Core/AVR8/../AVR8/../Device.h"
 4998               		.file 9 "../../LUFA-111009/LUFA/Drivers/USB/Core/AVR8/../AVR8/../EndpointStream.h"
 4999               		.file 10 "../../LUFA-111009/LUFA/Drivers/USB/Core/AVR8/../AVR8/../DeviceStandardReq.h"
 5000               		.file 11 "../../LUFA-111009/LUFA/Drivers/USB/Core/AVR8/../USBTask.h"
 5001               		.file 12 "/usr/local/Cellar/avr-gcc/9.2.0_1/avr/include/avr/eeprom.h"
DEFINED SYMBOLS
                            *ABS*:0000000000000000 EndpointStream_AVR8.c
/var/folders/21/48xmffd55532bzn9lrp15kkc0000gn/T//cccOKHaM.s:2      *ABS*:000000000000003e __SP_H__
/var/folders/21/48xmffd55532bzn9lrp15kkc0000gn/T//cccOKHaM.s:3      *ABS*:000000000000003d __SP_L__
/var/folders/21/48xmffd55532bzn9lrp15kkc0000gn/T//cccOKHaM.s:4      *ABS*:000000000000003f __SREG__
/var/folders/21/48xmffd55532bzn9lrp15kkc0000gn/T//cccOKHaM.s:5      *ABS*:0000000000000000 __tmp_reg__
/var/folders/21/48xmffd55532bzn9lrp15kkc0000gn/T//cccOKHaM.s:6      *ABS*:0000000000000001 __zero_reg__
/var/folders/21/48xmffd55532bzn9lrp15kkc0000gn/T//cccOKHaM.s:13     .text.Endpoint_Discard_Stream:0000000000000000 Endpoint_Discard_Stream
/var/folders/21/48xmffd55532bzn9lrp15kkc0000gn/T//cccOKHaM.s:195    .text.Endpoint_Null_Stream:0000000000000000 Endpoint_Null_Stream
/var/folders/21/48xmffd55532bzn9lrp15kkc0000gn/T//cccOKHaM.s:375    .text.Endpoint_Write_Stream_LE:0000000000000000 Endpoint_Write_Stream_LE
/var/folders/21/48xmffd55532bzn9lrp15kkc0000gn/T//cccOKHaM.s:583    .text.Endpoint_Write_Stream_BE:0000000000000000 Endpoint_Write_Stream_BE
/var/folders/21/48xmffd55532bzn9lrp15kkc0000gn/T//cccOKHaM.s:800    .text.Endpoint_Read_Stream_LE:0000000000000000 Endpoint_Read_Stream_LE
/var/folders/21/48xmffd55532bzn9lrp15kkc0000gn/T//cccOKHaM.s:1006   .text.Endpoint_Read_Stream_BE:0000000000000000 Endpoint_Read_Stream_BE
/var/folders/21/48xmffd55532bzn9lrp15kkc0000gn/T//cccOKHaM.s:1221   .text.Endpoint_Write_PStream_LE:0000000000000000 Endpoint_Write_PStream_LE
/var/folders/21/48xmffd55532bzn9lrp15kkc0000gn/T//cccOKHaM.s:1442   .text.Endpoint_Write_PStream_BE:0000000000000000 Endpoint_Write_PStream_BE
/var/folders/21/48xmffd55532bzn9lrp15kkc0000gn/T//cccOKHaM.s:1672   .text.Endpoint_Write_EStream_LE:0000000000000000 Endpoint_Write_EStream_LE
/var/folders/21/48xmffd55532bzn9lrp15kkc0000gn/T//cccOKHaM.s:1881   .text.Endpoint_Write_EStream_BE:0000000000000000 Endpoint_Write_EStream_BE
/var/folders/21/48xmffd55532bzn9lrp15kkc0000gn/T//cccOKHaM.s:2099   .text.Endpoint_Read_EStream_LE:0000000000000000 Endpoint_Read_EStream_LE
/var/folders/21/48xmffd55532bzn9lrp15kkc0000gn/T//cccOKHaM.s:2307   .text.Endpoint_Read_EStream_BE:0000000000000000 Endpoint_Read_EStream_BE
/var/folders/21/48xmffd55532bzn9lrp15kkc0000gn/T//cccOKHaM.s:2524   .text.Endpoint_Write_Control_Stream_LE:0000000000000000 Endpoint_Write_Control_Stream_LE
/var/folders/21/48xmffd55532bzn9lrp15kkc0000gn/T//cccOKHaM.s:2782   .text.Endpoint_Write_Control_Stream_BE:0000000000000000 Endpoint_Write_Control_Stream_BE
/var/folders/21/48xmffd55532bzn9lrp15kkc0000gn/T//cccOKHaM.s:3053   .text.Endpoint_Read_Control_Stream_LE:0000000000000000 Endpoint_Read_Control_Stream_LE
/var/folders/21/48xmffd55532bzn9lrp15kkc0000gn/T//cccOKHaM.s:3237   .text.Endpoint_Read_Control_Stream_BE:0000000000000000 Endpoint_Read_Control_Stream_BE
/var/folders/21/48xmffd55532bzn9lrp15kkc0000gn/T//cccOKHaM.s:3422   .text.Endpoint_Write_Control_PStream_LE:0000000000000000 Endpoint_Write_Control_PStream_LE
/var/folders/21/48xmffd55532bzn9lrp15kkc0000gn/T//cccOKHaM.s:3693   .text.Endpoint_Write_Control_PStream_BE:0000000000000000 Endpoint_Write_Control_PStream_BE
/var/folders/21/48xmffd55532bzn9lrp15kkc0000gn/T//cccOKHaM.s:3977   .text.Endpoint_Write_Control_EStream_LE:0000000000000000 Endpoint_Write_Control_EStream_LE
/var/folders/21/48xmffd55532bzn9lrp15kkc0000gn/T//cccOKHaM.s:4275   .text.Endpoint_Write_Control_EStream_BE:0000000000000000 Endpoint_Write_Control_EStream_BE
/var/folders/21/48xmffd55532bzn9lrp15kkc0000gn/T//cccOKHaM.s:4580   .text.Endpoint_Read_Control_EStream_LE:0000000000000000 Endpoint_Read_Control_EStream_LE
/var/folders/21/48xmffd55532bzn9lrp15kkc0000gn/T//cccOKHaM.s:4785   .text.Endpoint_Read_Control_EStream_BE:0000000000000000 Endpoint_Read_Control_EStream_BE

UNDEFINED SYMBOLS
Endpoint_WaitUntilReady
USB_USBTask
eeprom_read_byte
eeprom_update_byte
USB_ControlRequest
